
kernel.elf:     file format elf64-littleaarch64


Disassembly of section .init:

0000000000080000 <_start>:
   80000:	1000000c 	adr	x12, 80000 <_start>
   80004:	58000fa1 	ldr	x1, 801f8 <secondary_spin+0x28>
   80008:	b900002c 	str	w12, [x1]
   8000c:	58000fa0 	ldr	x0, 80200 <secondary_spin+0x30>
   80010:	58000fc1 	ldr	x1, 80208 <secondary_spin+0x38>
   80014:	b9000020 	str	w0, [x1]
   80018:	58000fc0 	ldr	x0, 80210 <secondary_spin+0x40>
   8001c:	58000fe1 	ldr	x1, 80218 <secondary_spin+0x48>
   80020:	b9000020 	str	w0, [x1]
   80024:	d2800020 	mov	x0, #0x1                   	// #1
   80028:	58000fc1 	ldr	x1, 80220 <secondary_spin+0x50>
   8002c:	b9000020 	str	w0, [x1]
   80030:	d2801300 	mov	x0, #0x98                  	// #152
   80034:	58000fa1 	ldr	x1, 80228 <secondary_spin+0x58>
   80038:	b9000020 	str	w0, [x1]
   8003c:	d5380000 	mrs	x0, midr_el1
   80040:	58000f81 	ldr	x1, 80230 <secondary_spin+0x60>
   80044:	b9000020 	str	w0, [x1]
   80048:	d53ce100 	mrs	x0, cnthctl_el2
   8004c:	b2400400 	orr	x0, x0, #0x3
   80050:	d51ce100 	msr	cnthctl_el2, x0
   80054:	d51ce07f 	msr	cntvoff_el2, xzr
   80058:	d538e100 	mrs	x0, cntkctl_el1
   8005c:	b2400400 	orr	x0, x0, #0x3
   80060:	d518e100 	msr	cntkctl_el1, x0

0000000000080064 <multicore_start>:
   80064:	58000ea2 	ldr	x2, 80238 <secondary_spin+0x68>
   80068:	58000ec3 	ldr	x3, 80240 <secondary_spin+0x70>
   8006c:	58000ee4 	ldr	x4, 80248 <secondary_spin+0x78>
   80070:	d53800a6 	mrs	x6, mpidr_el1
   80074:	f24004c6 	ands	x6, x6, #0x3
   80078:	540001c0 	b.eq	800b0 <set_stacks>  // b.none
   8007c:	58000ea2 	ldr	x2, 80250 <secondary_spin+0x80>
   80080:	58000ec3 	ldr	x3, 80258 <secondary_spin+0x88>
   80084:	58000ee4 	ldr	x4, 80260 <secondary_spin+0x90>
   80088:	f10004df 	cmp	x6, #0x1
   8008c:	54000120 	b.eq	800b0 <set_stacks>  // b.none
   80090:	58000ec2 	ldr	x2, 80268 <secondary_spin+0x98>
   80094:	58000ee3 	ldr	x3, 80270 <secondary_spin+0xa0>
   80098:	58000f04 	ldr	x4, 80278 <secondary_spin+0xa8>
   8009c:	f10008df 	cmp	x6, #0x2
   800a0:	54000080 	b.eq	800b0 <set_stacks>  // b.none
   800a4:	58000ee2 	ldr	x2, 80280 <secondary_spin+0xb0>
   800a8:	58000f03 	ldr	x3, 80288 <secondary_spin+0xb8>
   800ac:	58000f24 	ldr	x4, 80290 <secondary_spin+0xc0>

00000000000800b0 <set_stacks>:
   800b0:	9100005f 	mov	sp, x2
   800b4:	d51c4103 	msr	sp_el1, x3
   800b8:	d5184104 	msr	sp_el0, x4
   800bc:	d5380000 	mrs	x0, midr_el1
   800c0:	d53800a1 	mrs	x1, mpidr_el1
   800c4:	d51c0000 	msr	vpidr_el2, x0
   800c8:	d51c00a1 	msr	vmpidr_el2, x1
   800cc:	d2867fe0 	mov	x0, #0x33ff                	// #13311
   800d0:	d51c1140 	msr	cptr_el2, x0
   800d4:	d51c117f 	msr	hstr_el2, xzr
   800d8:	d2a00600 	mov	x0, #0x300000              	// #3145728
   800dc:	d5181040 	msr	cpacr_el1, x0
   800e0:	d2b00000 	mov	x0, #0x80000000            	// #2147483648
   800e4:	d51c1100 	msr	hcr_el2, x0
   800e8:	d2810000 	mov	x0, #0x800                 	// #2048
   800ec:	f2a61a00 	movk	x0, #0x30d0, lsl #16
   800f0:	b27e0000 	orr	x0, x0, #0x4
   800f4:	b2740000 	orr	x0, x0, #0x1000
   800f8:	d5181000 	msr	sctlr_el1, x0
   800fc:	d28078a0 	mov	x0, #0x3c5                 	// #965
   80100:	d51c4000 	msr	spsr_el2, x0
   80104:	10000060 	adr	x0, 80110 <exit_el1>
   80108:	d51c4020 	msr	elr_el2, x0
   8010c:	d69f03e0 	eret

0000000000080110 <exit_el1>:
   80110:	d53800a6 	mrs	x6, mpidr_el1
   80114:	924004c6 	and	x6, x6, #0x3
   80118:	b40000c6 	cbz	x6, 80130 <cpu0_exit_multicore_park>
   8011c:	58000821 	ldr	x1, 80220 <secondary_spin+0x50>
   80120:	b9400020 	ldr	w0, [x1]
   80124:	11000400 	add	w0, w0, #0x1
   80128:	b9000020 	str	w0, [x1]
   8012c:	14000024 	b	801bc <StartSecondarySpin>

0000000000080130 <cpu0_exit_multicore_park>:
   80130:	58000b40 	ldr	x0, 80298 <secondary_spin+0xc8>
   80134:	d518c000 	msr	vbar_el1, x0
   80138:	58000b43 	ldr	x3, 802a0 <secondary_spin+0xd0>
   8013c:	58000b60 	ldr	x0, 802a8 <secondary_spin+0xd8>
   80140:	eb03001f 	cmp	x0, x3
   80144:	54000082 	b.cs	80154 <.bss_cleared>  // b.hs, b.nlast

0000000000080148 <.bss_zero_loop>:
   80148:	b800441f 	str	wzr, [x0], #4
   8014c:	eb00007f 	cmp	x3, x0
   80150:	54ffffc8 	b.hi	80148 <.bss_zero_loop>  // b.pmore

0000000000080154 <.bss_cleared>:
   80154:	d2801c01 	mov	x1, #0xe0                  	// #224
   80158:	58000ac2 	ldr	x2, 802b0 <secondary_spin+0xe0>
   8015c:	f9000022 	str	x2, [x1]
   80160:	d503209f 	sev
   80164:	580005e3 	ldr	x3, 80220 <secondary_spin+0x50>

0000000000080168 <.WaitCore1ACK>:
   80168:	b9400061 	ldr	w1, [x3]
   8016c:	7100083f 	cmp	w1, #0x2
   80170:	54ffffc1 	b.ne	80168 <.WaitCore1ACK>  // b.any
   80174:	d2801d01 	mov	x1, #0xe8                  	// #232
   80178:	580009c2 	ldr	x2, 802b0 <secondary_spin+0xe0>
   8017c:	f9000022 	str	x2, [x1]
   80180:	d503209f 	sev
   80184:	580004e3 	ldr	x3, 80220 <secondary_spin+0x50>

0000000000080188 <.WaitCore2ACK>:
   80188:	b9400061 	ldr	w1, [x3]
   8018c:	71000c3f 	cmp	w1, #0x3
   80190:	54ffffc1 	b.ne	80188 <.WaitCore2ACK>  // b.any
   80194:	d2801e01 	mov	x1, #0xf0                  	// #240
   80198:	580008c2 	ldr	x2, 802b0 <secondary_spin+0xe0>
   8019c:	f9000022 	str	x2, [x1]
   801a0:	d503209f 	sev
   801a4:	580003e3 	ldr	x3, 80220 <secondary_spin+0x50>

00000000000801a8 <.WaitCore3ACK>:
   801a8:	b9400061 	ldr	w1, [x3]
   801ac:	7100103f 	cmp	w1, #0x4
   801b0:	54ffffc1 	b.ne	801a8 <.WaitCore3ACK>  // b.any
   801b4:	14000193 	b	80800 <EcoMain>

00000000000801b8 <hang>:
   801b8:	14000000 	b	801b8 <hang>

00000000000801bc <StartSecondarySpin>:
   801bc:	d53800a6 	mrs	x6, mpidr_el1
   801c0:	924004c6 	and	x6, x6, #0x3
   801c4:	d2801b05 	mov	x5, #0xd8                  	// #216
   801c8:	d2800001 	mov	x1, #0x0                   	// #0
   801cc:	f82678a1 	str	x1, [x5, x6, lsl #3]

00000000000801d0 <secondary_spin>:
   801d0:	d503205f 	wfe
   801d4:	f86678a4 	ldr	x4, [x5, x6, lsl #3]
   801d8:	b4ffffc4 	cbz	x4, 801d0 <secondary_spin>
   801dc:	d2800000 	mov	x0, #0x0                   	// #0
   801e0:	f82678a0 	str	x0, [x5, x6, lsl #3]
   801e4:	d2800001 	mov	x1, #0x0                   	// #0
   801e8:	d2800002 	mov	x2, #0x0                   	// #0
   801ec:	d2800003 	mov	x3, #0x0                   	// #0
   801f0:	d63f0080 	blr	x4
   801f4:	17fffff2 	b	801bc <StartSecondarySpin>
   801f8:	0008ec18 	.word	0x0008ec18
   801fc:	00000000 	.word	0x00000000
   80200:	3f000000 	.word	0x3f000000
   80204:	00000000 	.word	0x00000000
   80208:	0008ec10 	.word	0x0008ec10
   8020c:	00000000 	.word	0x00000000
   80210:	c0000000 	.word	0xc0000000
   80214:	00000000 	.word	0x00000000
   80218:	0008ec14 	.word	0x0008ec14
   8021c:	00000000 	.word	0x00000000
   80220:	0008ec1c 	.word	0x0008ec1c
   80224:	00000000 	.word	0x00000000
   80228:	0008ec28 	.word	0x0008ec28
   8022c:	00000000 	.word	0x00000000
   80230:	0008ec24 	.word	0x0008ec24
   80234:	00000000 	.word	0x00000000
   80238:	00115200 	.word	0x00115200
   8023c:	00000000 	.word	0x00000000
   80240:	00114200 	.word	0x00114200
   80244:	00000000 	.word	0x00000000
   80248:	00110200 	.word	0x00110200
   8024c:	00000000 	.word	0x00000000
   80250:	00116600 	.word	0x00116600
   80254:	00000000 	.word	0x00000000
   80258:	00115600 	.word	0x00115600
   8025c:	00000000 	.word	0x00000000
   80260:	00115400 	.word	0x00115400
   80264:	00000000 	.word	0x00000000
   80268:	00117a00 	.word	0x00117a00
   8026c:	00000000 	.word	0x00000000
   80270:	00116a00 	.word	0x00116a00
   80274:	00000000 	.word	0x00000000
   80278:	00116800 	.word	0x00116800
   8027c:	00000000 	.word	0x00000000
   80280:	00118e00 	.word	0x00118e00
   80284:	00000000 	.word	0x00000000
   80288:	00117e00 	.word	0x00117e00
   8028c:	00000000 	.word	0x00000000
   80290:	00117c00 	.word	0x00117c00
   80294:	00000000 	.word	0x00000000
   80298:	00081800 	.word	0x00081800
   8029c:	00000000 	.word	0x00000000
   802a0:	0010e03c 	.word	0x0010e03c
   802a4:	00000000 	.word	0x00000000
   802a8:	000904e0 	.word	0x000904e0
   802ac:	00000000 	.word	0x00000000
   802b0:	00080064 	.word	0x00080064
   802b4:	00000000 	.word	0x00000000

Disassembly of section .text:

0000000000080800 <EcoMain>:
   80800:	f8190ffe 	str	x30, [sp, #-112]!
   80804:	f9000fe0 	str	x0, [sp, #24]
   80808:	12800000 	mov	w0, #0xffffffff            	// #-1
   8080c:	7900dfe0 	strh	w0, [sp, #110]
   80810:	f90033ff 	str	xzr, [sp, #96]
   80814:	f90023ff 	str	xzr, [sp, #64]
   80818:	f9001fff 	str	xzr, [sp, #56]
   8081c:	f9001bff 	str	xzr, [sp, #48]
   80820:	f90017ff 	str	xzr, [sp, #40]
   80824:	f90013ff 	str	xzr, [sp, #32]
   80828:	7900dbff 	strh	wzr, [sp, #108]
   8082c:	7900bfff 	strh	wzr, [sp, #94]
   80830:	52800400 	mov	w0, #0x20                  	// #32
   80834:	7900bbe0 	strh	w0, [sp, #92]
   80838:	528008c0 	mov	w0, #0x46                  	// #70
   8083c:	7900b7e0 	strh	w0, [sp, #90]
   80840:	12800aa0 	mov	w0, #0xffffffaa            	// #-86
   80844:	390167e0 	strb	w0, [sp, #89]
   80848:	f0000060 	adrp	x0, 8f000 <g_x939B1DCDB6404F7D9C072291AF252188Factory+0xa0>
   8084c:	910ba000 	add	x0, x0, #0x2e8
   80850:	f9400000 	ldr	x0, [x0]
   80854:	f9400000 	ldr	x0, [x0]
   80858:	f9400c05 	ldr	x5, [x0, #24]
   8085c:	f0000060 	adrp	x0, 8f000 <g_x939B1DCDB6404F7D9C072291AF252188Factory+0xa0>
   80860:	910ba000 	add	x0, x0, #0x2e8
   80864:	f9400006 	ldr	x6, [x0]
   80868:	910103e1 	add	x1, sp, #0x40
   8086c:	d0000460 	adrp	x0, 10e000 <ECO_CGI_1_PIXEL_VALIDITY_FLAG_e>
   80870:	9103a000 	add	x0, x0, #0xe8
   80874:	aa0103e4 	mov	x4, x1
   80878:	aa0003e3 	mov	x3, x0
   8087c:	d2800002 	mov	x2, #0x0                   	// #0
   80880:	d2800001 	mov	x1, #0x0                   	// #0
   80884:	aa0603e0 	mov	x0, x6
   80888:	d63f00a0 	blr	x5
   8088c:	7900dfe0 	strh	w0, [sp, #110]
   80890:	79c0dfe0 	ldrsh	w0, [sp, #110]
   80894:	7100001f 	cmp	w0, #0x0
   80898:	54000080 	b.eq	808a8 <EcoMain+0xa8>  // b.none
   8089c:	f94023e0 	ldr	x0, [sp, #64]
   808a0:	f100001f 	cmp	x0, #0x0
   808a4:	54002b20 	b.eq	80e08 <EcoMain+0x608>  // b.none
   808a8:	f94023e0 	ldr	x0, [sp, #64]
   808ac:	f9400000 	ldr	x0, [x0]
   808b0:	f9401403 	ldr	x3, [x0, #40]
   808b4:	f94023e4 	ldr	x4, [sp, #64]
   808b8:	d0000060 	adrp	x0, 8e000 <_malloc_r+0x1e8>
   808bc:	9134a000 	add	x0, x0, #0xd28
   808c0:	f9400001 	ldr	x1, [x0]
   808c4:	d0000460 	adrp	x0, 10e000 <ECO_CGI_1_PIXEL_VALIDITY_FLAG_e>
   808c8:	9102e000 	add	x0, x0, #0xb8
   808cc:	aa0103e2 	mov	x2, x1
   808d0:	aa0003e1 	mov	x1, x0
   808d4:	aa0403e0 	mov	x0, x4
   808d8:	d63f0060 	blr	x3
   808dc:	7900dfe0 	strh	w0, [sp, #110]
   808e0:	f94023e0 	ldr	x0, [sp, #64]
   808e4:	f9400000 	ldr	x0, [x0]
   808e8:	f9401403 	ldr	x3, [x0, #40]
   808ec:	f94023e4 	ldr	x4, [sp, #64]
   808f0:	f0000060 	adrp	x0, 8f000 <g_x939B1DCDB6404F7D9C072291AF252188Factory+0xa0>
   808f4:	9112c000 	add	x0, x0, #0x4b0
   808f8:	f9400001 	ldr	x1, [x0]
   808fc:	d0000460 	adrp	x0, 10e000 <ECO_CGI_1_PIXEL_VALIDITY_FLAG_e>
   80900:	91034000 	add	x0, x0, #0xd0
   80904:	aa0103e2 	mov	x2, x1
   80908:	aa0003e1 	mov	x1, x0
   8090c:	aa0403e0 	mov	x0, x4
   80910:	d63f0060 	blr	x3
   80914:	7900dfe0 	strh	w0, [sp, #110]
   80918:	79c0dfe0 	ldrsh	w0, [sp, #110]
   8091c:	7100001f 	cmp	w0, #0x0
   80920:	54002781 	b.ne	80e10 <EcoMain+0x610>  // b.any
   80924:	f94023e0 	ldr	x0, [sp, #64]
   80928:	f9400000 	ldr	x0, [x0]
   8092c:	f9401403 	ldr	x3, [x0, #40]
   80930:	f94023e4 	ldr	x4, [sp, #64]
   80934:	d0000060 	adrp	x0, 8e000 <_malloc_r+0x1e8>
   80938:	913ac000 	add	x0, x0, #0xeb0
   8093c:	f9400001 	ldr	x1, [x0]
   80940:	d0000460 	adrp	x0, 10e000 <ECO_CGI_1_PIXEL_VALIDITY_FLAG_e>
   80944:	91088000 	add	x0, x0, #0x220
   80948:	aa0103e2 	mov	x2, x1
   8094c:	aa0003e1 	mov	x1, x0
   80950:	aa0403e0 	mov	x0, x4
   80954:	d63f0060 	blr	x3
   80958:	7900dfe0 	strh	w0, [sp, #110]
   8095c:	79c0dfe0 	ldrsh	w0, [sp, #110]
   80960:	7100001f 	cmp	w0, #0x0
   80964:	540025a1 	b.ne	80e18 <EcoMain+0x618>  // b.any
   80968:	f94023e0 	ldr	x0, [sp, #64]
   8096c:	f9400000 	ldr	x0, [x0]
   80970:	f9400003 	ldr	x3, [x0]
   80974:	f94023e4 	ldr	x4, [sp, #64]
   80978:	9100a3e1 	add	x1, sp, #0x28
   8097c:	d0000460 	adrp	x0, 10e000 <ECO_CGI_1_PIXEL_VALIDITY_FLAG_e>
   80980:	9107c000 	add	x0, x0, #0x1f0
   80984:	aa0103e2 	mov	x2, x1
   80988:	aa0003e1 	mov	x1, x0
   8098c:	aa0403e0 	mov	x0, x4
   80990:	d63f0060 	blr	x3
   80994:	7900dfe0 	strh	w0, [sp, #110]
   80998:	79c0dfe0 	ldrsh	w0, [sp, #110]
   8099c:	7100001f 	cmp	w0, #0x0
   809a0:	54000261 	b.ne	809ec <EcoMain+0x1ec>  // b.any
   809a4:	f94017e0 	ldr	x0, [sp, #40]
   809a8:	f100001f 	cmp	x0, #0x0
   809ac:	54000200 	b.eq	809ec <EcoMain+0x1ec>  // b.none
   809b0:	f94017e0 	ldr	x0, [sp, #40]
   809b4:	f9400000 	ldr	x0, [x0]
   809b8:	f9400c02 	ldr	x2, [x0, #24]
   809bc:	f94017e3 	ldr	x3, [sp, #40]
   809c0:	d0000460 	adrp	x0, 10e000 <ECO_CGI_1_PIXEL_VALIDITY_FLAG_e>
   809c4:	91034000 	add	x0, x0, #0xd0
   809c8:	aa0003e1 	mov	x1, x0
   809cc:	aa0303e0 	mov	x0, x3
   809d0:	d63f0040 	blr	x2
   809d4:	f94017e0 	ldr	x0, [sp, #40]
   809d8:	f9400000 	ldr	x0, [x0]
   809dc:	f9401402 	ldr	x2, [x0, #40]
   809e0:	f94017e0 	ldr	x0, [sp, #40]
   809e4:	52800021 	mov	w1, #0x1                   	// #1
   809e8:	d63f0040 	blr	x2
   809ec:	f94023e0 	ldr	x0, [sp, #64]
   809f0:	f9400000 	ldr	x0, [x0]
   809f4:	f9401c05 	ldr	x5, [x0, #56]
   809f8:	f94023e6 	ldr	x6, [sp, #64]
   809fc:	9100c3e2 	add	x2, sp, #0x30
   80a00:	d0000460 	adrp	x0, 10e000 <ECO_CGI_1_PIXEL_VALIDITY_FLAG_e>
   80a04:	91028001 	add	x1, x0, #0xa0
   80a08:	d0000460 	adrp	x0, 10e000 <ECO_CGI_1_PIXEL_VALIDITY_FLAG_e>
   80a0c:	91034000 	add	x0, x0, #0xd0
   80a10:	aa0203e4 	mov	x4, x2
   80a14:	aa0103e3 	mov	x3, x1
   80a18:	d2800002 	mov	x2, #0x0                   	// #0
   80a1c:	aa0003e1 	mov	x1, x0
   80a20:	aa0603e0 	mov	x0, x6
   80a24:	d63f00a0 	blr	x5
   80a28:	79c0dfe0 	ldrsh	w0, [sp, #110]
   80a2c:	7100001f 	cmp	w0, #0x0
   80a30:	54000081 	b.ne	80a40 <EcoMain+0x240>  // b.any
   80a34:	f9401be0 	ldr	x0, [sp, #48]
   80a38:	f100001f 	cmp	x0, #0x0
   80a3c:	54000061 	b.ne	80a48 <EcoMain+0x248>  // b.any
   80a40:	79c0dfe0 	ldrsh	w0, [sp, #110]
   80a44:	1400011b 	b	80eb0 <EcoMain+0x6b0>
   80a48:	f9401be0 	ldr	x0, [sp, #48]
   80a4c:	f9400000 	ldr	x0, [x0]
   80a50:	f9400c03 	ldr	x3, [x0, #24]
   80a54:	f9401be4 	ldr	x4, [sp, #48]
   80a58:	d00004e0 	adrp	x0, 11e000 <pg_dir+0x2000>
   80a5c:	91380000 	add	x0, x0, #0xe00
   80a60:	52a00102 	mov	w2, #0x80000               	// #524288
   80a64:	aa0003e1 	mov	x1, x0
   80a68:	aa0403e0 	mov	x0, x4
   80a6c:	d63f0060 	blr	x3
   80a70:	f94023e0 	ldr	x0, [sp, #64]
   80a74:	f9400000 	ldr	x0, [x0]
   80a78:	f9401403 	ldr	x3, [x0, #40]
   80a7c:	f94023e4 	ldr	x4, [sp, #64]
   80a80:	f0000060 	adrp	x0, 8f000 <g_x939B1DCDB6404F7D9C072291AF252188Factory+0xa0>
   80a84:	91004000 	add	x0, x0, #0x10
   80a88:	f9400001 	ldr	x1, [x0]
   80a8c:	d0000460 	adrp	x0, 10e000 <ECO_CGI_1_PIXEL_VALIDITY_FLAG_e>
   80a90:	91094000 	add	x0, x0, #0x250
   80a94:	aa0103e2 	mov	x2, x1
   80a98:	aa0003e1 	mov	x1, x0
   80a9c:	aa0403e0 	mov	x0, x4
   80aa0:	d63f0060 	blr	x3
   80aa4:	7900dfe0 	strh	w0, [sp, #110]
   80aa8:	79c0dfe0 	ldrsh	w0, [sp, #110]
   80aac:	7100001f 	cmp	w0, #0x0
   80ab0:	54001b81 	b.ne	80e20 <EcoMain+0x620>  // b.any
   80ab4:	f94023e0 	ldr	x0, [sp, #64]
   80ab8:	f9400000 	ldr	x0, [x0]
   80abc:	f9401c05 	ldr	x5, [x0, #56]
   80ac0:	f94023e6 	ldr	x6, [sp, #64]
   80ac4:	910083e2 	add	x2, sp, #0x20
   80ac8:	d0000460 	adrp	x0, 10e000 <ECO_CGI_1_PIXEL_VALIDITY_FLAG_e>
   80acc:	9108e001 	add	x1, x0, #0x238
   80ad0:	d0000460 	adrp	x0, 10e000 <ECO_CGI_1_PIXEL_VALIDITY_FLAG_e>
   80ad4:	91094000 	add	x0, x0, #0x250
   80ad8:	aa0203e4 	mov	x4, x2
   80adc:	aa0103e3 	mov	x3, x1
   80ae0:	d2800002 	mov	x2, #0x0                   	// #0
   80ae4:	aa0003e1 	mov	x1, x0
   80ae8:	aa0603e0 	mov	x0, x6
   80aec:	d63f00a0 	blr	x5
   80af0:	7900dfe0 	strh	w0, [sp, #110]
   80af4:	79c0dfe0 	ldrsh	w0, [sp, #110]
   80af8:	7100001f 	cmp	w0, #0x0
   80afc:	54001961 	b.ne	80e28 <EcoMain+0x628>  // b.any
   80b00:	f94013e0 	ldr	x0, [sp, #32]
   80b04:	f100001f 	cmp	x0, #0x0
   80b08:	54001900 	b.eq	80e28 <EcoMain+0x628>  // b.none
   80b0c:	f94013e0 	ldr	x0, [sp, #32]
   80b10:	f9400000 	ldr	x0, [x0]
   80b14:	f9403c08 	ldr	x8, [x0, #120]
   80b18:	f94013e9 	ldr	x9, [sp, #32]
   80b1c:	d0000460 	adrp	x0, 10e000 <ECO_CGI_1_PIXEL_VALIDITY_FLAG_e>
   80b20:	9109a000 	add	x0, x0, #0x268
   80b24:	52800127 	mov	w7, #0x9                   	// #9
   80b28:	aa0003e6 	mov	x6, x0
   80b2c:	528001c5 	mov	w5, #0xe                   	// #14
   80b30:	52800024 	mov	w4, #0x1                   	// #1
   80b34:	52800003 	mov	w3, #0x0                   	// #0
   80b38:	52800002 	mov	w2, #0x0                   	// #0
   80b3c:	52800001 	mov	w1, #0x0                   	// #0
   80b40:	aa0903e0 	mov	x0, x9
   80b44:	d63f0100 	blr	x8
   80b48:	7940bfe0 	ldrh	w0, [sp, #94]
   80b4c:	7900dbe0 	strh	w0, [sp, #108]
   80b50:	1400000c 	b	80b80 <EcoMain+0x380>
   80b54:	f94013e0 	ldr	x0, [sp, #32]
   80b58:	f9400000 	ldr	x0, [x0]
   80b5c:	f9403004 	ldr	x4, [x0, #96]
   80b60:	f94013e0 	ldr	x0, [sp, #32]
   80b64:	7940bbe3 	ldrh	w3, [sp, #92]
   80b68:	7940dbe2 	ldrh	w2, [sp, #108]
   80b6c:	394167e1 	ldrb	w1, [sp, #89]
   80b70:	d63f0080 	blr	x4
   80b74:	7940dbe0 	ldrh	w0, [sp, #108]
   80b78:	11000400 	add	w0, w0, #0x1
   80b7c:	7900dbe0 	strh	w0, [sp, #108]
   80b80:	7940dbe1 	ldrh	w1, [sp, #108]
   80b84:	7940b7e0 	ldrh	w0, [sp, #90]
   80b88:	6b00003f 	cmp	w1, w0
   80b8c:	54fffe49 	b.ls	80b54 <EcoMain+0x354>  // b.plast
   80b90:	f9401be0 	ldr	x0, [sp, #48]
   80b94:	f9400000 	ldr	x0, [x0]
   80b98:	f9400003 	ldr	x3, [x0]
   80b9c:	f9401be4 	ldr	x4, [sp, #48]
   80ba0:	9100e3e1 	add	x1, sp, #0x38
   80ba4:	d0000460 	adrp	x0, 10e000 <ECO_CGI_1_PIXEL_VALIDITY_FLAG_e>
   80ba8:	91022000 	add	x0, x0, #0x88
   80bac:	aa0103e2 	mov	x2, x1
   80bb0:	aa0003e1 	mov	x1, x0
   80bb4:	aa0403e0 	mov	x0, x4
   80bb8:	d63f0060 	blr	x3
   80bbc:	7900dfe0 	strh	w0, [sp, #110]
   80bc0:	79c0dfe0 	ldrsh	w0, [sp, #110]
   80bc4:	7100001f 	cmp	w0, #0x0
   80bc8:	54001301 	b.ne	80e28 <EcoMain+0x628>  // b.any
   80bcc:	f9401fe0 	ldr	x0, [sp, #56]
   80bd0:	f100001f 	cmp	x0, #0x0
   80bd4:	540012a0 	b.eq	80e28 <EcoMain+0x628>  // b.none
   80bd8:	f9401fe0 	ldr	x0, [sp, #56]
   80bdc:	f9400000 	ldr	x0, [x0]
   80be0:	f9400c02 	ldr	x2, [x0, #24]
   80be4:	f9401fe0 	ldr	x0, [sp, #56]
   80be8:	52800c81 	mov	w1, #0x64                  	// #100
   80bec:	d63f0040 	blr	x2
   80bf0:	f9002be0 	str	x0, [sp, #80]
   80bf4:	f9402be0 	ldr	x0, [sp, #80]
   80bf8:	f100001f 	cmp	x0, #0x0
   80bfc:	54000200 	b.eq	80c3c <EcoMain+0x43c>  // b.none
   80c00:	f94013e0 	ldr	x0, [sp, #32]
   80c04:	f9400000 	ldr	x0, [x0]
   80c08:	f9403c08 	ldr	x8, [x0, #120]
   80c0c:	f94013e9 	ldr	x9, [sp, #32]
   80c10:	d0000460 	adrp	x0, 10e000 <ECO_CGI_1_PIXEL_VALIDITY_FLAG_e>
   80c14:	9109e000 	add	x0, x0, #0x278
   80c18:	52800207 	mov	w7, #0x10                  	// #16
   80c1c:	aa0003e6 	mov	x6, x0
   80c20:	52800045 	mov	w5, #0x2                   	// #2
   80c24:	52800084 	mov	w4, #0x4                   	// #4
   80c28:	52800003 	mov	w3, #0x0                   	// #0
   80c2c:	52800002 	mov	w2, #0x0                   	// #0
   80c30:	52800001 	mov	w1, #0x0                   	// #0
   80c34:	aa0903e0 	mov	x0, x9
   80c38:	d63f0100 	blr	x8
   80c3c:	f9401fe0 	ldr	x0, [sp, #56]
   80c40:	f9400000 	ldr	x0, [x0]
   80c44:	f9400c02 	ldr	x2, [x0, #24]
   80c48:	f9401fe0 	ldr	x0, [sp, #56]
   80c4c:	52800c81 	mov	w1, #0x64                  	// #100
   80c50:	d63f0040 	blr	x2
   80c54:	f90027e0 	str	x0, [sp, #72]
   80c58:	f94027e0 	ldr	x0, [sp, #72]
   80c5c:	f100001f 	cmp	x0, #0x0
   80c60:	54000200 	b.eq	80ca0 <EcoMain+0x4a0>  // b.none
   80c64:	f94013e0 	ldr	x0, [sp, #32]
   80c68:	f9400000 	ldr	x0, [x0]
   80c6c:	f9403c08 	ldr	x8, [x0, #120]
   80c70:	f94013e9 	ldr	x9, [sp, #32]
   80c74:	d0000460 	adrp	x0, 10e000 <ECO_CGI_1_PIXEL_VALIDITY_FLAG_e>
   80c78:	910a4000 	add	x0, x0, #0x290
   80c7c:	52800227 	mov	w7, #0x11                  	// #17
   80c80:	aa0003e6 	mov	x6, x0
   80c84:	52800045 	mov	w5, #0x2                   	// #2
   80c88:	528000a4 	mov	w4, #0x5                   	// #5
   80c8c:	52800003 	mov	w3, #0x0                   	// #0
   80c90:	52800002 	mov	w2, #0x0                   	// #0
   80c94:	52800001 	mov	w1, #0x0                   	// #0
   80c98:	aa0903e0 	mov	x0, x9
   80c9c:	d63f0100 	blr	x8
   80ca0:	f9402be0 	ldr	x0, [sp, #80]
   80ca4:	f100001f 	cmp	x0, #0x0
   80ca8:	540002c0 	b.eq	80d00 <EcoMain+0x500>  // b.none
   80cac:	f9401fe0 	ldr	x0, [sp, #56]
   80cb0:	f9400000 	ldr	x0, [x0]
   80cb4:	f9401002 	ldr	x2, [x0, #32]
   80cb8:	f9401fe0 	ldr	x0, [sp, #56]
   80cbc:	f9402be1 	ldr	x1, [sp, #80]
   80cc0:	d63f0040 	blr	x2
   80cc4:	f94013e0 	ldr	x0, [sp, #32]
   80cc8:	f9400000 	ldr	x0, [x0]
   80ccc:	f9403c08 	ldr	x8, [x0, #120]
   80cd0:	f94013e9 	ldr	x9, [sp, #32]
   80cd4:	d0000460 	adrp	x0, 10e000 <ECO_CGI_1_PIXEL_VALIDITY_FLAG_e>
   80cd8:	910aa000 	add	x0, x0, #0x2a8
   80cdc:	52800187 	mov	w7, #0xc                   	// #12
   80ce0:	aa0003e6 	mov	x6, x0
   80ce4:	52800045 	mov	w5, #0x2                   	// #2
   80ce8:	528000c4 	mov	w4, #0x6                   	// #6
   80cec:	52800003 	mov	w3, #0x0                   	// #0
   80cf0:	52800002 	mov	w2, #0x0                   	// #0
   80cf4:	52800001 	mov	w1, #0x0                   	// #0
   80cf8:	aa0903e0 	mov	x0, x9
   80cfc:	d63f0100 	blr	x8
   80d00:	f9401fe0 	ldr	x0, [sp, #56]
   80d04:	f9400000 	ldr	x0, [x0]
   80d08:	f9400c02 	ldr	x2, [x0, #24]
   80d0c:	f9401fe0 	ldr	x0, [sp, #56]
   80d10:	52800c81 	mov	w1, #0x64                  	// #100
   80d14:	d63f0040 	blr	x2
   80d18:	f9002be0 	str	x0, [sp, #80]
   80d1c:	f9402be0 	ldr	x0, [sp, #80]
   80d20:	f100001f 	cmp	x0, #0x0
   80d24:	54000200 	b.eq	80d64 <EcoMain+0x564>  // b.none
   80d28:	f94013e0 	ldr	x0, [sp, #32]
   80d2c:	f9400000 	ldr	x0, [x0]
   80d30:	f9403c08 	ldr	x8, [x0, #120]
   80d34:	f94013e9 	ldr	x9, [sp, #32]
   80d38:	d0000460 	adrp	x0, 10e000 <ECO_CGI_1_PIXEL_VALIDITY_FLAG_e>
   80d3c:	910ae000 	add	x0, x0, #0x2b8
   80d40:	52800207 	mov	w7, #0x10                  	// #16
   80d44:	aa0003e6 	mov	x6, x0
   80d48:	52800045 	mov	w5, #0x2                   	// #2
   80d4c:	528000e4 	mov	w4, #0x7                   	// #7
   80d50:	52800003 	mov	w3, #0x0                   	// #0
   80d54:	52800002 	mov	w2, #0x0                   	// #0
   80d58:	52800001 	mov	w1, #0x0                   	// #0
   80d5c:	aa0903e0 	mov	x0, x9
   80d60:	d63f0100 	blr	x8
   80d64:	f9402be1 	ldr	x1, [sp, #80]
   80d68:	f94027e0 	ldr	x0, [sp, #72]
   80d6c:	eb00003f 	cmp	x1, x0
   80d70:	54000229 	b.ls	80db4 <EcoMain+0x5b4>  // b.plast
   80d74:	f94013e0 	ldr	x0, [sp, #32]
   80d78:	f9400000 	ldr	x0, [x0]
   80d7c:	f9403c08 	ldr	x8, [x0, #120]
   80d80:	f94013e9 	ldr	x9, [sp, #32]
   80d84:	d0000460 	adrp	x0, 10e000 <ECO_CGI_1_PIXEL_VALIDITY_FLAG_e>
   80d88:	910b4000 	add	x0, x0, #0x2d0
   80d8c:	52800327 	mov	w7, #0x19                  	// #25
   80d90:	aa0003e6 	mov	x6, x0
   80d94:	52800045 	mov	w5, #0x2                   	// #2
   80d98:	52800104 	mov	w4, #0x8                   	// #8
   80d9c:	52800003 	mov	w3, #0x0                   	// #0
   80da0:	52800002 	mov	w2, #0x0                   	// #0
   80da4:	52800001 	mov	w1, #0x0                   	// #0
   80da8:	aa0903e0 	mov	x0, x9
   80dac:	d63f0100 	blr	x8
   80db0:	14000010 	b	80df0 <EcoMain+0x5f0>
   80db4:	f94013e0 	ldr	x0, [sp, #32]
   80db8:	f9400000 	ldr	x0, [x0]
   80dbc:	f9403c08 	ldr	x8, [x0, #120]
   80dc0:	f94013e9 	ldr	x9, [sp, #32]
   80dc4:	d0000460 	adrp	x0, 10e000 <ECO_CGI_1_PIXEL_VALIDITY_FLAG_e>
   80dc8:	910bc000 	add	x0, x0, #0x2f0
   80dcc:	528002e7 	mov	w7, #0x17                  	// #23
   80dd0:	aa0003e6 	mov	x6, x0
   80dd4:	52800045 	mov	w5, #0x2                   	// #2
   80dd8:	52800104 	mov	w4, #0x8                   	// #8
   80ddc:	52800003 	mov	w3, #0x0                   	// #0
   80de0:	52800002 	mov	w2, #0x0                   	// #0
   80de4:	52800001 	mov	w1, #0x0                   	// #0
   80de8:	aa0903e0 	mov	x0, x9
   80dec:	d63f0100 	blr	x8
   80df0:	f94013e1 	ldr	x1, [sp, #32]
   80df4:	90000080 	adrp	x0, 90000 <impure_data+0x270>
   80df8:	91138000 	add	x0, x0, #0x4e0
   80dfc:	f9000001 	str	x1, [x0]
   80e00:	d503201f 	nop
   80e04:	17ffffff 	b	80e00 <EcoMain+0x600>
   80e08:	d503201f 	nop
   80e0c:	14000008 	b	80e2c <EcoMain+0x62c>
   80e10:	d503201f 	nop
   80e14:	14000006 	b	80e2c <EcoMain+0x62c>
   80e18:	d503201f 	nop
   80e1c:	14000004 	b	80e2c <EcoMain+0x62c>
   80e20:	d503201f 	nop
   80e24:	14000002 	b	80e2c <EcoMain+0x62c>
   80e28:	d503201f 	nop
   80e2c:	f94023e0 	ldr	x0, [sp, #64]
   80e30:	f100001f 	cmp	x0, #0x0
   80e34:	540000c0 	b.eq	80e4c <EcoMain+0x64c>  // b.none
   80e38:	f94023e0 	ldr	x0, [sp, #64]
   80e3c:	f9400000 	ldr	x0, [x0]
   80e40:	f9400801 	ldr	x1, [x0, #16]
   80e44:	f94023e0 	ldr	x0, [sp, #64]
   80e48:	d63f0020 	blr	x1
   80e4c:	f9401fe0 	ldr	x0, [sp, #56]
   80e50:	f100001f 	cmp	x0, #0x0
   80e54:	540000c0 	b.eq	80e6c <EcoMain+0x66c>  // b.none
   80e58:	f9401fe0 	ldr	x0, [sp, #56]
   80e5c:	f9400000 	ldr	x0, [x0]
   80e60:	f9400801 	ldr	x1, [x0, #16]
   80e64:	f9401fe0 	ldr	x0, [sp, #56]
   80e68:	d63f0020 	blr	x1
   80e6c:	f94013e0 	ldr	x0, [sp, #32]
   80e70:	f100001f 	cmp	x0, #0x0
   80e74:	540000c0 	b.eq	80e8c <EcoMain+0x68c>  // b.none
   80e78:	f94013e0 	ldr	x0, [sp, #32]
   80e7c:	f9400000 	ldr	x0, [x0]
   80e80:	f9400801 	ldr	x1, [x0, #16]
   80e84:	f94013e0 	ldr	x0, [sp, #32]
   80e88:	d63f0020 	blr	x1
   80e8c:	f94033e0 	ldr	x0, [sp, #96]
   80e90:	f100001f 	cmp	x0, #0x0
   80e94:	540000c0 	b.eq	80eac <EcoMain+0x6ac>  // b.none
   80e98:	f94033e0 	ldr	x0, [sp, #96]
   80e9c:	f9400000 	ldr	x0, [x0]
   80ea0:	f9400801 	ldr	x1, [x0, #16]
   80ea4:	f94033e0 	ldr	x0, [sp, #96]
   80ea8:	d63f0020 	blr	x1
   80eac:	79c0dfe0 	ldrsh	w0, [sp, #110]
   80eb0:	f84707fe 	ldr	x30, [sp], #112
   80eb4:	d65f03c0 	ret

0000000000080eb8 <CoreExecute>:
   80eb8:	f2401c00 	ands	x0, x0, #0xff
   80ebc:	540001a0 	b.eq	80ef0 <CoreExecuteFail>  // b.none
   80ec0:	580001c3 	ldr	x3, 80ef8 <CoreExecuteFail+0x8>
   80ec4:	b9400062 	ldr	w2, [x3]
   80ec8:	6b02001f 	cmp	w0, w2
   80ecc:	54000122 	b.cs	80ef0 <CoreExecuteFail>  // b.hs, b.nlast
   80ed0:	d2800006 	mov	x6, #0x0                   	// #0
   80ed4:	2a0003e6 	mov	w6, w0
   80ed8:	d2801b05 	mov	x5, #0xd8                  	// #216
   80edc:	f82678a1 	str	x1, [x5, x6, lsl #3]
   80ee0:	d5033f9f 	dsb	sy
   80ee4:	d503209f 	sev
   80ee8:	d2800020 	mov	x0, #0x1                   	// #1
   80eec:	d65f03c0 	ret

0000000000080ef0 <CoreExecuteFail>:
   80ef0:	d2800000 	mov	x0, #0x0                   	// #0
   80ef4:	d65f03c0 	ret
   80ef8:	0008ec1c 	.word	0x0008ec1c
   80efc:	00000000 	.word	0x00000000

0000000000080f00 <PUT32>:
   80f00:	b9000001 	str	w1, [x0]
   80f04:	d65f03c0 	ret

0000000000080f08 <GET32>:
   80f08:	b9400000 	ldr	w0, [x0]
   80f0c:	d65f03c0 	ret

0000000000080f10 <ARMaddrToGPUaddr>:
   80f10:	d2b80001 	mov	x1, #0xc0000000            	// #3221225472
   80f14:	aa010000 	orr	x0, x0, x1
   80f18:	d65f03c0 	ret

0000000000080f1c <GPUaddrToARMaddr>:
   80f1c:	d2b80001 	mov	x1, #0xc0000000            	// #3221225472
   80f20:	8a210000 	bic	x0, x0, x1
   80f24:	d65f03c0 	ret
	...

0000000000081000 <setTimerIrqAddress>:
   81000:	d50342df 	msr	daifset, #0x2
   81004:	580000a1 	ldr	x1, 81018 <setTimerIrqAddress+0x18>
   81008:	f9400022 	ldr	x2, [x1]
   8100c:	f9000020 	str	x0, [x1]
   81010:	aa0203e0 	mov	x0, x2
   81014:	d65f03c0 	ret
   81018:	0008ec30 	.word	0x0008ec30
   8101c:	00000000 	.word	0x00000000

0000000000081020 <irq_handler_stub>:
   81020:	a9bf7bfd 	stp	x29, x30, [sp, #-16]!
   81024:	a9bf73fb 	stp	x27, x28, [sp, #-16]!
   81028:	a9bf6bf9 	stp	x25, x26, [sp, #-16]!
   8102c:	a9bf63f7 	stp	x23, x24, [sp, #-16]!
   81030:	a9bf5bf5 	stp	x21, x22, [sp, #-16]!
   81034:	a9bf53f3 	stp	x19, x20, [sp, #-16]!
   81038:	a9bf4bf1 	stp	x17, x18, [sp, #-16]!
   8103c:	a9bf43ef 	stp	x15, x16, [sp, #-16]!
   81040:	a9bf3bed 	stp	x13, x14, [sp, #-16]!
   81044:	a9bf33eb 	stp	x11, x12, [sp, #-16]!
   81048:	a9bf2be9 	stp	x9, x10, [sp, #-16]!
   8104c:	a9bf23e7 	stp	x7, x8, [sp, #-16]!
   81050:	a9bf1be5 	stp	x5, x6, [sp, #-16]!
   81054:	a9bf13e3 	stp	x3, x4, [sp, #-16]!
   81058:	a9bf0be1 	stp	x1, x2, [sp, #-16]!
   8105c:	f81f0fe0 	str	x0, [sp, #-16]!
   81060:	58007940 	ldr	x0, 81f88 <VectorTable+0x788>
   81064:	f9400000 	ldr	x0, [x0]
   81068:	b4000040 	cbz	x0, 81070 <no_irqset>
   8106c:	d63f0000 	blr	x0

0000000000081070 <no_irqset>:
   81070:	f84107e0 	ldr	x0, [sp], #16
   81074:	a8c10be1 	ldp	x1, x2, [sp], #16
   81078:	a8c113e3 	ldp	x3, x4, [sp], #16
   8107c:	a8c11be5 	ldp	x5, x6, [sp], #16
   81080:	a8c123e7 	ldp	x7, x8, [sp], #16
   81084:	a8c12be9 	ldp	x9, x10, [sp], #16
   81088:	a8c133eb 	ldp	x11, x12, [sp], #16
   8108c:	a8c13bed 	ldp	x13, x14, [sp], #16
   81090:	a8c143ef 	ldp	x15, x16, [sp], #16
   81094:	a8c14bf1 	ldp	x17, x18, [sp], #16
   81098:	a8c153f3 	ldp	x19, x20, [sp], #16
   8109c:	a8c15bf5 	ldp	x21, x22, [sp], #16
   810a0:	a8c163f7 	ldp	x23, x24, [sp], #16
   810a4:	a8c16bf9 	ldp	x25, x26, [sp], #16
   810a8:	a8c173fb 	ldp	x27, x28, [sp], #16
   810ac:	a8c17bfd 	ldp	x29, x30, [sp], #16
   810b0:	d69f03e0 	eret
   810b4:	d503201f 	nop
   810b8:	d503201f 	nop
   810bc:	d503201f 	nop
   810c0:	d503201f 	nop
   810c4:	d503201f 	nop
   810c8:	d503201f 	nop
   810cc:	d503201f 	nop
   810d0:	d503201f 	nop
   810d4:	d503201f 	nop
   810d8:	d503201f 	nop
   810dc:	d503201f 	nop
   810e0:	d503201f 	nop
   810e4:	d503201f 	nop
   810e8:	d503201f 	nop
   810ec:	d503201f 	nop
   810f0:	d503201f 	nop
   810f4:	d503201f 	nop
   810f8:	d503201f 	nop
   810fc:	d503201f 	nop
   81100:	d503201f 	nop
   81104:	d503201f 	nop
   81108:	d503201f 	nop
   8110c:	d503201f 	nop
   81110:	d503201f 	nop
   81114:	d503201f 	nop
   81118:	d503201f 	nop
   8111c:	d503201f 	nop
   81120:	d503201f 	nop
   81124:	d503201f 	nop
   81128:	d503201f 	nop
   8112c:	d503201f 	nop
   81130:	d503201f 	nop
   81134:	d503201f 	nop
   81138:	d503201f 	nop
   8113c:	d503201f 	nop
   81140:	d503201f 	nop
   81144:	d503201f 	nop
   81148:	d503201f 	nop
   8114c:	d503201f 	nop
   81150:	d503201f 	nop
   81154:	d503201f 	nop
   81158:	d503201f 	nop
   8115c:	d503201f 	nop
   81160:	d503201f 	nop
   81164:	d503201f 	nop
   81168:	d503201f 	nop
   8116c:	d503201f 	nop
   81170:	d503201f 	nop
   81174:	d503201f 	nop
   81178:	d503201f 	nop
   8117c:	d503201f 	nop
   81180:	d503201f 	nop
   81184:	d503201f 	nop
   81188:	d503201f 	nop
   8118c:	d503201f 	nop
   81190:	d503201f 	nop
   81194:	d503201f 	nop
   81198:	d503201f 	nop
   8119c:	d503201f 	nop
   811a0:	d503201f 	nop
   811a4:	d503201f 	nop
   811a8:	d503201f 	nop
   811ac:	d503201f 	nop
   811b0:	d503201f 	nop
   811b4:	d503201f 	nop
   811b8:	d503201f 	nop
   811bc:	d503201f 	nop
   811c0:	d503201f 	nop
   811c4:	d503201f 	nop
   811c8:	d503201f 	nop
   811cc:	d503201f 	nop
   811d0:	d503201f 	nop
   811d4:	d503201f 	nop
   811d8:	d503201f 	nop
   811dc:	d503201f 	nop
   811e0:	d503201f 	nop
   811e4:	d503201f 	nop
   811e8:	d503201f 	nop
   811ec:	d503201f 	nop
   811f0:	d503201f 	nop
   811f4:	d503201f 	nop
   811f8:	d503201f 	nop
   811fc:	d503201f 	nop
   81200:	d503201f 	nop
   81204:	d503201f 	nop
   81208:	d503201f 	nop
   8120c:	d503201f 	nop
   81210:	d503201f 	nop
   81214:	d503201f 	nop
   81218:	d503201f 	nop
   8121c:	d503201f 	nop
   81220:	d503201f 	nop
   81224:	d503201f 	nop
   81228:	d503201f 	nop
   8122c:	d503201f 	nop
   81230:	d503201f 	nop
   81234:	d503201f 	nop
   81238:	d503201f 	nop
   8123c:	d503201f 	nop
   81240:	d503201f 	nop
   81244:	d503201f 	nop
   81248:	d503201f 	nop
   8124c:	d503201f 	nop
   81250:	d503201f 	nop
   81254:	d503201f 	nop
   81258:	d503201f 	nop
   8125c:	d503201f 	nop
   81260:	d503201f 	nop
   81264:	d503201f 	nop
   81268:	d503201f 	nop
   8126c:	d503201f 	nop
   81270:	d503201f 	nop
   81274:	d503201f 	nop
   81278:	d503201f 	nop
   8127c:	d503201f 	nop
   81280:	d503201f 	nop
   81284:	d503201f 	nop
   81288:	d503201f 	nop
   8128c:	d503201f 	nop
   81290:	d503201f 	nop
   81294:	d503201f 	nop
   81298:	d503201f 	nop
   8129c:	d503201f 	nop
   812a0:	d503201f 	nop
   812a4:	d503201f 	nop
   812a8:	d503201f 	nop
   812ac:	d503201f 	nop
   812b0:	d503201f 	nop
   812b4:	d503201f 	nop
   812b8:	d503201f 	nop
   812bc:	d503201f 	nop
   812c0:	d503201f 	nop
   812c4:	d503201f 	nop
   812c8:	d503201f 	nop
   812cc:	d503201f 	nop
   812d0:	d503201f 	nop
   812d4:	d503201f 	nop
   812d8:	d503201f 	nop
   812dc:	d503201f 	nop
   812e0:	d503201f 	nop
   812e4:	d503201f 	nop
   812e8:	d503201f 	nop
   812ec:	d503201f 	nop
   812f0:	d503201f 	nop
   812f4:	d503201f 	nop
   812f8:	d503201f 	nop
   812fc:	d503201f 	nop
   81300:	d503201f 	nop
   81304:	d503201f 	nop
   81308:	d503201f 	nop
   8130c:	d503201f 	nop
   81310:	d503201f 	nop
   81314:	d503201f 	nop
   81318:	d503201f 	nop
   8131c:	d503201f 	nop
   81320:	d503201f 	nop
   81324:	d503201f 	nop
   81328:	d503201f 	nop
   8132c:	d503201f 	nop
   81330:	d503201f 	nop
   81334:	d503201f 	nop
   81338:	d503201f 	nop
   8133c:	d503201f 	nop
   81340:	d503201f 	nop
   81344:	d503201f 	nop
   81348:	d503201f 	nop
   8134c:	d503201f 	nop
   81350:	d503201f 	nop
   81354:	d503201f 	nop
   81358:	d503201f 	nop
   8135c:	d503201f 	nop
   81360:	d503201f 	nop
   81364:	d503201f 	nop
   81368:	d503201f 	nop
   8136c:	d503201f 	nop
   81370:	d503201f 	nop
   81374:	d503201f 	nop
   81378:	d503201f 	nop
   8137c:	d503201f 	nop
   81380:	d503201f 	nop
   81384:	d503201f 	nop
   81388:	d503201f 	nop
   8138c:	d503201f 	nop
   81390:	d503201f 	nop
   81394:	d503201f 	nop
   81398:	d503201f 	nop
   8139c:	d503201f 	nop
   813a0:	d503201f 	nop
   813a4:	d503201f 	nop
   813a8:	d503201f 	nop
   813ac:	d503201f 	nop
   813b0:	d503201f 	nop
   813b4:	d503201f 	nop
   813b8:	d503201f 	nop
   813bc:	d503201f 	nop
   813c0:	d503201f 	nop
   813c4:	d503201f 	nop
   813c8:	d503201f 	nop
   813cc:	d503201f 	nop
   813d0:	d503201f 	nop
   813d4:	d503201f 	nop
   813d8:	d503201f 	nop
   813dc:	d503201f 	nop
   813e0:	d503201f 	nop
   813e4:	d503201f 	nop
   813e8:	d503201f 	nop
   813ec:	d503201f 	nop
   813f0:	d503201f 	nop
   813f4:	d503201f 	nop
   813f8:	d503201f 	nop
   813fc:	d503201f 	nop
   81400:	d503201f 	nop
   81404:	d503201f 	nop
   81408:	d503201f 	nop
   8140c:	d503201f 	nop
   81410:	d503201f 	nop
   81414:	d503201f 	nop
   81418:	d503201f 	nop
   8141c:	d503201f 	nop
   81420:	d503201f 	nop
   81424:	d503201f 	nop
   81428:	d503201f 	nop
   8142c:	d503201f 	nop
   81430:	d503201f 	nop
   81434:	d503201f 	nop
   81438:	d503201f 	nop
   8143c:	d503201f 	nop
   81440:	d503201f 	nop
   81444:	d503201f 	nop
   81448:	d503201f 	nop
   8144c:	d503201f 	nop
   81450:	d503201f 	nop
   81454:	d503201f 	nop
   81458:	d503201f 	nop
   8145c:	d503201f 	nop
   81460:	d503201f 	nop
   81464:	d503201f 	nop
   81468:	d503201f 	nop
   8146c:	d503201f 	nop
   81470:	d503201f 	nop
   81474:	d503201f 	nop
   81478:	d503201f 	nop
   8147c:	d503201f 	nop
   81480:	d503201f 	nop
   81484:	d503201f 	nop
   81488:	d503201f 	nop
   8148c:	d503201f 	nop
   81490:	d503201f 	nop
   81494:	d503201f 	nop
   81498:	d503201f 	nop
   8149c:	d503201f 	nop
   814a0:	d503201f 	nop
   814a4:	d503201f 	nop
   814a8:	d503201f 	nop
   814ac:	d503201f 	nop
   814b0:	d503201f 	nop
   814b4:	d503201f 	nop
   814b8:	d503201f 	nop
   814bc:	d503201f 	nop
   814c0:	d503201f 	nop
   814c4:	d503201f 	nop
   814c8:	d503201f 	nop
   814cc:	d503201f 	nop
   814d0:	d503201f 	nop
   814d4:	d503201f 	nop
   814d8:	d503201f 	nop
   814dc:	d503201f 	nop
   814e0:	d503201f 	nop
   814e4:	d503201f 	nop
   814e8:	d503201f 	nop
   814ec:	d503201f 	nop
   814f0:	d503201f 	nop
   814f4:	d503201f 	nop
   814f8:	d503201f 	nop
   814fc:	d503201f 	nop
   81500:	d503201f 	nop
   81504:	d503201f 	nop
   81508:	d503201f 	nop
   8150c:	d503201f 	nop
   81510:	d503201f 	nop
   81514:	d503201f 	nop
   81518:	d503201f 	nop
   8151c:	d503201f 	nop
   81520:	d503201f 	nop
   81524:	d503201f 	nop
   81528:	d503201f 	nop
   8152c:	d503201f 	nop
   81530:	d503201f 	nop
   81534:	d503201f 	nop
   81538:	d503201f 	nop
   8153c:	d503201f 	nop
   81540:	d503201f 	nop
   81544:	d503201f 	nop
   81548:	d503201f 	nop
   8154c:	d503201f 	nop
   81550:	d503201f 	nop
   81554:	d503201f 	nop
   81558:	d503201f 	nop
   8155c:	d503201f 	nop
   81560:	d503201f 	nop
   81564:	d503201f 	nop
   81568:	d503201f 	nop
   8156c:	d503201f 	nop
   81570:	d503201f 	nop
   81574:	d503201f 	nop
   81578:	d503201f 	nop
   8157c:	d503201f 	nop
   81580:	d503201f 	nop
   81584:	d503201f 	nop
   81588:	d503201f 	nop
   8158c:	d503201f 	nop
   81590:	d503201f 	nop
   81594:	d503201f 	nop
   81598:	d503201f 	nop
   8159c:	d503201f 	nop
   815a0:	d503201f 	nop
   815a4:	d503201f 	nop
   815a8:	d503201f 	nop
   815ac:	d503201f 	nop
   815b0:	d503201f 	nop
   815b4:	d503201f 	nop
   815b8:	d503201f 	nop
   815bc:	d503201f 	nop
   815c0:	d503201f 	nop
   815c4:	d503201f 	nop
   815c8:	d503201f 	nop
   815cc:	d503201f 	nop
   815d0:	d503201f 	nop
   815d4:	d503201f 	nop
   815d8:	d503201f 	nop
   815dc:	d503201f 	nop
   815e0:	d503201f 	nop
   815e4:	d503201f 	nop
   815e8:	d503201f 	nop
   815ec:	d503201f 	nop
   815f0:	d503201f 	nop
   815f4:	d503201f 	nop
   815f8:	d503201f 	nop
   815fc:	d503201f 	nop
   81600:	d503201f 	nop
   81604:	d503201f 	nop
   81608:	d503201f 	nop
   8160c:	d503201f 	nop
   81610:	d503201f 	nop
   81614:	d503201f 	nop
   81618:	d503201f 	nop
   8161c:	d503201f 	nop
   81620:	d503201f 	nop
   81624:	d503201f 	nop
   81628:	d503201f 	nop
   8162c:	d503201f 	nop
   81630:	d503201f 	nop
   81634:	d503201f 	nop
   81638:	d503201f 	nop
   8163c:	d503201f 	nop
   81640:	d503201f 	nop
   81644:	d503201f 	nop
   81648:	d503201f 	nop
   8164c:	d503201f 	nop
   81650:	d503201f 	nop
   81654:	d503201f 	nop
   81658:	d503201f 	nop
   8165c:	d503201f 	nop
   81660:	d503201f 	nop
   81664:	d503201f 	nop
   81668:	d503201f 	nop
   8166c:	d503201f 	nop
   81670:	d503201f 	nop
   81674:	d503201f 	nop
   81678:	d503201f 	nop
   8167c:	d503201f 	nop
   81680:	d503201f 	nop
   81684:	d503201f 	nop
   81688:	d503201f 	nop
   8168c:	d503201f 	nop
   81690:	d503201f 	nop
   81694:	d503201f 	nop
   81698:	d503201f 	nop
   8169c:	d503201f 	nop
   816a0:	d503201f 	nop
   816a4:	d503201f 	nop
   816a8:	d503201f 	nop
   816ac:	d503201f 	nop
   816b0:	d503201f 	nop
   816b4:	d503201f 	nop
   816b8:	d503201f 	nop
   816bc:	d503201f 	nop
   816c0:	d503201f 	nop
   816c4:	d503201f 	nop
   816c8:	d503201f 	nop
   816cc:	d503201f 	nop
   816d0:	d503201f 	nop
   816d4:	d503201f 	nop
   816d8:	d503201f 	nop
   816dc:	d503201f 	nop
   816e0:	d503201f 	nop
   816e4:	d503201f 	nop
   816e8:	d503201f 	nop
   816ec:	d503201f 	nop
   816f0:	d503201f 	nop
   816f4:	d503201f 	nop
   816f8:	d503201f 	nop
   816fc:	d503201f 	nop
   81700:	d503201f 	nop
   81704:	d503201f 	nop
   81708:	d503201f 	nop
   8170c:	d503201f 	nop
   81710:	d503201f 	nop
   81714:	d503201f 	nop
   81718:	d503201f 	nop
   8171c:	d503201f 	nop
   81720:	d503201f 	nop
   81724:	d503201f 	nop
   81728:	d503201f 	nop
   8172c:	d503201f 	nop
   81730:	d503201f 	nop
   81734:	d503201f 	nop
   81738:	d503201f 	nop
   8173c:	d503201f 	nop
   81740:	d503201f 	nop
   81744:	d503201f 	nop
   81748:	d503201f 	nop
   8174c:	d503201f 	nop
   81750:	d503201f 	nop
   81754:	d503201f 	nop
   81758:	d503201f 	nop
   8175c:	d503201f 	nop
   81760:	d503201f 	nop
   81764:	d503201f 	nop
   81768:	d503201f 	nop
   8176c:	d503201f 	nop
   81770:	d503201f 	nop
   81774:	d503201f 	nop
   81778:	d503201f 	nop
   8177c:	d503201f 	nop
   81780:	d503201f 	nop
   81784:	d503201f 	nop
   81788:	d503201f 	nop
   8178c:	d503201f 	nop
   81790:	d503201f 	nop
   81794:	d503201f 	nop
   81798:	d503201f 	nop
   8179c:	d503201f 	nop
   817a0:	d503201f 	nop
   817a4:	d503201f 	nop
   817a8:	d503201f 	nop
   817ac:	d503201f 	nop
   817b0:	d503201f 	nop
   817b4:	d503201f 	nop
   817b8:	d503201f 	nop
   817bc:	d503201f 	nop
   817c0:	d503201f 	nop
   817c4:	d503201f 	nop
   817c8:	d503201f 	nop
   817cc:	d503201f 	nop
   817d0:	d503201f 	nop
   817d4:	d503201f 	nop
   817d8:	d503201f 	nop
   817dc:	d503201f 	nop
   817e0:	d503201f 	nop
   817e4:	d503201f 	nop
   817e8:	d503201f 	nop
   817ec:	d503201f 	nop
   817f0:	d503201f 	nop
   817f4:	d503201f 	nop
   817f8:	d503201f 	nop
   817fc:	d503201f 	nop

0000000000081800 <VectorTable>:
   81800:	17fffa00 	b	80000 <_start>
   81804:	d503201f 	nop
   81808:	d503201f 	nop
   8180c:	d503201f 	nop
   81810:	d503201f 	nop
   81814:	d503201f 	nop
   81818:	d503201f 	nop
   8181c:	d503201f 	nop
   81820:	d503201f 	nop
   81824:	d503201f 	nop
   81828:	d503201f 	nop
   8182c:	d503201f 	nop
   81830:	d503201f 	nop
   81834:	d503201f 	nop
   81838:	d503201f 	nop
   8183c:	d503201f 	nop
   81840:	d503201f 	nop
   81844:	d503201f 	nop
   81848:	d503201f 	nop
   8184c:	d503201f 	nop
   81850:	d503201f 	nop
   81854:	d503201f 	nop
   81858:	d503201f 	nop
   8185c:	d503201f 	nop
   81860:	d503201f 	nop
   81864:	d503201f 	nop
   81868:	d503201f 	nop
   8186c:	d503201f 	nop
   81870:	d503201f 	nop
   81874:	d503201f 	nop
   81878:	d503201f 	nop
   8187c:	d503201f 	nop
   81880:	17fffa4e 	b	801b8 <hang>
   81884:	d503201f 	nop
   81888:	d503201f 	nop
   8188c:	d503201f 	nop
   81890:	d503201f 	nop
   81894:	d503201f 	nop
   81898:	d503201f 	nop
   8189c:	d503201f 	nop
   818a0:	d503201f 	nop
   818a4:	d503201f 	nop
   818a8:	d503201f 	nop
   818ac:	d503201f 	nop
   818b0:	d503201f 	nop
   818b4:	d503201f 	nop
   818b8:	d503201f 	nop
   818bc:	d503201f 	nop
   818c0:	d503201f 	nop
   818c4:	d503201f 	nop
   818c8:	d503201f 	nop
   818cc:	d503201f 	nop
   818d0:	d503201f 	nop
   818d4:	d503201f 	nop
   818d8:	d503201f 	nop
   818dc:	d503201f 	nop
   818e0:	d503201f 	nop
   818e4:	d503201f 	nop
   818e8:	d503201f 	nop
   818ec:	d503201f 	nop
   818f0:	d503201f 	nop
   818f4:	d503201f 	nop
   818f8:	d503201f 	nop
   818fc:	d503201f 	nop
   81900:	17fffa2e 	b	801b8 <hang>
   81904:	d503201f 	nop
   81908:	d503201f 	nop
   8190c:	d503201f 	nop
   81910:	d503201f 	nop
   81914:	d503201f 	nop
   81918:	d503201f 	nop
   8191c:	d503201f 	nop
   81920:	d503201f 	nop
   81924:	d503201f 	nop
   81928:	d503201f 	nop
   8192c:	d503201f 	nop
   81930:	d503201f 	nop
   81934:	d503201f 	nop
   81938:	d503201f 	nop
   8193c:	d503201f 	nop
   81940:	d503201f 	nop
   81944:	d503201f 	nop
   81948:	d503201f 	nop
   8194c:	d503201f 	nop
   81950:	d503201f 	nop
   81954:	d503201f 	nop
   81958:	d503201f 	nop
   8195c:	d503201f 	nop
   81960:	d503201f 	nop
   81964:	d503201f 	nop
   81968:	d503201f 	nop
   8196c:	d503201f 	nop
   81970:	d503201f 	nop
   81974:	d503201f 	nop
   81978:	d503201f 	nop
   8197c:	d503201f 	nop
   81980:	17fffa0e 	b	801b8 <hang>
   81984:	d503201f 	nop
   81988:	d503201f 	nop
   8198c:	d503201f 	nop
   81990:	d503201f 	nop
   81994:	d503201f 	nop
   81998:	d503201f 	nop
   8199c:	d503201f 	nop
   819a0:	d503201f 	nop
   819a4:	d503201f 	nop
   819a8:	d503201f 	nop
   819ac:	d503201f 	nop
   819b0:	d503201f 	nop
   819b4:	d503201f 	nop
   819b8:	d503201f 	nop
   819bc:	d503201f 	nop
   819c0:	d503201f 	nop
   819c4:	d503201f 	nop
   819c8:	d503201f 	nop
   819cc:	d503201f 	nop
   819d0:	d503201f 	nop
   819d4:	d503201f 	nop
   819d8:	d503201f 	nop
   819dc:	d503201f 	nop
   819e0:	d503201f 	nop
   819e4:	d503201f 	nop
   819e8:	d503201f 	nop
   819ec:	d503201f 	nop
   819f0:	d503201f 	nop
   819f4:	d503201f 	nop
   819f8:	d503201f 	nop
   819fc:	d503201f 	nop
   81a00:	17fff9ee 	b	801b8 <hang>
   81a04:	d503201f 	nop
   81a08:	d503201f 	nop
   81a0c:	d503201f 	nop
   81a10:	d503201f 	nop
   81a14:	d503201f 	nop
   81a18:	d503201f 	nop
   81a1c:	d503201f 	nop
   81a20:	d503201f 	nop
   81a24:	d503201f 	nop
   81a28:	d503201f 	nop
   81a2c:	d503201f 	nop
   81a30:	d503201f 	nop
   81a34:	d503201f 	nop
   81a38:	d503201f 	nop
   81a3c:	d503201f 	nop
   81a40:	d503201f 	nop
   81a44:	d503201f 	nop
   81a48:	d503201f 	nop
   81a4c:	d503201f 	nop
   81a50:	d503201f 	nop
   81a54:	d503201f 	nop
   81a58:	d503201f 	nop
   81a5c:	d503201f 	nop
   81a60:	d503201f 	nop
   81a64:	d503201f 	nop
   81a68:	d503201f 	nop
   81a6c:	d503201f 	nop
   81a70:	d503201f 	nop
   81a74:	d503201f 	nop
   81a78:	d503201f 	nop
   81a7c:	d503201f 	nop
   81a80:	17fffd68 	b	81020 <irq_handler_stub>
   81a84:	d503201f 	nop
   81a88:	d503201f 	nop
   81a8c:	d503201f 	nop
   81a90:	d503201f 	nop
   81a94:	d503201f 	nop
   81a98:	d503201f 	nop
   81a9c:	d503201f 	nop
   81aa0:	d503201f 	nop
   81aa4:	d503201f 	nop
   81aa8:	d503201f 	nop
   81aac:	d503201f 	nop
   81ab0:	d503201f 	nop
   81ab4:	d503201f 	nop
   81ab8:	d503201f 	nop
   81abc:	d503201f 	nop
   81ac0:	d503201f 	nop
   81ac4:	d503201f 	nop
   81ac8:	d503201f 	nop
   81acc:	d503201f 	nop
   81ad0:	d503201f 	nop
   81ad4:	d503201f 	nop
   81ad8:	d503201f 	nop
   81adc:	d503201f 	nop
   81ae0:	d503201f 	nop
   81ae4:	d503201f 	nop
   81ae8:	d503201f 	nop
   81aec:	d503201f 	nop
   81af0:	d503201f 	nop
   81af4:	d503201f 	nop
   81af8:	d503201f 	nop
   81afc:	d503201f 	nop
   81b00:	17fff9ae 	b	801b8 <hang>
   81b04:	d503201f 	nop
   81b08:	d503201f 	nop
   81b0c:	d503201f 	nop
   81b10:	d503201f 	nop
   81b14:	d503201f 	nop
   81b18:	d503201f 	nop
   81b1c:	d503201f 	nop
   81b20:	d503201f 	nop
   81b24:	d503201f 	nop
   81b28:	d503201f 	nop
   81b2c:	d503201f 	nop
   81b30:	d503201f 	nop
   81b34:	d503201f 	nop
   81b38:	d503201f 	nop
   81b3c:	d503201f 	nop
   81b40:	d503201f 	nop
   81b44:	d503201f 	nop
   81b48:	d503201f 	nop
   81b4c:	d503201f 	nop
   81b50:	d503201f 	nop
   81b54:	d503201f 	nop
   81b58:	d503201f 	nop
   81b5c:	d503201f 	nop
   81b60:	d503201f 	nop
   81b64:	d503201f 	nop
   81b68:	d503201f 	nop
   81b6c:	d503201f 	nop
   81b70:	d503201f 	nop
   81b74:	d503201f 	nop
   81b78:	d503201f 	nop
   81b7c:	d503201f 	nop
   81b80:	17fff98e 	b	801b8 <hang>
   81b84:	d503201f 	nop
   81b88:	d503201f 	nop
   81b8c:	d503201f 	nop
   81b90:	d503201f 	nop
   81b94:	d503201f 	nop
   81b98:	d503201f 	nop
   81b9c:	d503201f 	nop
   81ba0:	d503201f 	nop
   81ba4:	d503201f 	nop
   81ba8:	d503201f 	nop
   81bac:	d503201f 	nop
   81bb0:	d503201f 	nop
   81bb4:	d503201f 	nop
   81bb8:	d503201f 	nop
   81bbc:	d503201f 	nop
   81bc0:	d503201f 	nop
   81bc4:	d503201f 	nop
   81bc8:	d503201f 	nop
   81bcc:	d503201f 	nop
   81bd0:	d503201f 	nop
   81bd4:	d503201f 	nop
   81bd8:	d503201f 	nop
   81bdc:	d503201f 	nop
   81be0:	d503201f 	nop
   81be4:	d503201f 	nop
   81be8:	d503201f 	nop
   81bec:	d503201f 	nop
   81bf0:	d503201f 	nop
   81bf4:	d503201f 	nop
   81bf8:	d503201f 	nop
   81bfc:	d503201f 	nop
   81c00:	17fff96e 	b	801b8 <hang>
   81c04:	d503201f 	nop
   81c08:	d503201f 	nop
   81c0c:	d503201f 	nop
   81c10:	d503201f 	nop
   81c14:	d503201f 	nop
   81c18:	d503201f 	nop
   81c1c:	d503201f 	nop
   81c20:	d503201f 	nop
   81c24:	d503201f 	nop
   81c28:	d503201f 	nop
   81c2c:	d503201f 	nop
   81c30:	d503201f 	nop
   81c34:	d503201f 	nop
   81c38:	d503201f 	nop
   81c3c:	d503201f 	nop
   81c40:	d503201f 	nop
   81c44:	d503201f 	nop
   81c48:	d503201f 	nop
   81c4c:	d503201f 	nop
   81c50:	d503201f 	nop
   81c54:	d503201f 	nop
   81c58:	d503201f 	nop
   81c5c:	d503201f 	nop
   81c60:	d503201f 	nop
   81c64:	d503201f 	nop
   81c68:	d503201f 	nop
   81c6c:	d503201f 	nop
   81c70:	d503201f 	nop
   81c74:	d503201f 	nop
   81c78:	d503201f 	nop
   81c7c:	d503201f 	nop
   81c80:	17fff94e 	b	801b8 <hang>
   81c84:	d503201f 	nop
   81c88:	d503201f 	nop
   81c8c:	d503201f 	nop
   81c90:	d503201f 	nop
   81c94:	d503201f 	nop
   81c98:	d503201f 	nop
   81c9c:	d503201f 	nop
   81ca0:	d503201f 	nop
   81ca4:	d503201f 	nop
   81ca8:	d503201f 	nop
   81cac:	d503201f 	nop
   81cb0:	d503201f 	nop
   81cb4:	d503201f 	nop
   81cb8:	d503201f 	nop
   81cbc:	d503201f 	nop
   81cc0:	d503201f 	nop
   81cc4:	d503201f 	nop
   81cc8:	d503201f 	nop
   81ccc:	d503201f 	nop
   81cd0:	d503201f 	nop
   81cd4:	d503201f 	nop
   81cd8:	d503201f 	nop
   81cdc:	d503201f 	nop
   81ce0:	d503201f 	nop
   81ce4:	d503201f 	nop
   81ce8:	d503201f 	nop
   81cec:	d503201f 	nop
   81cf0:	d503201f 	nop
   81cf4:	d503201f 	nop
   81cf8:	d503201f 	nop
   81cfc:	d503201f 	nop
   81d00:	17fff92e 	b	801b8 <hang>
   81d04:	d503201f 	nop
   81d08:	d503201f 	nop
   81d0c:	d503201f 	nop
   81d10:	d503201f 	nop
   81d14:	d503201f 	nop
   81d18:	d503201f 	nop
   81d1c:	d503201f 	nop
   81d20:	d503201f 	nop
   81d24:	d503201f 	nop
   81d28:	d503201f 	nop
   81d2c:	d503201f 	nop
   81d30:	d503201f 	nop
   81d34:	d503201f 	nop
   81d38:	d503201f 	nop
   81d3c:	d503201f 	nop
   81d40:	d503201f 	nop
   81d44:	d503201f 	nop
   81d48:	d503201f 	nop
   81d4c:	d503201f 	nop
   81d50:	d503201f 	nop
   81d54:	d503201f 	nop
   81d58:	d503201f 	nop
   81d5c:	d503201f 	nop
   81d60:	d503201f 	nop
   81d64:	d503201f 	nop
   81d68:	d503201f 	nop
   81d6c:	d503201f 	nop
   81d70:	d503201f 	nop
   81d74:	d503201f 	nop
   81d78:	d503201f 	nop
   81d7c:	d503201f 	nop
   81d80:	17fff90e 	b	801b8 <hang>
   81d84:	d503201f 	nop
   81d88:	d503201f 	nop
   81d8c:	d503201f 	nop
   81d90:	d503201f 	nop
   81d94:	d503201f 	nop
   81d98:	d503201f 	nop
   81d9c:	d503201f 	nop
   81da0:	d503201f 	nop
   81da4:	d503201f 	nop
   81da8:	d503201f 	nop
   81dac:	d503201f 	nop
   81db0:	d503201f 	nop
   81db4:	d503201f 	nop
   81db8:	d503201f 	nop
   81dbc:	d503201f 	nop
   81dc0:	d503201f 	nop
   81dc4:	d503201f 	nop
   81dc8:	d503201f 	nop
   81dcc:	d503201f 	nop
   81dd0:	d503201f 	nop
   81dd4:	d503201f 	nop
   81dd8:	d503201f 	nop
   81ddc:	d503201f 	nop
   81de0:	d503201f 	nop
   81de4:	d503201f 	nop
   81de8:	d503201f 	nop
   81dec:	d503201f 	nop
   81df0:	d503201f 	nop
   81df4:	d503201f 	nop
   81df8:	d503201f 	nop
   81dfc:	d503201f 	nop
   81e00:	17fff8ee 	b	801b8 <hang>
   81e04:	d503201f 	nop
   81e08:	d503201f 	nop
   81e0c:	d503201f 	nop
   81e10:	d503201f 	nop
   81e14:	d503201f 	nop
   81e18:	d503201f 	nop
   81e1c:	d503201f 	nop
   81e20:	d503201f 	nop
   81e24:	d503201f 	nop
   81e28:	d503201f 	nop
   81e2c:	d503201f 	nop
   81e30:	d503201f 	nop
   81e34:	d503201f 	nop
   81e38:	d503201f 	nop
   81e3c:	d503201f 	nop
   81e40:	d503201f 	nop
   81e44:	d503201f 	nop
   81e48:	d503201f 	nop
   81e4c:	d503201f 	nop
   81e50:	d503201f 	nop
   81e54:	d503201f 	nop
   81e58:	d503201f 	nop
   81e5c:	d503201f 	nop
   81e60:	d503201f 	nop
   81e64:	d503201f 	nop
   81e68:	d503201f 	nop
   81e6c:	d503201f 	nop
   81e70:	d503201f 	nop
   81e74:	d503201f 	nop
   81e78:	d503201f 	nop
   81e7c:	d503201f 	nop
   81e80:	17fff8ce 	b	801b8 <hang>
   81e84:	d503201f 	nop
   81e88:	d503201f 	nop
   81e8c:	d503201f 	nop
   81e90:	d503201f 	nop
   81e94:	d503201f 	nop
   81e98:	d503201f 	nop
   81e9c:	d503201f 	nop
   81ea0:	d503201f 	nop
   81ea4:	d503201f 	nop
   81ea8:	d503201f 	nop
   81eac:	d503201f 	nop
   81eb0:	d503201f 	nop
   81eb4:	d503201f 	nop
   81eb8:	d503201f 	nop
   81ebc:	d503201f 	nop
   81ec0:	d503201f 	nop
   81ec4:	d503201f 	nop
   81ec8:	d503201f 	nop
   81ecc:	d503201f 	nop
   81ed0:	d503201f 	nop
   81ed4:	d503201f 	nop
   81ed8:	d503201f 	nop
   81edc:	d503201f 	nop
   81ee0:	d503201f 	nop
   81ee4:	d503201f 	nop
   81ee8:	d503201f 	nop
   81eec:	d503201f 	nop
   81ef0:	d503201f 	nop
   81ef4:	d503201f 	nop
   81ef8:	d503201f 	nop
   81efc:	d503201f 	nop
   81f00:	17fff8ae 	b	801b8 <hang>
   81f04:	d503201f 	nop
   81f08:	d503201f 	nop
   81f0c:	d503201f 	nop
   81f10:	d503201f 	nop
   81f14:	d503201f 	nop
   81f18:	d503201f 	nop
   81f1c:	d503201f 	nop
   81f20:	d503201f 	nop
   81f24:	d503201f 	nop
   81f28:	d503201f 	nop
   81f2c:	d503201f 	nop
   81f30:	d503201f 	nop
   81f34:	d503201f 	nop
   81f38:	d503201f 	nop
   81f3c:	d503201f 	nop
   81f40:	d503201f 	nop
   81f44:	d503201f 	nop
   81f48:	d503201f 	nop
   81f4c:	d503201f 	nop
   81f50:	d503201f 	nop
   81f54:	d503201f 	nop
   81f58:	d503201f 	nop
   81f5c:	d503201f 	nop
   81f60:	d503201f 	nop
   81f64:	d503201f 	nop
   81f68:	d503201f 	nop
   81f6c:	d503201f 	nop
   81f70:	d503201f 	nop
   81f74:	d503201f 	nop
   81f78:	d503201f 	nop
   81f7c:	d503201f 	nop
   81f80:	17fff88e 	b	801b8 <hang>
   81f84:	00000000 	.inst	0x00000000 ; undefined
   81f88:	0008ec30 	.word	0x0008ec30
   81f8c:	00000000 	.word	0x00000000

0000000000081f90 <CEcoMemoryManager1_4D656D31Factory_QueryInterface>:
   81f90:	a9bd7bfd 	stp	x29, x30, [sp, #-48]!
   81f94:	910003fd 	mov	x29, sp
   81f98:	f90017a0 	str	x0, [x29, #40]
   81f9c:	f90013a1 	str	x1, [x29, #32]
   81fa0:	f9000fa2 	str	x2, [x29, #24]
   81fa4:	f94013a0 	ldr	x0, [x29, #32]
   81fa8:	39400001 	ldrb	w1, [x0]
   81fac:	b0000460 	adrp	x0, 10e000 <ECO_CGI_1_PIXEL_VALIDITY_FLAG_e>
   81fb0:	910c2000 	add	x0, x0, #0x308
   81fb4:	39400000 	ldrb	w0, [x0]
   81fb8:	6b00003f 	cmp	w1, w0
   81fbc:	54001121 	b.ne	821e0 <CEcoMemoryManager1_4D656D31Factory_QueryInterface+0x250>  // b.any
   81fc0:	f94013a0 	ldr	x0, [x29, #32]
   81fc4:	91000400 	add	x0, x0, #0x1
   81fc8:	39400001 	ldrb	w1, [x0]
   81fcc:	b0000460 	adrp	x0, 10e000 <ECO_CGI_1_PIXEL_VALIDITY_FLAG_e>
   81fd0:	910c2400 	add	x0, x0, #0x309
   81fd4:	39400000 	ldrb	w0, [x0]
   81fd8:	6b00003f 	cmp	w1, w0
   81fdc:	54001021 	b.ne	821e0 <CEcoMemoryManager1_4D656D31Factory_QueryInterface+0x250>  // b.any
   81fe0:	f94013a0 	ldr	x0, [x29, #32]
   81fe4:	91000800 	add	x0, x0, #0x2
   81fe8:	39400001 	ldrb	w1, [x0]
   81fec:	b0000460 	adrp	x0, 10e000 <ECO_CGI_1_PIXEL_VALIDITY_FLAG_e>
   81ff0:	910c2800 	add	x0, x0, #0x30a
   81ff4:	39400000 	ldrb	w0, [x0]
   81ff8:	6b00003f 	cmp	w1, w0
   81ffc:	54000f21 	b.ne	821e0 <CEcoMemoryManager1_4D656D31Factory_QueryInterface+0x250>  // b.any
   82000:	f94013a0 	ldr	x0, [x29, #32]
   82004:	91000c00 	add	x0, x0, #0x3
   82008:	39400001 	ldrb	w1, [x0]
   8200c:	90000460 	adrp	x0, 10e000 <ECO_CGI_1_PIXEL_VALIDITY_FLAG_e>
   82010:	910c2c00 	add	x0, x0, #0x30b
   82014:	39400000 	ldrb	w0, [x0]
   82018:	6b00003f 	cmp	w1, w0
   8201c:	54000e21 	b.ne	821e0 <CEcoMemoryManager1_4D656D31Factory_QueryInterface+0x250>  // b.any
   82020:	f94013a0 	ldr	x0, [x29, #32]
   82024:	91001000 	add	x0, x0, #0x4
   82028:	39400001 	ldrb	w1, [x0]
   8202c:	90000460 	adrp	x0, 10e000 <ECO_CGI_1_PIXEL_VALIDITY_FLAG_e>
   82030:	910c3000 	add	x0, x0, #0x30c
   82034:	39400000 	ldrb	w0, [x0]
   82038:	6b00003f 	cmp	w1, w0
   8203c:	54000d21 	b.ne	821e0 <CEcoMemoryManager1_4D656D31Factory_QueryInterface+0x250>  // b.any
   82040:	f94013a0 	ldr	x0, [x29, #32]
   82044:	91001400 	add	x0, x0, #0x5
   82048:	39400001 	ldrb	w1, [x0]
   8204c:	90000460 	adrp	x0, 10e000 <ECO_CGI_1_PIXEL_VALIDITY_FLAG_e>
   82050:	910c3400 	add	x0, x0, #0x30d
   82054:	39400000 	ldrb	w0, [x0]
   82058:	6b00003f 	cmp	w1, w0
   8205c:	54000c21 	b.ne	821e0 <CEcoMemoryManager1_4D656D31Factory_QueryInterface+0x250>  // b.any
   82060:	f94013a0 	ldr	x0, [x29, #32]
   82064:	91001800 	add	x0, x0, #0x6
   82068:	39400001 	ldrb	w1, [x0]
   8206c:	90000460 	adrp	x0, 10e000 <ECO_CGI_1_PIXEL_VALIDITY_FLAG_e>
   82070:	910c3800 	add	x0, x0, #0x30e
   82074:	39400000 	ldrb	w0, [x0]
   82078:	6b00003f 	cmp	w1, w0
   8207c:	54000b21 	b.ne	821e0 <CEcoMemoryManager1_4D656D31Factory_QueryInterface+0x250>  // b.any
   82080:	f94013a0 	ldr	x0, [x29, #32]
   82084:	91001c00 	add	x0, x0, #0x7
   82088:	39400001 	ldrb	w1, [x0]
   8208c:	90000460 	adrp	x0, 10e000 <ECO_CGI_1_PIXEL_VALIDITY_FLAG_e>
   82090:	910c3c00 	add	x0, x0, #0x30f
   82094:	39400000 	ldrb	w0, [x0]
   82098:	6b00003f 	cmp	w1, w0
   8209c:	54000a21 	b.ne	821e0 <CEcoMemoryManager1_4D656D31Factory_QueryInterface+0x250>  // b.any
   820a0:	f94013a0 	ldr	x0, [x29, #32]
   820a4:	91002000 	add	x0, x0, #0x8
   820a8:	39400001 	ldrb	w1, [x0]
   820ac:	90000460 	adrp	x0, 10e000 <ECO_CGI_1_PIXEL_VALIDITY_FLAG_e>
   820b0:	910c4000 	add	x0, x0, #0x310
   820b4:	39400000 	ldrb	w0, [x0]
   820b8:	6b00003f 	cmp	w1, w0
   820bc:	54000921 	b.ne	821e0 <CEcoMemoryManager1_4D656D31Factory_QueryInterface+0x250>  // b.any
   820c0:	f94013a0 	ldr	x0, [x29, #32]
   820c4:	91002400 	add	x0, x0, #0x9
   820c8:	39400001 	ldrb	w1, [x0]
   820cc:	90000460 	adrp	x0, 10e000 <ECO_CGI_1_PIXEL_VALIDITY_FLAG_e>
   820d0:	910c4400 	add	x0, x0, #0x311
   820d4:	39400000 	ldrb	w0, [x0]
   820d8:	6b00003f 	cmp	w1, w0
   820dc:	54000821 	b.ne	821e0 <CEcoMemoryManager1_4D656D31Factory_QueryInterface+0x250>  // b.any
   820e0:	f94013a0 	ldr	x0, [x29, #32]
   820e4:	91002800 	add	x0, x0, #0xa
   820e8:	39400001 	ldrb	w1, [x0]
   820ec:	90000460 	adrp	x0, 10e000 <ECO_CGI_1_PIXEL_VALIDITY_FLAG_e>
   820f0:	910c4800 	add	x0, x0, #0x312
   820f4:	39400000 	ldrb	w0, [x0]
   820f8:	6b00003f 	cmp	w1, w0
   820fc:	54000721 	b.ne	821e0 <CEcoMemoryManager1_4D656D31Factory_QueryInterface+0x250>  // b.any
   82100:	f94013a0 	ldr	x0, [x29, #32]
   82104:	91002c00 	add	x0, x0, #0xb
   82108:	39400001 	ldrb	w1, [x0]
   8210c:	90000460 	adrp	x0, 10e000 <ECO_CGI_1_PIXEL_VALIDITY_FLAG_e>
   82110:	910c4c00 	add	x0, x0, #0x313
   82114:	39400000 	ldrb	w0, [x0]
   82118:	6b00003f 	cmp	w1, w0
   8211c:	54000621 	b.ne	821e0 <CEcoMemoryManager1_4D656D31Factory_QueryInterface+0x250>  // b.any
   82120:	f94013a0 	ldr	x0, [x29, #32]
   82124:	91003000 	add	x0, x0, #0xc
   82128:	39400001 	ldrb	w1, [x0]
   8212c:	90000460 	adrp	x0, 10e000 <ECO_CGI_1_PIXEL_VALIDITY_FLAG_e>
   82130:	910c5000 	add	x0, x0, #0x314
   82134:	39400000 	ldrb	w0, [x0]
   82138:	6b00003f 	cmp	w1, w0
   8213c:	54000521 	b.ne	821e0 <CEcoMemoryManager1_4D656D31Factory_QueryInterface+0x250>  // b.any
   82140:	f94013a0 	ldr	x0, [x29, #32]
   82144:	91003400 	add	x0, x0, #0xd
   82148:	39400001 	ldrb	w1, [x0]
   8214c:	90000460 	adrp	x0, 10e000 <ECO_CGI_1_PIXEL_VALIDITY_FLAG_e>
   82150:	910c5400 	add	x0, x0, #0x315
   82154:	39400000 	ldrb	w0, [x0]
   82158:	6b00003f 	cmp	w1, w0
   8215c:	54000421 	b.ne	821e0 <CEcoMemoryManager1_4D656D31Factory_QueryInterface+0x250>  // b.any
   82160:	f94013a0 	ldr	x0, [x29, #32]
   82164:	91003800 	add	x0, x0, #0xe
   82168:	39400001 	ldrb	w1, [x0]
   8216c:	90000460 	adrp	x0, 10e000 <ECO_CGI_1_PIXEL_VALIDITY_FLAG_e>
   82170:	910c5800 	add	x0, x0, #0x316
   82174:	39400000 	ldrb	w0, [x0]
   82178:	6b00003f 	cmp	w1, w0
   8217c:	54000321 	b.ne	821e0 <CEcoMemoryManager1_4D656D31Factory_QueryInterface+0x250>  // b.any
   82180:	f94013a0 	ldr	x0, [x29, #32]
   82184:	91003c00 	add	x0, x0, #0xf
   82188:	39400001 	ldrb	w1, [x0]
   8218c:	90000460 	adrp	x0, 10e000 <ECO_CGI_1_PIXEL_VALIDITY_FLAG_e>
   82190:	910c5c00 	add	x0, x0, #0x317
   82194:	39400000 	ldrb	w0, [x0]
   82198:	6b00003f 	cmp	w1, w0
   8219c:	54000221 	b.ne	821e0 <CEcoMemoryManager1_4D656D31Factory_QueryInterface+0x250>  // b.any
   821a0:	f94013a0 	ldr	x0, [x29, #32]
   821a4:	91004000 	add	x0, x0, #0x10
   821a8:	39400001 	ldrb	w1, [x0]
   821ac:	90000460 	adrp	x0, 10e000 <ECO_CGI_1_PIXEL_VALIDITY_FLAG_e>
   821b0:	910c6000 	add	x0, x0, #0x318
   821b4:	39400000 	ldrb	w0, [x0]
   821b8:	6b00003f 	cmp	w1, w0
   821bc:	54000121 	b.ne	821e0 <CEcoMemoryManager1_4D656D31Factory_QueryInterface+0x250>  // b.any
   821c0:	f94013a0 	ldr	x0, [x29, #32]
   821c4:	91004400 	add	x0, x0, #0x11
   821c8:	39400001 	ldrb	w1, [x0]
   821cc:	90000460 	adrp	x0, 10e000 <ECO_CGI_1_PIXEL_VALIDITY_FLAG_e>
   821d0:	910c6400 	add	x0, x0, #0x319
   821d4:	39400000 	ldrb	w0, [x0]
   821d8:	6b00003f 	cmp	w1, w0
   821dc:	54001200 	b.eq	8241c <CEcoMemoryManager1_4D656D31Factory_QueryInterface+0x48c>  // b.none
   821e0:	f94013a0 	ldr	x0, [x29, #32]
   821e4:	39400001 	ldrb	w1, [x0]
   821e8:	90000460 	adrp	x0, 10e000 <ECO_CGI_1_PIXEL_VALIDITY_FLAG_e>
   821ec:	910c8000 	add	x0, x0, #0x320
   821f0:	39400000 	ldrb	w0, [x0]
   821f4:	6b00003f 	cmp	w1, w0
   821f8:	540012a1 	b.ne	8244c <CEcoMemoryManager1_4D656D31Factory_QueryInterface+0x4bc>  // b.any
   821fc:	f94013a0 	ldr	x0, [x29, #32]
   82200:	91000400 	add	x0, x0, #0x1
   82204:	39400001 	ldrb	w1, [x0]
   82208:	90000460 	adrp	x0, 10e000 <ECO_CGI_1_PIXEL_VALIDITY_FLAG_e>
   8220c:	910c8400 	add	x0, x0, #0x321
   82210:	39400000 	ldrb	w0, [x0]
   82214:	6b00003f 	cmp	w1, w0
   82218:	540011a1 	b.ne	8244c <CEcoMemoryManager1_4D656D31Factory_QueryInterface+0x4bc>  // b.any
   8221c:	f94013a0 	ldr	x0, [x29, #32]
   82220:	91000800 	add	x0, x0, #0x2
   82224:	39400001 	ldrb	w1, [x0]
   82228:	90000460 	adrp	x0, 10e000 <ECO_CGI_1_PIXEL_VALIDITY_FLAG_e>
   8222c:	910c8800 	add	x0, x0, #0x322
   82230:	39400000 	ldrb	w0, [x0]
   82234:	6b00003f 	cmp	w1, w0
   82238:	540010a1 	b.ne	8244c <CEcoMemoryManager1_4D656D31Factory_QueryInterface+0x4bc>  // b.any
   8223c:	f94013a0 	ldr	x0, [x29, #32]
   82240:	91000c00 	add	x0, x0, #0x3
   82244:	39400001 	ldrb	w1, [x0]
   82248:	90000460 	adrp	x0, 10e000 <ECO_CGI_1_PIXEL_VALIDITY_FLAG_e>
   8224c:	910c8c00 	add	x0, x0, #0x323
   82250:	39400000 	ldrb	w0, [x0]
   82254:	6b00003f 	cmp	w1, w0
   82258:	54000fa1 	b.ne	8244c <CEcoMemoryManager1_4D656D31Factory_QueryInterface+0x4bc>  // b.any
   8225c:	f94013a0 	ldr	x0, [x29, #32]
   82260:	91001000 	add	x0, x0, #0x4
   82264:	39400001 	ldrb	w1, [x0]
   82268:	90000460 	adrp	x0, 10e000 <ECO_CGI_1_PIXEL_VALIDITY_FLAG_e>
   8226c:	910c9000 	add	x0, x0, #0x324
   82270:	39400000 	ldrb	w0, [x0]
   82274:	6b00003f 	cmp	w1, w0
   82278:	54000ea1 	b.ne	8244c <CEcoMemoryManager1_4D656D31Factory_QueryInterface+0x4bc>  // b.any
   8227c:	f94013a0 	ldr	x0, [x29, #32]
   82280:	91001400 	add	x0, x0, #0x5
   82284:	39400001 	ldrb	w1, [x0]
   82288:	90000460 	adrp	x0, 10e000 <ECO_CGI_1_PIXEL_VALIDITY_FLAG_e>
   8228c:	910c9400 	add	x0, x0, #0x325
   82290:	39400000 	ldrb	w0, [x0]
   82294:	6b00003f 	cmp	w1, w0
   82298:	54000da1 	b.ne	8244c <CEcoMemoryManager1_4D656D31Factory_QueryInterface+0x4bc>  // b.any
   8229c:	f94013a0 	ldr	x0, [x29, #32]
   822a0:	91001800 	add	x0, x0, #0x6
   822a4:	39400001 	ldrb	w1, [x0]
   822a8:	90000460 	adrp	x0, 10e000 <ECO_CGI_1_PIXEL_VALIDITY_FLAG_e>
   822ac:	910c9800 	add	x0, x0, #0x326
   822b0:	39400000 	ldrb	w0, [x0]
   822b4:	6b00003f 	cmp	w1, w0
   822b8:	54000ca1 	b.ne	8244c <CEcoMemoryManager1_4D656D31Factory_QueryInterface+0x4bc>  // b.any
   822bc:	f94013a0 	ldr	x0, [x29, #32]
   822c0:	91001c00 	add	x0, x0, #0x7
   822c4:	39400001 	ldrb	w1, [x0]
   822c8:	90000460 	adrp	x0, 10e000 <ECO_CGI_1_PIXEL_VALIDITY_FLAG_e>
   822cc:	910c9c00 	add	x0, x0, #0x327
   822d0:	39400000 	ldrb	w0, [x0]
   822d4:	6b00003f 	cmp	w1, w0
   822d8:	54000ba1 	b.ne	8244c <CEcoMemoryManager1_4D656D31Factory_QueryInterface+0x4bc>  // b.any
   822dc:	f94013a0 	ldr	x0, [x29, #32]
   822e0:	91002000 	add	x0, x0, #0x8
   822e4:	39400001 	ldrb	w1, [x0]
   822e8:	90000460 	adrp	x0, 10e000 <ECO_CGI_1_PIXEL_VALIDITY_FLAG_e>
   822ec:	910ca000 	add	x0, x0, #0x328
   822f0:	39400000 	ldrb	w0, [x0]
   822f4:	6b00003f 	cmp	w1, w0
   822f8:	54000aa1 	b.ne	8244c <CEcoMemoryManager1_4D656D31Factory_QueryInterface+0x4bc>  // b.any
   822fc:	f94013a0 	ldr	x0, [x29, #32]
   82300:	91002400 	add	x0, x0, #0x9
   82304:	39400001 	ldrb	w1, [x0]
   82308:	90000460 	adrp	x0, 10e000 <ECO_CGI_1_PIXEL_VALIDITY_FLAG_e>
   8230c:	910ca400 	add	x0, x0, #0x329
   82310:	39400000 	ldrb	w0, [x0]
   82314:	6b00003f 	cmp	w1, w0
   82318:	540009a1 	b.ne	8244c <CEcoMemoryManager1_4D656D31Factory_QueryInterface+0x4bc>  // b.any
   8231c:	f94013a0 	ldr	x0, [x29, #32]
   82320:	91002800 	add	x0, x0, #0xa
   82324:	39400001 	ldrb	w1, [x0]
   82328:	90000460 	adrp	x0, 10e000 <ECO_CGI_1_PIXEL_VALIDITY_FLAG_e>
   8232c:	910ca800 	add	x0, x0, #0x32a
   82330:	39400000 	ldrb	w0, [x0]
   82334:	6b00003f 	cmp	w1, w0
   82338:	540008a1 	b.ne	8244c <CEcoMemoryManager1_4D656D31Factory_QueryInterface+0x4bc>  // b.any
   8233c:	f94013a0 	ldr	x0, [x29, #32]
   82340:	91002c00 	add	x0, x0, #0xb
   82344:	39400001 	ldrb	w1, [x0]
   82348:	90000460 	adrp	x0, 10e000 <ECO_CGI_1_PIXEL_VALIDITY_FLAG_e>
   8234c:	910cac00 	add	x0, x0, #0x32b
   82350:	39400000 	ldrb	w0, [x0]
   82354:	6b00003f 	cmp	w1, w0
   82358:	540007a1 	b.ne	8244c <CEcoMemoryManager1_4D656D31Factory_QueryInterface+0x4bc>  // b.any
   8235c:	f94013a0 	ldr	x0, [x29, #32]
   82360:	91003000 	add	x0, x0, #0xc
   82364:	39400001 	ldrb	w1, [x0]
   82368:	90000460 	adrp	x0, 10e000 <ECO_CGI_1_PIXEL_VALIDITY_FLAG_e>
   8236c:	910cb000 	add	x0, x0, #0x32c
   82370:	39400000 	ldrb	w0, [x0]
   82374:	6b00003f 	cmp	w1, w0
   82378:	540006a1 	b.ne	8244c <CEcoMemoryManager1_4D656D31Factory_QueryInterface+0x4bc>  // b.any
   8237c:	f94013a0 	ldr	x0, [x29, #32]
   82380:	91003400 	add	x0, x0, #0xd
   82384:	39400001 	ldrb	w1, [x0]
   82388:	90000460 	adrp	x0, 10e000 <ECO_CGI_1_PIXEL_VALIDITY_FLAG_e>
   8238c:	910cb400 	add	x0, x0, #0x32d
   82390:	39400000 	ldrb	w0, [x0]
   82394:	6b00003f 	cmp	w1, w0
   82398:	540005a1 	b.ne	8244c <CEcoMemoryManager1_4D656D31Factory_QueryInterface+0x4bc>  // b.any
   8239c:	f94013a0 	ldr	x0, [x29, #32]
   823a0:	91003800 	add	x0, x0, #0xe
   823a4:	39400001 	ldrb	w1, [x0]
   823a8:	90000460 	adrp	x0, 10e000 <ECO_CGI_1_PIXEL_VALIDITY_FLAG_e>
   823ac:	910cb800 	add	x0, x0, #0x32e
   823b0:	39400000 	ldrb	w0, [x0]
   823b4:	6b00003f 	cmp	w1, w0
   823b8:	540004a1 	b.ne	8244c <CEcoMemoryManager1_4D656D31Factory_QueryInterface+0x4bc>  // b.any
   823bc:	f94013a0 	ldr	x0, [x29, #32]
   823c0:	91003c00 	add	x0, x0, #0xf
   823c4:	39400001 	ldrb	w1, [x0]
   823c8:	90000460 	adrp	x0, 10e000 <ECO_CGI_1_PIXEL_VALIDITY_FLAG_e>
   823cc:	910cbc00 	add	x0, x0, #0x32f
   823d0:	39400000 	ldrb	w0, [x0]
   823d4:	6b00003f 	cmp	w1, w0
   823d8:	540003a1 	b.ne	8244c <CEcoMemoryManager1_4D656D31Factory_QueryInterface+0x4bc>  // b.any
   823dc:	f94013a0 	ldr	x0, [x29, #32]
   823e0:	91004000 	add	x0, x0, #0x10
   823e4:	39400001 	ldrb	w1, [x0]
   823e8:	90000460 	adrp	x0, 10e000 <ECO_CGI_1_PIXEL_VALIDITY_FLAG_e>
   823ec:	910cc000 	add	x0, x0, #0x330
   823f0:	39400000 	ldrb	w0, [x0]
   823f4:	6b00003f 	cmp	w1, w0
   823f8:	540002a1 	b.ne	8244c <CEcoMemoryManager1_4D656D31Factory_QueryInterface+0x4bc>  // b.any
   823fc:	f94013a0 	ldr	x0, [x29, #32]
   82400:	91004400 	add	x0, x0, #0x11
   82404:	39400001 	ldrb	w1, [x0]
   82408:	90000460 	adrp	x0, 10e000 <ECO_CGI_1_PIXEL_VALIDITY_FLAG_e>
   8240c:	910cc400 	add	x0, x0, #0x331
   82410:	39400000 	ldrb	w0, [x0]
   82414:	6b00003f 	cmp	w1, w0
   82418:	540001a1 	b.ne	8244c <CEcoMemoryManager1_4D656D31Factory_QueryInterface+0x4bc>  // b.any
   8241c:	f9400fa0 	ldr	x0, [x29, #24]
   82420:	f94017a1 	ldr	x1, [x29, #40]
   82424:	f9000001 	str	x1, [x0]
   82428:	f9400fa0 	ldr	x0, [x29, #24]
   8242c:	f9400000 	ldr	x0, [x0]
   82430:	f9400000 	ldr	x0, [x0]
   82434:	f9400401 	ldr	x1, [x0, #8]
   82438:	f9400fa0 	ldr	x0, [x29, #24]
   8243c:	f9400000 	ldr	x0, [x0]
   82440:	d63f0020 	blr	x1
   82444:	52800000 	mov	w0, #0x0                   	// #0
   82448:	14000004 	b	82458 <CEcoMemoryManager1_4D656D31Factory_QueryInterface+0x4c8>
   8244c:	f9400fa0 	ldr	x0, [x29, #24]
   82450:	f900001f 	str	xzr, [x0]
   82454:	12800000 	mov	w0, #0xffffffff            	// #-1
   82458:	a8c37bfd 	ldp	x29, x30, [sp], #48
   8245c:	d65f03c0 	ret

0000000000082460 <CEcoMemoryManager1_4D656D31Factory_AddRef>:
   82460:	d10083ff 	sub	sp, sp, #0x20
   82464:	f90007e0 	str	x0, [sp, #8]
   82468:	f94007e0 	ldr	x0, [sp, #8]
   8246c:	f9000fe0 	str	x0, [sp, #24]
   82470:	f94007e0 	ldr	x0, [sp, #8]
   82474:	f100001f 	cmp	x0, #0x0
   82478:	54000061 	b.ne	82484 <CEcoMemoryManager1_4D656D31Factory_AddRef+0x24>  // b.any
   8247c:	12800000 	mov	w0, #0xffffffff            	// #-1
   82480:	14000007 	b	8249c <CEcoMemoryManager1_4D656D31Factory_AddRef+0x3c>
   82484:	f9400fe0 	ldr	x0, [sp, #24]
   82488:	b9400800 	ldr	w0, [x0, #8]
   8248c:	11000402 	add	w2, w0, #0x1
   82490:	f9400fe1 	ldr	x1, [sp, #24]
   82494:	b9000822 	str	w2, [x1, #8]
   82498:	d503201f 	nop
   8249c:	910083ff 	add	sp, sp, #0x20
   824a0:	d65f03c0 	ret

00000000000824a4 <CEcoMemoryManager1_4D656D31Factory_Release>:
   824a4:	d10083ff 	sub	sp, sp, #0x20
   824a8:	f90007e0 	str	x0, [sp, #8]
   824ac:	f94007e0 	ldr	x0, [sp, #8]
   824b0:	f9000fe0 	str	x0, [sp, #24]
   824b4:	f94007e0 	ldr	x0, [sp, #8]
   824b8:	f100001f 	cmp	x0, #0x0
   824bc:	54000061 	b.ne	824c8 <CEcoMemoryManager1_4D656D31Factory_Release+0x24>  // b.any
   824c0:	12800000 	mov	w0, #0xffffffff            	// #-1
   824c4:	1400000e 	b	824fc <CEcoMemoryManager1_4D656D31Factory_Release+0x58>
   824c8:	f9400fe0 	ldr	x0, [sp, #24]
   824cc:	b9400800 	ldr	w0, [x0, #8]
   824d0:	51000401 	sub	w1, w0, #0x1
   824d4:	f9400fe0 	ldr	x0, [sp, #24]
   824d8:	b9000801 	str	w1, [x0, #8]
   824dc:	f9400fe0 	ldr	x0, [sp, #24]
   824e0:	b9400800 	ldr	w0, [x0, #8]
   824e4:	7100001f 	cmp	w0, #0x0
   824e8:	54000061 	b.ne	824f4 <CEcoMemoryManager1_4D656D31Factory_Release+0x50>  // b.any
   824ec:	52800000 	mov	w0, #0x0                   	// #0
   824f0:	14000003 	b	824fc <CEcoMemoryManager1_4D656D31Factory_Release+0x58>
   824f4:	f9400fe0 	ldr	x0, [sp, #24]
   824f8:	b9400800 	ldr	w0, [x0, #8]
   824fc:	910083ff 	add	sp, sp, #0x20
   82500:	d65f03c0 	ret

0000000000082504 <CEcoMemoryManager1_4D656D31Factory_Init>:
   82504:	d100c3ff 	sub	sp, sp, #0x30
   82508:	f9000fe0 	str	x0, [sp, #24]
   8250c:	f9000be1 	str	x1, [sp, #16]
   82510:	f90007e2 	str	x2, [sp, #8]
   82514:	12800000 	mov	w0, #0xffffffff            	// #-1
   82518:	79005fe0 	strh	w0, [sp, #46]
   8251c:	f9400fe0 	ldr	x0, [sp, #24]
   82520:	f100001f 	cmp	x0, #0x0
   82524:	54000061 	b.ne	82530 <CEcoMemoryManager1_4D656D31Factory_Init+0x2c>  // b.any
   82528:	12800000 	mov	w0, #0xffffffff            	// #-1
   8252c:	14000002 	b	82534 <CEcoMemoryManager1_4D656D31Factory_Init+0x30>
   82530:	79c05fe0 	ldrsh	w0, [sp, #46]
   82534:	9100c3ff 	add	sp, sp, #0x30
   82538:	d65f03c0 	ret

000000000008253c <CEcoMemoryManager1_4D656D31Factory_Alloc>:
   8253c:	a9ba7bfd 	stp	x29, x30, [sp, #-96]!
   82540:	910003fd 	mov	x29, sp
   82544:	f9001fa0 	str	x0, [x29, #56]
   82548:	f9001ba1 	str	x1, [x29, #48]
   8254c:	f90017a2 	str	x2, [x29, #40]
   82550:	f90013a3 	str	x3, [x29, #32]
   82554:	f9000fa4 	str	x4, [x29, #24]
   82558:	f9401fa0 	ldr	x0, [x29, #56]
   8255c:	f9002fa0 	str	x0, [x29, #88]
   82560:	f90027bf 	str	xzr, [x29, #72]
   82564:	12800000 	mov	w0, #0xffffffff            	// #-1
   82568:	7900afa0 	strh	w0, [x29, #86]
   8256c:	f9401fa0 	ldr	x0, [x29, #56]
   82570:	f100001f 	cmp	x0, #0x0
   82574:	54000061 	b.ne	82580 <CEcoMemoryManager1_4D656D31Factory_Alloc+0x44>  // b.any
   82578:	12800000 	mov	w0, #0xffffffff            	// #-1
   8257c:	140000b3 	b	82848 <CEcoMemoryManager1_4D656D31Factory_Alloc+0x30c>
   82580:	f94017a0 	ldr	x0, [x29, #40]
   82584:	f100001f 	cmp	x0, #0x0
   82588:	54001240 	b.eq	827d0 <CEcoMemoryManager1_4D656D31Factory_Alloc+0x294>  // b.none
   8258c:	f94013a0 	ldr	x0, [x29, #32]
   82590:	39400001 	ldrb	w1, [x0]
   82594:	90000460 	adrp	x0, 10e000 <ECO_CGI_1_PIXEL_VALIDITY_FLAG_e>
   82598:	910c2000 	add	x0, x0, #0x308
   8259c:	39400000 	ldrb	w0, [x0]
   825a0:	6b00003f 	cmp	w1, w0
   825a4:	54001121 	b.ne	827c8 <CEcoMemoryManager1_4D656D31Factory_Alloc+0x28c>  // b.any
   825a8:	f94013a0 	ldr	x0, [x29, #32]
   825ac:	91000400 	add	x0, x0, #0x1
   825b0:	39400001 	ldrb	w1, [x0]
   825b4:	90000460 	adrp	x0, 10e000 <ECO_CGI_1_PIXEL_VALIDITY_FLAG_e>
   825b8:	910c2400 	add	x0, x0, #0x309
   825bc:	39400000 	ldrb	w0, [x0]
   825c0:	6b00003f 	cmp	w1, w0
   825c4:	54001021 	b.ne	827c8 <CEcoMemoryManager1_4D656D31Factory_Alloc+0x28c>  // b.any
   825c8:	f94013a0 	ldr	x0, [x29, #32]
   825cc:	91000800 	add	x0, x0, #0x2
   825d0:	39400001 	ldrb	w1, [x0]
   825d4:	90000460 	adrp	x0, 10e000 <ECO_CGI_1_PIXEL_VALIDITY_FLAG_e>
   825d8:	910c2800 	add	x0, x0, #0x30a
   825dc:	39400000 	ldrb	w0, [x0]
   825e0:	6b00003f 	cmp	w1, w0
   825e4:	54000f21 	b.ne	827c8 <CEcoMemoryManager1_4D656D31Factory_Alloc+0x28c>  // b.any
   825e8:	f94013a0 	ldr	x0, [x29, #32]
   825ec:	91000c00 	add	x0, x0, #0x3
   825f0:	39400001 	ldrb	w1, [x0]
   825f4:	90000460 	adrp	x0, 10e000 <ECO_CGI_1_PIXEL_VALIDITY_FLAG_e>
   825f8:	910c2c00 	add	x0, x0, #0x30b
   825fc:	39400000 	ldrb	w0, [x0]
   82600:	6b00003f 	cmp	w1, w0
   82604:	54000e21 	b.ne	827c8 <CEcoMemoryManager1_4D656D31Factory_Alloc+0x28c>  // b.any
   82608:	f94013a0 	ldr	x0, [x29, #32]
   8260c:	91001000 	add	x0, x0, #0x4
   82610:	39400001 	ldrb	w1, [x0]
   82614:	90000460 	adrp	x0, 10e000 <ECO_CGI_1_PIXEL_VALIDITY_FLAG_e>
   82618:	910c3000 	add	x0, x0, #0x30c
   8261c:	39400000 	ldrb	w0, [x0]
   82620:	6b00003f 	cmp	w1, w0
   82624:	54000d21 	b.ne	827c8 <CEcoMemoryManager1_4D656D31Factory_Alloc+0x28c>  // b.any
   82628:	f94013a0 	ldr	x0, [x29, #32]
   8262c:	91001400 	add	x0, x0, #0x5
   82630:	39400001 	ldrb	w1, [x0]
   82634:	90000460 	adrp	x0, 10e000 <ECO_CGI_1_PIXEL_VALIDITY_FLAG_e>
   82638:	910c3400 	add	x0, x0, #0x30d
   8263c:	39400000 	ldrb	w0, [x0]
   82640:	6b00003f 	cmp	w1, w0
   82644:	54000c21 	b.ne	827c8 <CEcoMemoryManager1_4D656D31Factory_Alloc+0x28c>  // b.any
   82648:	f94013a0 	ldr	x0, [x29, #32]
   8264c:	91001800 	add	x0, x0, #0x6
   82650:	39400001 	ldrb	w1, [x0]
   82654:	90000460 	adrp	x0, 10e000 <ECO_CGI_1_PIXEL_VALIDITY_FLAG_e>
   82658:	910c3800 	add	x0, x0, #0x30e
   8265c:	39400000 	ldrb	w0, [x0]
   82660:	6b00003f 	cmp	w1, w0
   82664:	54000b21 	b.ne	827c8 <CEcoMemoryManager1_4D656D31Factory_Alloc+0x28c>  // b.any
   82668:	f94013a0 	ldr	x0, [x29, #32]
   8266c:	91001c00 	add	x0, x0, #0x7
   82670:	39400001 	ldrb	w1, [x0]
   82674:	90000460 	adrp	x0, 10e000 <ECO_CGI_1_PIXEL_VALIDITY_FLAG_e>
   82678:	910c3c00 	add	x0, x0, #0x30f
   8267c:	39400000 	ldrb	w0, [x0]
   82680:	6b00003f 	cmp	w1, w0
   82684:	54000a21 	b.ne	827c8 <CEcoMemoryManager1_4D656D31Factory_Alloc+0x28c>  // b.any
   82688:	f94013a0 	ldr	x0, [x29, #32]
   8268c:	91002000 	add	x0, x0, #0x8
   82690:	39400001 	ldrb	w1, [x0]
   82694:	90000460 	adrp	x0, 10e000 <ECO_CGI_1_PIXEL_VALIDITY_FLAG_e>
   82698:	910c4000 	add	x0, x0, #0x310
   8269c:	39400000 	ldrb	w0, [x0]
   826a0:	6b00003f 	cmp	w1, w0
   826a4:	54000921 	b.ne	827c8 <CEcoMemoryManager1_4D656D31Factory_Alloc+0x28c>  // b.any
   826a8:	f94013a0 	ldr	x0, [x29, #32]
   826ac:	91002400 	add	x0, x0, #0x9
   826b0:	39400001 	ldrb	w1, [x0]
   826b4:	90000460 	adrp	x0, 10e000 <ECO_CGI_1_PIXEL_VALIDITY_FLAG_e>
   826b8:	910c4400 	add	x0, x0, #0x311
   826bc:	39400000 	ldrb	w0, [x0]
   826c0:	6b00003f 	cmp	w1, w0
   826c4:	54000821 	b.ne	827c8 <CEcoMemoryManager1_4D656D31Factory_Alloc+0x28c>  // b.any
   826c8:	f94013a0 	ldr	x0, [x29, #32]
   826cc:	91002800 	add	x0, x0, #0xa
   826d0:	39400001 	ldrb	w1, [x0]
   826d4:	90000460 	adrp	x0, 10e000 <ECO_CGI_1_PIXEL_VALIDITY_FLAG_e>
   826d8:	910c4800 	add	x0, x0, #0x312
   826dc:	39400000 	ldrb	w0, [x0]
   826e0:	6b00003f 	cmp	w1, w0
   826e4:	54000721 	b.ne	827c8 <CEcoMemoryManager1_4D656D31Factory_Alloc+0x28c>  // b.any
   826e8:	f94013a0 	ldr	x0, [x29, #32]
   826ec:	91002c00 	add	x0, x0, #0xb
   826f0:	39400001 	ldrb	w1, [x0]
   826f4:	90000460 	adrp	x0, 10e000 <ECO_CGI_1_PIXEL_VALIDITY_FLAG_e>
   826f8:	910c4c00 	add	x0, x0, #0x313
   826fc:	39400000 	ldrb	w0, [x0]
   82700:	6b00003f 	cmp	w1, w0
   82704:	54000621 	b.ne	827c8 <CEcoMemoryManager1_4D656D31Factory_Alloc+0x28c>  // b.any
   82708:	f94013a0 	ldr	x0, [x29, #32]
   8270c:	91003000 	add	x0, x0, #0xc
   82710:	39400001 	ldrb	w1, [x0]
   82714:	90000460 	adrp	x0, 10e000 <ECO_CGI_1_PIXEL_VALIDITY_FLAG_e>
   82718:	910c5000 	add	x0, x0, #0x314
   8271c:	39400000 	ldrb	w0, [x0]
   82720:	6b00003f 	cmp	w1, w0
   82724:	54000521 	b.ne	827c8 <CEcoMemoryManager1_4D656D31Factory_Alloc+0x28c>  // b.any
   82728:	f94013a0 	ldr	x0, [x29, #32]
   8272c:	91003400 	add	x0, x0, #0xd
   82730:	39400001 	ldrb	w1, [x0]
   82734:	90000460 	adrp	x0, 10e000 <ECO_CGI_1_PIXEL_VALIDITY_FLAG_e>
   82738:	910c5400 	add	x0, x0, #0x315
   8273c:	39400000 	ldrb	w0, [x0]
   82740:	6b00003f 	cmp	w1, w0
   82744:	54000421 	b.ne	827c8 <CEcoMemoryManager1_4D656D31Factory_Alloc+0x28c>  // b.any
   82748:	f94013a0 	ldr	x0, [x29, #32]
   8274c:	91003800 	add	x0, x0, #0xe
   82750:	39400001 	ldrb	w1, [x0]
   82754:	90000460 	adrp	x0, 10e000 <ECO_CGI_1_PIXEL_VALIDITY_FLAG_e>
   82758:	910c5800 	add	x0, x0, #0x316
   8275c:	39400000 	ldrb	w0, [x0]
   82760:	6b00003f 	cmp	w1, w0
   82764:	54000321 	b.ne	827c8 <CEcoMemoryManager1_4D656D31Factory_Alloc+0x28c>  // b.any
   82768:	f94013a0 	ldr	x0, [x29, #32]
   8276c:	91003c00 	add	x0, x0, #0xf
   82770:	39400001 	ldrb	w1, [x0]
   82774:	90000460 	adrp	x0, 10e000 <ECO_CGI_1_PIXEL_VALIDITY_FLAG_e>
   82778:	910c5c00 	add	x0, x0, #0x317
   8277c:	39400000 	ldrb	w0, [x0]
   82780:	6b00003f 	cmp	w1, w0
   82784:	54000221 	b.ne	827c8 <CEcoMemoryManager1_4D656D31Factory_Alloc+0x28c>  // b.any
   82788:	f94013a0 	ldr	x0, [x29, #32]
   8278c:	91004000 	add	x0, x0, #0x10
   82790:	39400001 	ldrb	w1, [x0]
   82794:	90000460 	adrp	x0, 10e000 <ECO_CGI_1_PIXEL_VALIDITY_FLAG_e>
   82798:	910c6000 	add	x0, x0, #0x318
   8279c:	39400000 	ldrb	w0, [x0]
   827a0:	6b00003f 	cmp	w1, w0
   827a4:	54000121 	b.ne	827c8 <CEcoMemoryManager1_4D656D31Factory_Alloc+0x28c>  // b.any
   827a8:	f94013a0 	ldr	x0, [x29, #32]
   827ac:	91004400 	add	x0, x0, #0x11
   827b0:	39400001 	ldrb	w1, [x0]
   827b4:	90000460 	adrp	x0, 10e000 <ECO_CGI_1_PIXEL_VALIDITY_FLAG_e>
   827b8:	910c6400 	add	x0, x0, #0x319
   827bc:	39400000 	ldrb	w0, [x0]
   827c0:	6b00003f 	cmp	w1, w0
   827c4:	54000060 	b.eq	827d0 <CEcoMemoryManager1_4D656D31Factory_Alloc+0x294>  // b.none
   827c8:	12800000 	mov	w0, #0xffffffff            	// #-1
   827cc:	1400001f 	b	82848 <CEcoMemoryManager1_4D656D31Factory_Alloc+0x30c>
   827d0:	f9402fa0 	ldr	x0, [x29, #88]
   827d4:	f9400803 	ldr	x3, [x0, #16]
   827d8:	910123a0 	add	x0, x29, #0x48
   827dc:	aa0003e2 	mov	x2, x0
   827e0:	f94017a1 	ldr	x1, [x29, #40]
   827e4:	f9401ba0 	ldr	x0, [x29, #48]
   827e8:	d63f0060 	blr	x3
   827ec:	7900afa0 	strh	w0, [x29, #86]
   827f0:	79c0afa0 	ldrsh	w0, [x29, #86]
   827f4:	7100001f 	cmp	w0, #0x0
   827f8:	54000081 	b.ne	82808 <CEcoMemoryManager1_4D656D31Factory_Alloc+0x2cc>  // b.any
   827fc:	f94027a0 	ldr	x0, [x29, #72]
   82800:	f100001f 	cmp	x0, #0x0
   82804:	54000061 	b.ne	82810 <CEcoMemoryManager1_4D656D31Factory_Alloc+0x2d4>  // b.any
   82808:	12800000 	mov	w0, #0xffffffff            	// #-1
   8280c:	1400000f 	b	82848 <CEcoMemoryManager1_4D656D31Factory_Alloc+0x30c>
   82810:	f94027a0 	ldr	x0, [x29, #72]
   82814:	f9400000 	ldr	x0, [x0]
   82818:	f9400003 	ldr	x3, [x0]
   8281c:	f94027a0 	ldr	x0, [x29, #72]
   82820:	f9400fa2 	ldr	x2, [x29, #24]
   82824:	f94013a1 	ldr	x1, [x29, #32]
   82828:	d63f0060 	blr	x3
   8282c:	7900afa0 	strh	w0, [x29, #86]
   82830:	f94027a0 	ldr	x0, [x29, #72]
   82834:	f9400000 	ldr	x0, [x0]
   82838:	f9400801 	ldr	x1, [x0, #16]
   8283c:	f94027a0 	ldr	x0, [x29, #72]
   82840:	d63f0020 	blr	x1
   82844:	79c0afa0 	ldrsh	w0, [x29, #86]
   82848:	a8c67bfd 	ldp	x29, x30, [sp], #96
   8284c:	d65f03c0 	ret

0000000000082850 <CEcoMemoryManager1_4D656D31Factory_get_Name>:
   82850:	d10083ff 	sub	sp, sp, #0x20
   82854:	f90007e0 	str	x0, [sp, #8]
   82858:	f94007e0 	ldr	x0, [sp, #8]
   8285c:	f9000fe0 	str	x0, [sp, #24]
   82860:	f94007e0 	ldr	x0, [sp, #8]
   82864:	f100001f 	cmp	x0, #0x0
   82868:	54000061 	b.ne	82874 <CEcoMemoryManager1_4D656D31Factory_get_Name+0x24>  // b.any
   8286c:	d2800000 	mov	x0, #0x0                   	// #0
   82870:	14000003 	b	8287c <CEcoMemoryManager1_4D656D31Factory_get_Name+0x2c>
   82874:	f9400fe0 	ldr	x0, [sp, #24]
   82878:	91008000 	add	x0, x0, #0x20
   8287c:	910083ff 	add	sp, sp, #0x20
   82880:	d65f03c0 	ret

0000000000082884 <CEcoMemoryManager1_4D656D31Factory_get_Version>:
   82884:	d10083ff 	sub	sp, sp, #0x20
   82888:	f90007e0 	str	x0, [sp, #8]
   8288c:	f94007e0 	ldr	x0, [sp, #8]
   82890:	f9000fe0 	str	x0, [sp, #24]
   82894:	f94007e0 	ldr	x0, [sp, #8]
   82898:	f100001f 	cmp	x0, #0x0
   8289c:	54000061 	b.ne	828a8 <CEcoMemoryManager1_4D656D31Factory_get_Version+0x24>  // b.any
   828a0:	d2800000 	mov	x0, #0x0                   	// #0
   828a4:	14000003 	b	828b0 <CEcoMemoryManager1_4D656D31Factory_get_Version+0x2c>
   828a8:	f9400fe0 	ldr	x0, [sp, #24]
   828ac:	91018000 	add	x0, x0, #0x60
   828b0:	910083ff 	add	sp, sp, #0x20
   828b4:	d65f03c0 	ret

00000000000828b8 <CEcoMemoryManager1_4D656D31Factory_get_Manufacturer>:
   828b8:	d10083ff 	sub	sp, sp, #0x20
   828bc:	f90007e0 	str	x0, [sp, #8]
   828c0:	f94007e0 	ldr	x0, [sp, #8]
   828c4:	f9000fe0 	str	x0, [sp, #24]
   828c8:	f94007e0 	ldr	x0, [sp, #8]
   828cc:	f100001f 	cmp	x0, #0x0
   828d0:	54000061 	b.ne	828dc <CEcoMemoryManager1_4D656D31Factory_get_Manufacturer+0x24>  // b.any
   828d4:	d2800000 	mov	x0, #0x0                   	// #0
   828d8:	14000003 	b	828e4 <CEcoMemoryManager1_4D656D31Factory_get_Manufacturer+0x2c>
   828dc:	f9400fe0 	ldr	x0, [sp, #24]
   828e0:	9101c000 	add	x0, x0, #0x70
   828e4:	910083ff 	add	sp, sp, #0x20
   828e8:	d65f03c0 	ret

00000000000828ec <CEcoMemoryManager1_4D656D31_QueryInterface>:
   828ec:	a9bc7bfd 	stp	x29, x30, [sp, #-64]!
   828f0:	910003fd 	mov	x29, sp
   828f4:	f90017a0 	str	x0, [x29, #40]
   828f8:	f90013a1 	str	x1, [x29, #32]
   828fc:	f9000fa2 	str	x2, [x29, #24]
   82900:	f94017a0 	ldr	x0, [x29, #40]
   82904:	f9001fa0 	str	x0, [x29, #56]
   82908:	f94017a0 	ldr	x0, [x29, #40]
   8290c:	f100001f 	cmp	x0, #0x0
   82910:	54000080 	b.eq	82920 <CEcoMemoryManager1_4D656D31_QueryInterface+0x34>  // b.none
   82914:	f9400fa0 	ldr	x0, [x29, #24]
   82918:	f100001f 	cmp	x0, #0x0
   8291c:	54000061 	b.ne	82928 <CEcoMemoryManager1_4D656D31_QueryInterface+0x3c>  // b.any
   82920:	12800000 	mov	w0, #0xffffffff            	// #-1
   82924:	140001cf 	b	83060 <CEcoMemoryManager1_4D656D31_QueryInterface+0x774>
   82928:	f94013a0 	ldr	x0, [x29, #32]
   8292c:	39400001 	ldrb	w1, [x0]
   82930:	90000460 	adrp	x0, 10e000 <ECO_CGI_1_PIXEL_VALIDITY_FLAG_e>
   82934:	910fe000 	add	x0, x0, #0x3f8
   82938:	39400000 	ldrb	w0, [x0]
   8293c:	6b00003f 	cmp	w1, w0
   82940:	54001241 	b.ne	82b88 <CEcoMemoryManager1_4D656D31_QueryInterface+0x29c>  // b.any
   82944:	f94013a0 	ldr	x0, [x29, #32]
   82948:	91000400 	add	x0, x0, #0x1
   8294c:	39400001 	ldrb	w1, [x0]
   82950:	90000460 	adrp	x0, 10e000 <ECO_CGI_1_PIXEL_VALIDITY_FLAG_e>
   82954:	910fe400 	add	x0, x0, #0x3f9
   82958:	39400000 	ldrb	w0, [x0]
   8295c:	6b00003f 	cmp	w1, w0
   82960:	54001141 	b.ne	82b88 <CEcoMemoryManager1_4D656D31_QueryInterface+0x29c>  // b.any
   82964:	f94013a0 	ldr	x0, [x29, #32]
   82968:	91000800 	add	x0, x0, #0x2
   8296c:	39400001 	ldrb	w1, [x0]
   82970:	90000460 	adrp	x0, 10e000 <ECO_CGI_1_PIXEL_VALIDITY_FLAG_e>
   82974:	910fe800 	add	x0, x0, #0x3fa
   82978:	39400000 	ldrb	w0, [x0]
   8297c:	6b00003f 	cmp	w1, w0
   82980:	54001041 	b.ne	82b88 <CEcoMemoryManager1_4D656D31_QueryInterface+0x29c>  // b.any
   82984:	f94013a0 	ldr	x0, [x29, #32]
   82988:	91000c00 	add	x0, x0, #0x3
   8298c:	39400001 	ldrb	w1, [x0]
   82990:	90000460 	adrp	x0, 10e000 <ECO_CGI_1_PIXEL_VALIDITY_FLAG_e>
   82994:	910fec00 	add	x0, x0, #0x3fb
   82998:	39400000 	ldrb	w0, [x0]
   8299c:	6b00003f 	cmp	w1, w0
   829a0:	54000f41 	b.ne	82b88 <CEcoMemoryManager1_4D656D31_QueryInterface+0x29c>  // b.any
   829a4:	f94013a0 	ldr	x0, [x29, #32]
   829a8:	91001000 	add	x0, x0, #0x4
   829ac:	39400001 	ldrb	w1, [x0]
   829b0:	90000460 	adrp	x0, 10e000 <ECO_CGI_1_PIXEL_VALIDITY_FLAG_e>
   829b4:	910ff000 	add	x0, x0, #0x3fc
   829b8:	39400000 	ldrb	w0, [x0]
   829bc:	6b00003f 	cmp	w1, w0
   829c0:	54000e41 	b.ne	82b88 <CEcoMemoryManager1_4D656D31_QueryInterface+0x29c>  // b.any
   829c4:	f94013a0 	ldr	x0, [x29, #32]
   829c8:	91001400 	add	x0, x0, #0x5
   829cc:	39400001 	ldrb	w1, [x0]
   829d0:	90000460 	adrp	x0, 10e000 <ECO_CGI_1_PIXEL_VALIDITY_FLAG_e>
   829d4:	910ff400 	add	x0, x0, #0x3fd
   829d8:	39400000 	ldrb	w0, [x0]
   829dc:	6b00003f 	cmp	w1, w0
   829e0:	54000d41 	b.ne	82b88 <CEcoMemoryManager1_4D656D31_QueryInterface+0x29c>  // b.any
   829e4:	f94013a0 	ldr	x0, [x29, #32]
   829e8:	91001800 	add	x0, x0, #0x6
   829ec:	39400001 	ldrb	w1, [x0]
   829f0:	90000460 	adrp	x0, 10e000 <ECO_CGI_1_PIXEL_VALIDITY_FLAG_e>
   829f4:	910ff800 	add	x0, x0, #0x3fe
   829f8:	39400000 	ldrb	w0, [x0]
   829fc:	6b00003f 	cmp	w1, w0
   82a00:	54000c41 	b.ne	82b88 <CEcoMemoryManager1_4D656D31_QueryInterface+0x29c>  // b.any
   82a04:	f94013a0 	ldr	x0, [x29, #32]
   82a08:	91001c00 	add	x0, x0, #0x7
   82a0c:	39400001 	ldrb	w1, [x0]
   82a10:	90000460 	adrp	x0, 10e000 <ECO_CGI_1_PIXEL_VALIDITY_FLAG_e>
   82a14:	910ffc00 	add	x0, x0, #0x3ff
   82a18:	39400000 	ldrb	w0, [x0]
   82a1c:	6b00003f 	cmp	w1, w0
   82a20:	54000b41 	b.ne	82b88 <CEcoMemoryManager1_4D656D31_QueryInterface+0x29c>  // b.any
   82a24:	f94013a0 	ldr	x0, [x29, #32]
   82a28:	91002000 	add	x0, x0, #0x8
   82a2c:	39400001 	ldrb	w1, [x0]
   82a30:	90000460 	adrp	x0, 10e000 <ECO_CGI_1_PIXEL_VALIDITY_FLAG_e>
   82a34:	91100000 	add	x0, x0, #0x400
   82a38:	39400000 	ldrb	w0, [x0]
   82a3c:	6b00003f 	cmp	w1, w0
   82a40:	54000a41 	b.ne	82b88 <CEcoMemoryManager1_4D656D31_QueryInterface+0x29c>  // b.any
   82a44:	f94013a0 	ldr	x0, [x29, #32]
   82a48:	91002400 	add	x0, x0, #0x9
   82a4c:	39400001 	ldrb	w1, [x0]
   82a50:	90000460 	adrp	x0, 10e000 <ECO_CGI_1_PIXEL_VALIDITY_FLAG_e>
   82a54:	91100400 	add	x0, x0, #0x401
   82a58:	39400000 	ldrb	w0, [x0]
   82a5c:	6b00003f 	cmp	w1, w0
   82a60:	54000941 	b.ne	82b88 <CEcoMemoryManager1_4D656D31_QueryInterface+0x29c>  // b.any
   82a64:	f94013a0 	ldr	x0, [x29, #32]
   82a68:	91002800 	add	x0, x0, #0xa
   82a6c:	39400001 	ldrb	w1, [x0]
   82a70:	90000460 	adrp	x0, 10e000 <ECO_CGI_1_PIXEL_VALIDITY_FLAG_e>
   82a74:	91100800 	add	x0, x0, #0x402
   82a78:	39400000 	ldrb	w0, [x0]
   82a7c:	6b00003f 	cmp	w1, w0
   82a80:	54000841 	b.ne	82b88 <CEcoMemoryManager1_4D656D31_QueryInterface+0x29c>  // b.any
   82a84:	f94013a0 	ldr	x0, [x29, #32]
   82a88:	91002c00 	add	x0, x0, #0xb
   82a8c:	39400001 	ldrb	w1, [x0]
   82a90:	90000460 	adrp	x0, 10e000 <ECO_CGI_1_PIXEL_VALIDITY_FLAG_e>
   82a94:	91100c00 	add	x0, x0, #0x403
   82a98:	39400000 	ldrb	w0, [x0]
   82a9c:	6b00003f 	cmp	w1, w0
   82aa0:	54000741 	b.ne	82b88 <CEcoMemoryManager1_4D656D31_QueryInterface+0x29c>  // b.any
   82aa4:	f94013a0 	ldr	x0, [x29, #32]
   82aa8:	91003000 	add	x0, x0, #0xc
   82aac:	39400001 	ldrb	w1, [x0]
   82ab0:	90000460 	adrp	x0, 10e000 <ECO_CGI_1_PIXEL_VALIDITY_FLAG_e>
   82ab4:	91101000 	add	x0, x0, #0x404
   82ab8:	39400000 	ldrb	w0, [x0]
   82abc:	6b00003f 	cmp	w1, w0
   82ac0:	54000641 	b.ne	82b88 <CEcoMemoryManager1_4D656D31_QueryInterface+0x29c>  // b.any
   82ac4:	f94013a0 	ldr	x0, [x29, #32]
   82ac8:	91003400 	add	x0, x0, #0xd
   82acc:	39400001 	ldrb	w1, [x0]
   82ad0:	90000460 	adrp	x0, 10e000 <ECO_CGI_1_PIXEL_VALIDITY_FLAG_e>
   82ad4:	91101400 	add	x0, x0, #0x405
   82ad8:	39400000 	ldrb	w0, [x0]
   82adc:	6b00003f 	cmp	w1, w0
   82ae0:	54000541 	b.ne	82b88 <CEcoMemoryManager1_4D656D31_QueryInterface+0x29c>  // b.any
   82ae4:	f94013a0 	ldr	x0, [x29, #32]
   82ae8:	91003800 	add	x0, x0, #0xe
   82aec:	39400001 	ldrb	w1, [x0]
   82af0:	90000460 	adrp	x0, 10e000 <ECO_CGI_1_PIXEL_VALIDITY_FLAG_e>
   82af4:	91101800 	add	x0, x0, #0x406
   82af8:	39400000 	ldrb	w0, [x0]
   82afc:	6b00003f 	cmp	w1, w0
   82b00:	54000441 	b.ne	82b88 <CEcoMemoryManager1_4D656D31_QueryInterface+0x29c>  // b.any
   82b04:	f94013a0 	ldr	x0, [x29, #32]
   82b08:	91003c00 	add	x0, x0, #0xf
   82b0c:	39400001 	ldrb	w1, [x0]
   82b10:	90000460 	adrp	x0, 10e000 <ECO_CGI_1_PIXEL_VALIDITY_FLAG_e>
   82b14:	91101c00 	add	x0, x0, #0x407
   82b18:	39400000 	ldrb	w0, [x0]
   82b1c:	6b00003f 	cmp	w1, w0
   82b20:	54000341 	b.ne	82b88 <CEcoMemoryManager1_4D656D31_QueryInterface+0x29c>  // b.any
   82b24:	f94013a0 	ldr	x0, [x29, #32]
   82b28:	91004000 	add	x0, x0, #0x10
   82b2c:	39400001 	ldrb	w1, [x0]
   82b30:	90000460 	adrp	x0, 10e000 <ECO_CGI_1_PIXEL_VALIDITY_FLAG_e>
   82b34:	91102000 	add	x0, x0, #0x408
   82b38:	39400000 	ldrb	w0, [x0]
   82b3c:	6b00003f 	cmp	w1, w0
   82b40:	54000241 	b.ne	82b88 <CEcoMemoryManager1_4D656D31_QueryInterface+0x29c>  // b.any
   82b44:	f94013a0 	ldr	x0, [x29, #32]
   82b48:	91004400 	add	x0, x0, #0x11
   82b4c:	39400001 	ldrb	w1, [x0]
   82b50:	90000460 	adrp	x0, 10e000 <ECO_CGI_1_PIXEL_VALIDITY_FLAG_e>
   82b54:	91102400 	add	x0, x0, #0x409
   82b58:	39400000 	ldrb	w0, [x0]
   82b5c:	6b00003f 	cmp	w1, w0
   82b60:	54000141 	b.ne	82b88 <CEcoMemoryManager1_4D656D31_QueryInterface+0x29c>  // b.any
   82b64:	f9401fa1 	ldr	x1, [x29, #56]
   82b68:	f9400fa0 	ldr	x0, [x29, #24]
   82b6c:	f9000001 	str	x1, [x0]
   82b70:	f9401fa0 	ldr	x0, [x29, #56]
   82b74:	f9400000 	ldr	x0, [x0]
   82b78:	f9400401 	ldr	x1, [x0, #8]
   82b7c:	f9401fa0 	ldr	x0, [x29, #56]
   82b80:	d63f0020 	blr	x1
   82b84:	14000136 	b	8305c <CEcoMemoryManager1_4D656D31_QueryInterface+0x770>
   82b88:	f94013a0 	ldr	x0, [x29, #32]
   82b8c:	39400001 	ldrb	w1, [x0]
   82b90:	90000460 	adrp	x0, 10e000 <ECO_CGI_1_PIXEL_VALIDITY_FLAG_e>
   82b94:	910f8000 	add	x0, x0, #0x3e0
   82b98:	39400000 	ldrb	w0, [x0]
   82b9c:	6b00003f 	cmp	w1, w0
   82ba0:	54001261 	b.ne	82dec <CEcoMemoryManager1_4D656D31_QueryInterface+0x500>  // b.any
   82ba4:	f94013a0 	ldr	x0, [x29, #32]
   82ba8:	91000400 	add	x0, x0, #0x1
   82bac:	39400001 	ldrb	w1, [x0]
   82bb0:	90000460 	adrp	x0, 10e000 <ECO_CGI_1_PIXEL_VALIDITY_FLAG_e>
   82bb4:	910f8400 	add	x0, x0, #0x3e1
   82bb8:	39400000 	ldrb	w0, [x0]
   82bbc:	6b00003f 	cmp	w1, w0
   82bc0:	54001161 	b.ne	82dec <CEcoMemoryManager1_4D656D31_QueryInterface+0x500>  // b.any
   82bc4:	f94013a0 	ldr	x0, [x29, #32]
   82bc8:	91000800 	add	x0, x0, #0x2
   82bcc:	39400001 	ldrb	w1, [x0]
   82bd0:	90000460 	adrp	x0, 10e000 <ECO_CGI_1_PIXEL_VALIDITY_FLAG_e>
   82bd4:	910f8800 	add	x0, x0, #0x3e2
   82bd8:	39400000 	ldrb	w0, [x0]
   82bdc:	6b00003f 	cmp	w1, w0
   82be0:	54001061 	b.ne	82dec <CEcoMemoryManager1_4D656D31_QueryInterface+0x500>  // b.any
   82be4:	f94013a0 	ldr	x0, [x29, #32]
   82be8:	91000c00 	add	x0, x0, #0x3
   82bec:	39400001 	ldrb	w1, [x0]
   82bf0:	90000460 	adrp	x0, 10e000 <ECO_CGI_1_PIXEL_VALIDITY_FLAG_e>
   82bf4:	910f8c00 	add	x0, x0, #0x3e3
   82bf8:	39400000 	ldrb	w0, [x0]
   82bfc:	6b00003f 	cmp	w1, w0
   82c00:	54000f61 	b.ne	82dec <CEcoMemoryManager1_4D656D31_QueryInterface+0x500>  // b.any
   82c04:	f94013a0 	ldr	x0, [x29, #32]
   82c08:	91001000 	add	x0, x0, #0x4
   82c0c:	39400001 	ldrb	w1, [x0]
   82c10:	90000460 	adrp	x0, 10e000 <ECO_CGI_1_PIXEL_VALIDITY_FLAG_e>
   82c14:	910f9000 	add	x0, x0, #0x3e4
   82c18:	39400000 	ldrb	w0, [x0]
   82c1c:	6b00003f 	cmp	w1, w0
   82c20:	54000e61 	b.ne	82dec <CEcoMemoryManager1_4D656D31_QueryInterface+0x500>  // b.any
   82c24:	f94013a0 	ldr	x0, [x29, #32]
   82c28:	91001400 	add	x0, x0, #0x5
   82c2c:	39400001 	ldrb	w1, [x0]
   82c30:	90000460 	adrp	x0, 10e000 <ECO_CGI_1_PIXEL_VALIDITY_FLAG_e>
   82c34:	910f9400 	add	x0, x0, #0x3e5
   82c38:	39400000 	ldrb	w0, [x0]
   82c3c:	6b00003f 	cmp	w1, w0
   82c40:	54000d61 	b.ne	82dec <CEcoMemoryManager1_4D656D31_QueryInterface+0x500>  // b.any
   82c44:	f94013a0 	ldr	x0, [x29, #32]
   82c48:	91001800 	add	x0, x0, #0x6
   82c4c:	39400001 	ldrb	w1, [x0]
   82c50:	90000460 	adrp	x0, 10e000 <ECO_CGI_1_PIXEL_VALIDITY_FLAG_e>
   82c54:	910f9800 	add	x0, x0, #0x3e6
   82c58:	39400000 	ldrb	w0, [x0]
   82c5c:	6b00003f 	cmp	w1, w0
   82c60:	54000c61 	b.ne	82dec <CEcoMemoryManager1_4D656D31_QueryInterface+0x500>  // b.any
   82c64:	f94013a0 	ldr	x0, [x29, #32]
   82c68:	91001c00 	add	x0, x0, #0x7
   82c6c:	39400001 	ldrb	w1, [x0]
   82c70:	90000460 	adrp	x0, 10e000 <ECO_CGI_1_PIXEL_VALIDITY_FLAG_e>
   82c74:	910f9c00 	add	x0, x0, #0x3e7
   82c78:	39400000 	ldrb	w0, [x0]
   82c7c:	6b00003f 	cmp	w1, w0
   82c80:	54000b61 	b.ne	82dec <CEcoMemoryManager1_4D656D31_QueryInterface+0x500>  // b.any
   82c84:	f94013a0 	ldr	x0, [x29, #32]
   82c88:	91002000 	add	x0, x0, #0x8
   82c8c:	39400001 	ldrb	w1, [x0]
   82c90:	90000460 	adrp	x0, 10e000 <ECO_CGI_1_PIXEL_VALIDITY_FLAG_e>
   82c94:	910fa000 	add	x0, x0, #0x3e8
   82c98:	39400000 	ldrb	w0, [x0]
   82c9c:	6b00003f 	cmp	w1, w0
   82ca0:	54000a61 	b.ne	82dec <CEcoMemoryManager1_4D656D31_QueryInterface+0x500>  // b.any
   82ca4:	f94013a0 	ldr	x0, [x29, #32]
   82ca8:	91002400 	add	x0, x0, #0x9
   82cac:	39400001 	ldrb	w1, [x0]
   82cb0:	90000460 	adrp	x0, 10e000 <ECO_CGI_1_PIXEL_VALIDITY_FLAG_e>
   82cb4:	910fa400 	add	x0, x0, #0x3e9
   82cb8:	39400000 	ldrb	w0, [x0]
   82cbc:	6b00003f 	cmp	w1, w0
   82cc0:	54000961 	b.ne	82dec <CEcoMemoryManager1_4D656D31_QueryInterface+0x500>  // b.any
   82cc4:	f94013a0 	ldr	x0, [x29, #32]
   82cc8:	91002800 	add	x0, x0, #0xa
   82ccc:	39400001 	ldrb	w1, [x0]
   82cd0:	90000460 	adrp	x0, 10e000 <ECO_CGI_1_PIXEL_VALIDITY_FLAG_e>
   82cd4:	910fa800 	add	x0, x0, #0x3ea
   82cd8:	39400000 	ldrb	w0, [x0]
   82cdc:	6b00003f 	cmp	w1, w0
   82ce0:	54000861 	b.ne	82dec <CEcoMemoryManager1_4D656D31_QueryInterface+0x500>  // b.any
   82ce4:	f94013a0 	ldr	x0, [x29, #32]
   82ce8:	91002c00 	add	x0, x0, #0xb
   82cec:	39400001 	ldrb	w1, [x0]
   82cf0:	90000460 	adrp	x0, 10e000 <ECO_CGI_1_PIXEL_VALIDITY_FLAG_e>
   82cf4:	910fac00 	add	x0, x0, #0x3eb
   82cf8:	39400000 	ldrb	w0, [x0]
   82cfc:	6b00003f 	cmp	w1, w0
   82d00:	54000761 	b.ne	82dec <CEcoMemoryManager1_4D656D31_QueryInterface+0x500>  // b.any
   82d04:	f94013a0 	ldr	x0, [x29, #32]
   82d08:	91003000 	add	x0, x0, #0xc
   82d0c:	39400001 	ldrb	w1, [x0]
   82d10:	90000460 	adrp	x0, 10e000 <ECO_CGI_1_PIXEL_VALIDITY_FLAG_e>
   82d14:	910fb000 	add	x0, x0, #0x3ec
   82d18:	39400000 	ldrb	w0, [x0]
   82d1c:	6b00003f 	cmp	w1, w0
   82d20:	54000661 	b.ne	82dec <CEcoMemoryManager1_4D656D31_QueryInterface+0x500>  // b.any
   82d24:	f94013a0 	ldr	x0, [x29, #32]
   82d28:	91003400 	add	x0, x0, #0xd
   82d2c:	39400001 	ldrb	w1, [x0]
   82d30:	90000460 	adrp	x0, 10e000 <ECO_CGI_1_PIXEL_VALIDITY_FLAG_e>
   82d34:	910fb400 	add	x0, x0, #0x3ed
   82d38:	39400000 	ldrb	w0, [x0]
   82d3c:	6b00003f 	cmp	w1, w0
   82d40:	54000561 	b.ne	82dec <CEcoMemoryManager1_4D656D31_QueryInterface+0x500>  // b.any
   82d44:	f94013a0 	ldr	x0, [x29, #32]
   82d48:	91003800 	add	x0, x0, #0xe
   82d4c:	39400001 	ldrb	w1, [x0]
   82d50:	90000460 	adrp	x0, 10e000 <ECO_CGI_1_PIXEL_VALIDITY_FLAG_e>
   82d54:	910fb800 	add	x0, x0, #0x3ee
   82d58:	39400000 	ldrb	w0, [x0]
   82d5c:	6b00003f 	cmp	w1, w0
   82d60:	54000461 	b.ne	82dec <CEcoMemoryManager1_4D656D31_QueryInterface+0x500>  // b.any
   82d64:	f94013a0 	ldr	x0, [x29, #32]
   82d68:	91003c00 	add	x0, x0, #0xf
   82d6c:	39400001 	ldrb	w1, [x0]
   82d70:	90000460 	adrp	x0, 10e000 <ECO_CGI_1_PIXEL_VALIDITY_FLAG_e>
   82d74:	910fbc00 	add	x0, x0, #0x3ef
   82d78:	39400000 	ldrb	w0, [x0]
   82d7c:	6b00003f 	cmp	w1, w0
   82d80:	54000361 	b.ne	82dec <CEcoMemoryManager1_4D656D31_QueryInterface+0x500>  // b.any
   82d84:	f94013a0 	ldr	x0, [x29, #32]
   82d88:	91004000 	add	x0, x0, #0x10
   82d8c:	39400001 	ldrb	w1, [x0]
   82d90:	90000460 	adrp	x0, 10e000 <ECO_CGI_1_PIXEL_VALIDITY_FLAG_e>
   82d94:	910fc000 	add	x0, x0, #0x3f0
   82d98:	39400000 	ldrb	w0, [x0]
   82d9c:	6b00003f 	cmp	w1, w0
   82da0:	54000261 	b.ne	82dec <CEcoMemoryManager1_4D656D31_QueryInterface+0x500>  // b.any
   82da4:	f94013a0 	ldr	x0, [x29, #32]
   82da8:	91004400 	add	x0, x0, #0x11
   82dac:	39400001 	ldrb	w1, [x0]
   82db0:	90000460 	adrp	x0, 10e000 <ECO_CGI_1_PIXEL_VALIDITY_FLAG_e>
   82db4:	910fc400 	add	x0, x0, #0x3f1
   82db8:	39400000 	ldrb	w0, [x0]
   82dbc:	6b00003f 	cmp	w1, w0
   82dc0:	54000161 	b.ne	82dec <CEcoMemoryManager1_4D656D31_QueryInterface+0x500>  // b.any
   82dc4:	f9401fa0 	ldr	x0, [x29, #56]
   82dc8:	91002001 	add	x1, x0, #0x8
   82dcc:	f9400fa0 	ldr	x0, [x29, #24]
   82dd0:	f9000001 	str	x1, [x0]
   82dd4:	f9401fa0 	ldr	x0, [x29, #56]
   82dd8:	f9400000 	ldr	x0, [x0]
   82ddc:	f9400401 	ldr	x1, [x0, #8]
   82de0:	f9401fa0 	ldr	x0, [x29, #56]
   82de4:	d63f0020 	blr	x1
   82de8:	1400009d 	b	8305c <CEcoMemoryManager1_4D656D31_QueryInterface+0x770>
   82dec:	f94013a0 	ldr	x0, [x29, #32]
   82df0:	39400001 	ldrb	w1, [x0]
   82df4:	90000460 	adrp	x0, 10e000 <ECO_CGI_1_PIXEL_VALIDITY_FLAG_e>
   82df8:	910e0000 	add	x0, x0, #0x380
   82dfc:	39400000 	ldrb	w0, [x0]
   82e00:	6b00003f 	cmp	w1, w0
   82e04:	54001241 	b.ne	8304c <CEcoMemoryManager1_4D656D31_QueryInterface+0x760>  // b.any
   82e08:	f94013a0 	ldr	x0, [x29, #32]
   82e0c:	91000400 	add	x0, x0, #0x1
   82e10:	39400001 	ldrb	w1, [x0]
   82e14:	90000460 	adrp	x0, 10e000 <ECO_CGI_1_PIXEL_VALIDITY_FLAG_e>
   82e18:	910e0400 	add	x0, x0, #0x381
   82e1c:	39400000 	ldrb	w0, [x0]
   82e20:	6b00003f 	cmp	w1, w0
   82e24:	54001141 	b.ne	8304c <CEcoMemoryManager1_4D656D31_QueryInterface+0x760>  // b.any
   82e28:	f94013a0 	ldr	x0, [x29, #32]
   82e2c:	91000800 	add	x0, x0, #0x2
   82e30:	39400001 	ldrb	w1, [x0]
   82e34:	90000460 	adrp	x0, 10e000 <ECO_CGI_1_PIXEL_VALIDITY_FLAG_e>
   82e38:	910e0800 	add	x0, x0, #0x382
   82e3c:	39400000 	ldrb	w0, [x0]
   82e40:	6b00003f 	cmp	w1, w0
   82e44:	54001041 	b.ne	8304c <CEcoMemoryManager1_4D656D31_QueryInterface+0x760>  // b.any
   82e48:	f94013a0 	ldr	x0, [x29, #32]
   82e4c:	91000c00 	add	x0, x0, #0x3
   82e50:	39400001 	ldrb	w1, [x0]
   82e54:	90000460 	adrp	x0, 10e000 <ECO_CGI_1_PIXEL_VALIDITY_FLAG_e>
   82e58:	910e0c00 	add	x0, x0, #0x383
   82e5c:	39400000 	ldrb	w0, [x0]
   82e60:	6b00003f 	cmp	w1, w0
   82e64:	54000f41 	b.ne	8304c <CEcoMemoryManager1_4D656D31_QueryInterface+0x760>  // b.any
   82e68:	f94013a0 	ldr	x0, [x29, #32]
   82e6c:	91001000 	add	x0, x0, #0x4
   82e70:	39400001 	ldrb	w1, [x0]
   82e74:	90000460 	adrp	x0, 10e000 <ECO_CGI_1_PIXEL_VALIDITY_FLAG_e>
   82e78:	910e1000 	add	x0, x0, #0x384
   82e7c:	39400000 	ldrb	w0, [x0]
   82e80:	6b00003f 	cmp	w1, w0
   82e84:	54000e41 	b.ne	8304c <CEcoMemoryManager1_4D656D31_QueryInterface+0x760>  // b.any
   82e88:	f94013a0 	ldr	x0, [x29, #32]
   82e8c:	91001400 	add	x0, x0, #0x5
   82e90:	39400001 	ldrb	w1, [x0]
   82e94:	90000460 	adrp	x0, 10e000 <ECO_CGI_1_PIXEL_VALIDITY_FLAG_e>
   82e98:	910e1400 	add	x0, x0, #0x385
   82e9c:	39400000 	ldrb	w0, [x0]
   82ea0:	6b00003f 	cmp	w1, w0
   82ea4:	54000d41 	b.ne	8304c <CEcoMemoryManager1_4D656D31_QueryInterface+0x760>  // b.any
   82ea8:	f94013a0 	ldr	x0, [x29, #32]
   82eac:	91001800 	add	x0, x0, #0x6
   82eb0:	39400001 	ldrb	w1, [x0]
   82eb4:	90000460 	adrp	x0, 10e000 <ECO_CGI_1_PIXEL_VALIDITY_FLAG_e>
   82eb8:	910e1800 	add	x0, x0, #0x386
   82ebc:	39400000 	ldrb	w0, [x0]
   82ec0:	6b00003f 	cmp	w1, w0
   82ec4:	54000c41 	b.ne	8304c <CEcoMemoryManager1_4D656D31_QueryInterface+0x760>  // b.any
   82ec8:	f94013a0 	ldr	x0, [x29, #32]
   82ecc:	91001c00 	add	x0, x0, #0x7
   82ed0:	39400001 	ldrb	w1, [x0]
   82ed4:	90000460 	adrp	x0, 10e000 <ECO_CGI_1_PIXEL_VALIDITY_FLAG_e>
   82ed8:	910e1c00 	add	x0, x0, #0x387
   82edc:	39400000 	ldrb	w0, [x0]
   82ee0:	6b00003f 	cmp	w1, w0
   82ee4:	54000b41 	b.ne	8304c <CEcoMemoryManager1_4D656D31_QueryInterface+0x760>  // b.any
   82ee8:	f94013a0 	ldr	x0, [x29, #32]
   82eec:	91002000 	add	x0, x0, #0x8
   82ef0:	39400001 	ldrb	w1, [x0]
   82ef4:	90000460 	adrp	x0, 10e000 <ECO_CGI_1_PIXEL_VALIDITY_FLAG_e>
   82ef8:	910e2000 	add	x0, x0, #0x388
   82efc:	39400000 	ldrb	w0, [x0]
   82f00:	6b00003f 	cmp	w1, w0
   82f04:	54000a41 	b.ne	8304c <CEcoMemoryManager1_4D656D31_QueryInterface+0x760>  // b.any
   82f08:	f94013a0 	ldr	x0, [x29, #32]
   82f0c:	91002400 	add	x0, x0, #0x9
   82f10:	39400001 	ldrb	w1, [x0]
   82f14:	90000460 	adrp	x0, 10e000 <ECO_CGI_1_PIXEL_VALIDITY_FLAG_e>
   82f18:	910e2400 	add	x0, x0, #0x389
   82f1c:	39400000 	ldrb	w0, [x0]
   82f20:	6b00003f 	cmp	w1, w0
   82f24:	54000941 	b.ne	8304c <CEcoMemoryManager1_4D656D31_QueryInterface+0x760>  // b.any
   82f28:	f94013a0 	ldr	x0, [x29, #32]
   82f2c:	91002800 	add	x0, x0, #0xa
   82f30:	39400001 	ldrb	w1, [x0]
   82f34:	90000460 	adrp	x0, 10e000 <ECO_CGI_1_PIXEL_VALIDITY_FLAG_e>
   82f38:	910e2800 	add	x0, x0, #0x38a
   82f3c:	39400000 	ldrb	w0, [x0]
   82f40:	6b00003f 	cmp	w1, w0
   82f44:	54000841 	b.ne	8304c <CEcoMemoryManager1_4D656D31_QueryInterface+0x760>  // b.any
   82f48:	f94013a0 	ldr	x0, [x29, #32]
   82f4c:	91002c00 	add	x0, x0, #0xb
   82f50:	39400001 	ldrb	w1, [x0]
   82f54:	90000460 	adrp	x0, 10e000 <ECO_CGI_1_PIXEL_VALIDITY_FLAG_e>
   82f58:	910e2c00 	add	x0, x0, #0x38b
   82f5c:	39400000 	ldrb	w0, [x0]
   82f60:	6b00003f 	cmp	w1, w0
   82f64:	54000741 	b.ne	8304c <CEcoMemoryManager1_4D656D31_QueryInterface+0x760>  // b.any
   82f68:	f94013a0 	ldr	x0, [x29, #32]
   82f6c:	91003000 	add	x0, x0, #0xc
   82f70:	39400001 	ldrb	w1, [x0]
   82f74:	90000460 	adrp	x0, 10e000 <ECO_CGI_1_PIXEL_VALIDITY_FLAG_e>
   82f78:	910e3000 	add	x0, x0, #0x38c
   82f7c:	39400000 	ldrb	w0, [x0]
   82f80:	6b00003f 	cmp	w1, w0
   82f84:	54000641 	b.ne	8304c <CEcoMemoryManager1_4D656D31_QueryInterface+0x760>  // b.any
   82f88:	f94013a0 	ldr	x0, [x29, #32]
   82f8c:	91003400 	add	x0, x0, #0xd
   82f90:	39400001 	ldrb	w1, [x0]
   82f94:	90000460 	adrp	x0, 10e000 <ECO_CGI_1_PIXEL_VALIDITY_FLAG_e>
   82f98:	910e3400 	add	x0, x0, #0x38d
   82f9c:	39400000 	ldrb	w0, [x0]
   82fa0:	6b00003f 	cmp	w1, w0
   82fa4:	54000541 	b.ne	8304c <CEcoMemoryManager1_4D656D31_QueryInterface+0x760>  // b.any
   82fa8:	f94013a0 	ldr	x0, [x29, #32]
   82fac:	91003800 	add	x0, x0, #0xe
   82fb0:	39400001 	ldrb	w1, [x0]
   82fb4:	90000460 	adrp	x0, 10e000 <ECO_CGI_1_PIXEL_VALIDITY_FLAG_e>
   82fb8:	910e3800 	add	x0, x0, #0x38e
   82fbc:	39400000 	ldrb	w0, [x0]
   82fc0:	6b00003f 	cmp	w1, w0
   82fc4:	54000441 	b.ne	8304c <CEcoMemoryManager1_4D656D31_QueryInterface+0x760>  // b.any
   82fc8:	f94013a0 	ldr	x0, [x29, #32]
   82fcc:	91003c00 	add	x0, x0, #0xf
   82fd0:	39400001 	ldrb	w1, [x0]
   82fd4:	90000460 	adrp	x0, 10e000 <ECO_CGI_1_PIXEL_VALIDITY_FLAG_e>
   82fd8:	910e3c00 	add	x0, x0, #0x38f
   82fdc:	39400000 	ldrb	w0, [x0]
   82fe0:	6b00003f 	cmp	w1, w0
   82fe4:	54000341 	b.ne	8304c <CEcoMemoryManager1_4D656D31_QueryInterface+0x760>  // b.any
   82fe8:	f94013a0 	ldr	x0, [x29, #32]
   82fec:	91004000 	add	x0, x0, #0x10
   82ff0:	39400001 	ldrb	w1, [x0]
   82ff4:	90000460 	adrp	x0, 10e000 <ECO_CGI_1_PIXEL_VALIDITY_FLAG_e>
   82ff8:	910e4000 	add	x0, x0, #0x390
   82ffc:	39400000 	ldrb	w0, [x0]
   83000:	6b00003f 	cmp	w1, w0
   83004:	54000241 	b.ne	8304c <CEcoMemoryManager1_4D656D31_QueryInterface+0x760>  // b.any
   83008:	f94013a0 	ldr	x0, [x29, #32]
   8300c:	91004400 	add	x0, x0, #0x11
   83010:	39400001 	ldrb	w1, [x0]
   83014:	f0000440 	adrp	x0, 10e000 <ECO_CGI_1_PIXEL_VALIDITY_FLAG_e>
   83018:	910e4400 	add	x0, x0, #0x391
   8301c:	39400000 	ldrb	w0, [x0]
   83020:	6b00003f 	cmp	w1, w0
   83024:	54000141 	b.ne	8304c <CEcoMemoryManager1_4D656D31_QueryInterface+0x760>  // b.any
   83028:	f9401fa1 	ldr	x1, [x29, #56]
   8302c:	f9400fa0 	ldr	x0, [x29, #24]
   83030:	f9000001 	str	x1, [x0]
   83034:	f9401fa0 	ldr	x0, [x29, #56]
   83038:	f9400000 	ldr	x0, [x0]
   8303c:	f9400401 	ldr	x1, [x0, #8]
   83040:	f9401fa0 	ldr	x0, [x29, #56]
   83044:	d63f0020 	blr	x1
   83048:	14000005 	b	8305c <CEcoMemoryManager1_4D656D31_QueryInterface+0x770>
   8304c:	f9400fa0 	ldr	x0, [x29, #24]
   83050:	f900001f 	str	xzr, [x0]
   83054:	12800000 	mov	w0, #0xffffffff            	// #-1
   83058:	14000002 	b	83060 <CEcoMemoryManager1_4D656D31_QueryInterface+0x774>
   8305c:	52800000 	mov	w0, #0x0                   	// #0
   83060:	a8c47bfd 	ldp	x29, x30, [sp], #64
   83064:	d65f03c0 	ret

0000000000083068 <CEcoMemoryManager1_4D656D31_AddRef>:
   83068:	d10083ff 	sub	sp, sp, #0x20
   8306c:	f90007e0 	str	x0, [sp, #8]
   83070:	f94007e0 	ldr	x0, [sp, #8]
   83074:	f9000fe0 	str	x0, [sp, #24]
   83078:	f94007e0 	ldr	x0, [sp, #8]
   8307c:	f100001f 	cmp	x0, #0x0
   83080:	54000061 	b.ne	8308c <CEcoMemoryManager1_4D656D31_AddRef+0x24>  // b.any
   83084:	12800000 	mov	w0, #0xffffffff            	// #-1
   83088:	14000007 	b	830a4 <CEcoMemoryManager1_4D656D31_AddRef+0x3c>
   8308c:	f9400fe0 	ldr	x0, [sp, #24]
   83090:	b9401000 	ldr	w0, [x0, #16]
   83094:	11000402 	add	w2, w0, #0x1
   83098:	f9400fe1 	ldr	x1, [sp, #24]
   8309c:	b9001022 	str	w2, [x1, #16]
   830a0:	d503201f 	nop
   830a4:	910083ff 	add	sp, sp, #0x20
   830a8:	d65f03c0 	ret

00000000000830ac <CEcoMemoryManager1_4D656D31_Release>:
   830ac:	a9bd7bfd 	stp	x29, x30, [sp, #-48]!
   830b0:	910003fd 	mov	x29, sp
   830b4:	f9000fa0 	str	x0, [x29, #24]
   830b8:	f9400fa0 	ldr	x0, [x29, #24]
   830bc:	f90017a0 	str	x0, [x29, #40]
   830c0:	f9400fa0 	ldr	x0, [x29, #24]
   830c4:	f100001f 	cmp	x0, #0x0
   830c8:	54000061 	b.ne	830d4 <CEcoMemoryManager1_4D656D31_Release+0x28>  // b.any
   830cc:	12800000 	mov	w0, #0xffffffff            	// #-1
   830d0:	14000010 	b	83110 <CEcoMemoryManager1_4D656D31_Release+0x64>
   830d4:	f94017a0 	ldr	x0, [x29, #40]
   830d8:	b9401000 	ldr	w0, [x0, #16]
   830dc:	51000401 	sub	w1, w0, #0x1
   830e0:	f94017a0 	ldr	x0, [x29, #40]
   830e4:	b9001001 	str	w1, [x0, #16]
   830e8:	f94017a0 	ldr	x0, [x29, #40]
   830ec:	b9401000 	ldr	w0, [x0, #16]
   830f0:	7100001f 	cmp	w0, #0x0
   830f4:	540000a1 	b.ne	83108 <CEcoMemoryManager1_4D656D31_Release+0x5c>  // b.any
   830f8:	f94017a0 	ldr	x0, [x29, #40]
   830fc:	940000aa 	bl	833a4 <deleteCEcoMemoryManager1_4D656D31>
   83100:	52800000 	mov	w0, #0x0                   	// #0
   83104:	14000003 	b	83110 <CEcoMemoryManager1_4D656D31_Release+0x64>
   83108:	f94017a0 	ldr	x0, [x29, #40]
   8310c:	b9401000 	ldr	w0, [x0, #16]
   83110:	a8c37bfd 	ldp	x29, x30, [sp], #48
   83114:	d65f03c0 	ret

0000000000083118 <CEcoMemoryManager1_4D656D31_Init>:
   83118:	d100c3ff 	sub	sp, sp, #0x30
   8311c:	f9000fe0 	str	x0, [sp, #24]
   83120:	f9000be1 	str	x1, [sp, #16]
   83124:	b9000fe2 	str	w2, [sp, #12]
   83128:	f9400fe0 	ldr	x0, [sp, #24]
   8312c:	f90017e0 	str	x0, [sp, #40]
   83130:	f9400fe0 	ldr	x0, [sp, #24]
   83134:	f100001f 	cmp	x0, #0x0
   83138:	54000061 	b.ne	83144 <CEcoMemoryManager1_4D656D31_Init+0x2c>  // b.any
   8313c:	12800000 	mov	w0, #0xffffffff            	// #-1
   83140:	1400000e 	b	83178 <CEcoMemoryManager1_4D656D31_Init+0x60>
   83144:	f94017e0 	ldr	x0, [sp, #40]
   83148:	f9400be1 	ldr	x1, [sp, #16]
   8314c:	f9002001 	str	x1, [x0, #64]
   83150:	f94017e0 	ldr	x0, [sp, #40]
   83154:	b9400fe1 	ldr	w1, [sp, #12]
   83158:	b9003401 	str	w1, [x0, #52]
   8315c:	b9400fe1 	ldr	w1, [sp, #12]
   83160:	f9400be0 	ldr	x0, [sp, #16]
   83164:	8b000020 	add	x0, x1, x0
   83168:	aa0003e1 	mov	x1, x0
   8316c:	f94017e0 	ldr	x0, [sp, #40]
   83170:	f9002801 	str	x1, [x0, #80]
   83174:	52800000 	mov	w0, #0x0                   	// #0
   83178:	9100c3ff 	add	sp, sp, #0x30
   8317c:	d65f03c0 	ret

0000000000083180 <CEcoMemoryManager1_4D656D31_get_Status>:
   83180:	d10083ff 	sub	sp, sp, #0x20
   83184:	f90007e0 	str	x0, [sp, #8]
   83188:	f90003e1 	str	x1, [sp]
   8318c:	f94007e0 	ldr	x0, [sp, #8]
   83190:	f9000fe0 	str	x0, [sp, #24]
   83194:	f94007e0 	ldr	x0, [sp, #8]
   83198:	f100001f 	cmp	x0, #0x0
   8319c:	54000080 	b.eq	831ac <CEcoMemoryManager1_4D656D31_get_Status+0x2c>  // b.none
   831a0:	f94003e0 	ldr	x0, [sp]
   831a4:	f100001f 	cmp	x0, #0x0
   831a8:	54000061 	b.ne	831b4 <CEcoMemoryManager1_4D656D31_get_Status+0x34>  // b.any
   831ac:	52800000 	mov	w0, #0x0                   	// #0
   831b0:	1400001c 	b	83220 <CEcoMemoryManager1_4D656D31_get_Status+0xa0>
   831b4:	f9400fe0 	ldr	x0, [sp, #24]
   831b8:	f9402000 	ldr	x0, [x0, #64]
   831bc:	2a0003e1 	mov	w1, w0
   831c0:	f94003e0 	ldr	x0, [sp]
   831c4:	b9000001 	str	w1, [x0]
   831c8:	f9400fe0 	ldr	x0, [sp, #24]
   831cc:	f9402000 	ldr	x0, [x0, #64]
   831d0:	d360fc00 	lsr	x0, x0, #32
   831d4:	2a0003e1 	mov	w1, w0
   831d8:	f94003e0 	ldr	x0, [sp]
   831dc:	b9000401 	str	w1, [x0, #4]
   831e0:	f9400fe0 	ldr	x0, [sp, #24]
   831e4:	b9403401 	ldr	w1, [x0, #52]
   831e8:	f94003e0 	ldr	x0, [sp]
   831ec:	b9000801 	str	w1, [x0, #8]
   831f0:	f94003e0 	ldr	x0, [sp]
   831f4:	b9400801 	ldr	w1, [x0, #8]
   831f8:	f9400fe0 	ldr	x0, [sp, #24]
   831fc:	b9403800 	ldr	w0, [x0, #56]
   83200:	4b000021 	sub	w1, w1, w0
   83204:	f94003e0 	ldr	x0, [sp]
   83208:	b9000c01 	str	w1, [x0, #12]
   8320c:	f9400fe0 	ldr	x0, [sp, #24]
   83210:	b9403001 	ldr	w1, [x0, #48]
   83214:	f94003e0 	ldr	x0, [sp]
   83218:	b9001001 	str	w1, [x0, #16]
   8321c:	52800020 	mov	w0, #0x1                   	// #1
   83220:	910083ff 	add	sp, sp, #0x20
   83224:	d65f03c0 	ret

0000000000083228 <CEcoMemoryManager1_4D656D31_get_UsedBlocks>:
   83228:	d10083ff 	sub	sp, sp, #0x20
   8322c:	f9000fe0 	str	x0, [sp, #24]
   83230:	f9000be1 	str	x1, [sp, #16]
   83234:	f90007e2 	str	x2, [sp, #8]
   83238:	f9400fe0 	ldr	x0, [sp, #24]
   8323c:	f100001f 	cmp	x0, #0x0
   83240:	54000061 	b.ne	8324c <CEcoMemoryManager1_4D656D31_get_UsedBlocks+0x24>  // b.any
   83244:	52801fe0 	mov	w0, #0xff                  	// #255
   83248:	14000002 	b	83250 <CEcoMemoryManager1_4D656D31_get_UsedBlocks+0x28>
   8324c:	52800000 	mov	w0, #0x0                   	// #0
   83250:	910083ff 	add	sp, sp, #0x20
   83254:	d65f03c0 	ret

0000000000083258 <initCEcoMemoryManager1_4D656D31>:
   83258:	d10083ff 	sub	sp, sp, #0x20
   8325c:	f90007e0 	str	x0, [sp, #8]
   83260:	f90003e1 	str	x1, [sp]
   83264:	f94007e0 	ldr	x0, [sp, #8]
   83268:	f9000fe0 	str	x0, [sp, #24]
   8326c:	12800000 	mov	w0, #0xffffffff            	// #-1
   83270:	79002fe0 	strh	w0, [sp, #22]
   83274:	f94007e0 	ldr	x0, [sp, #8]
   83278:	f100001f 	cmp	x0, #0x0
   8327c:	54000061 	b.ne	83288 <initCEcoMemoryManager1_4D656D31+0x30>  // b.any
   83280:	79c02fe0 	ldrsh	w0, [sp, #22]
   83284:	14000009 	b	832a8 <initCEcoMemoryManager1_4D656D31+0x50>
   83288:	f9400fe0 	ldr	x0, [sp, #24]
   8328c:	f9402000 	ldr	x0, [x0, #64]
   83290:	f100001f 	cmp	x0, #0x0
   83294:	54000081 	b.ne	832a4 <initCEcoMemoryManager1_4D656D31+0x4c>  // b.any
   83298:	f9400fe0 	ldr	x0, [sp, #24]
   8329c:	b9403400 	ldr	w0, [x0, #52]
   832a0:	7100001f 	cmp	w0, #0x0
   832a4:	52800000 	mov	w0, #0x0                   	// #0
   832a8:	910083ff 	add	sp, sp, #0x20
   832ac:	d65f03c0 	ret

00000000000832b0 <createCEcoMemoryManager1_4D656D31>:
   832b0:	d100c3ff 	sub	sp, sp, #0x30
   832b4:	f9000fe0 	str	x0, [sp, #24]
   832b8:	f9000be1 	str	x1, [sp, #16]
   832bc:	f90007e2 	str	x2, [sp, #8]
   832c0:	f90017ff 	str	xzr, [sp, #40]
   832c4:	12800000 	mov	w0, #0xffffffff            	// #-1
   832c8:	79004fe0 	strh	w0, [sp, #38]
   832cc:	f94007e0 	ldr	x0, [sp, #8]
   832d0:	f100001f 	cmp	x0, #0x0
   832d4:	54000061 	b.ne	832e0 <createCEcoMemoryManager1_4D656D31+0x30>  // b.any
   832d8:	79c04fe0 	ldrsh	w0, [sp, #38]
   832dc:	14000030 	b	8339c <createCEcoMemoryManager1_4D656D31+0xec>
   832e0:	b0000060 	adrp	x0, 90000 <impure_data+0x270>
   832e4:	9113a000 	add	x0, x0, #0x4e8
   832e8:	f90017e0 	str	x0, [sp, #40]
   832ec:	f94017e0 	ldr	x0, [sp, #40]
   832f0:	b9401000 	ldr	w0, [x0, #16]
   832f4:	7100001f 	cmp	w0, #0x0
   832f8:	54000401 	b.ne	83378 <createCEcoMemoryManager1_4D656D31+0xc8>  // b.any
   832fc:	f94017e0 	ldr	x0, [sp, #40]
   83300:	52800021 	mov	w1, #0x1                   	// #1
   83304:	b9001001 	str	w1, [x0, #16]
   83308:	f94017e0 	ldr	x0, [sp, #40]
   8330c:	f9400fe1 	ldr	x1, [sp, #24]
   83310:	f9001001 	str	x1, [x0, #32]
   83314:	f94017e0 	ldr	x0, [sp, #40]
   83318:	f0000041 	adrp	x1, 8e000 <_malloc_r+0x1e8>
   8331c:	9134c021 	add	x1, x1, #0xd30
   83320:	f9000001 	str	x1, [x0]
   83324:	f94017e0 	ldr	x0, [sp, #40]
   83328:	f0000041 	adrp	x1, 8e000 <_malloc_r+0x1e8>
   8332c:	91358021 	add	x1, x1, #0xd60
   83330:	f9000401 	str	x1, [x0, #8]
   83334:	f94017e0 	ldr	x0, [sp, #40]
   83338:	f900141f 	str	xzr, [x0, #40]
   8333c:	f94017e0 	ldr	x0, [sp, #40]
   83340:	b900301f 	str	wzr, [x0, #48]
   83344:	f94017e0 	ldr	x0, [sp, #40]
   83348:	b900341f 	str	wzr, [x0, #52]
   8334c:	f94017e0 	ldr	x0, [sp, #40]
   83350:	b900381f 	str	wzr, [x0, #56]
   83354:	f94017e0 	ldr	x0, [sp, #40]
   83358:	f900201f 	str	xzr, [x0, #64]
   8335c:	f94017e0 	ldr	x0, [sp, #40]
   83360:	f900241f 	str	xzr, [x0, #72]
   83364:	f94017e0 	ldr	x0, [sp, #40]
   83368:	f900281f 	str	xzr, [x0, #80]
   8336c:	f94017e0 	ldr	x0, [sp, #40]
   83370:	3901601f 	strb	wzr, [x0, #88]
   83374:	14000006 	b	8338c <createCEcoMemoryManager1_4D656D31+0xdc>
   83378:	f94017e0 	ldr	x0, [sp, #40]
   8337c:	b9401000 	ldr	w0, [x0, #16]
   83380:	11000401 	add	w1, w0, #0x1
   83384:	f94017e0 	ldr	x0, [sp, #40]
   83388:	b9001001 	str	w1, [x0, #16]
   8338c:	f94007e0 	ldr	x0, [sp, #8]
   83390:	f94017e1 	ldr	x1, [sp, #40]
   83394:	f9000001 	str	x1, [x0]
   83398:	52800000 	mov	w0, #0x0                   	// #0
   8339c:	9100c3ff 	add	sp, sp, #0x30
   833a0:	d65f03c0 	ret

00000000000833a4 <deleteCEcoMemoryManager1_4D656D31>:
   833a4:	d10083ff 	sub	sp, sp, #0x20
   833a8:	f90007e0 	str	x0, [sp, #8]
   833ac:	f94007e0 	ldr	x0, [sp, #8]
   833b0:	f9000fe0 	str	x0, [sp, #24]
   833b4:	f94007e0 	ldr	x0, [sp, #8]
   833b8:	f100001f 	cmp	x0, #0x0
   833bc:	540000e0 	b.eq	833d8 <deleteCEcoMemoryManager1_4D656D31+0x34>  // b.none
   833c0:	f9400fe0 	ldr	x0, [sp, #24]
   833c4:	f900201f 	str	xzr, [x0, #64]
   833c8:	f9400fe0 	ldr	x0, [sp, #24]
   833cc:	b900341f 	str	wzr, [x0, #52]
   833d0:	f9400fe0 	ldr	x0, [sp, #24]
   833d4:	f900281f 	str	xzr, [x0, #80]
   833d8:	d503201f 	nop
   833dc:	910083ff 	add	sp, sp, #0x20
   833e0:	d65f03c0 	ret

00000000000833e4 <_sbrk>:
   833e4:	d10083ff 	sub	sp, sp, #0x20
   833e8:	b9000fe0 	str	w0, [sp, #12]
   833ec:	b0000060 	adrp	x0, 90000 <impure_data+0x270>
   833f0:	91156000 	add	x0, x0, #0x558
   833f4:	f9400000 	ldr	x0, [x0]
   833f8:	f100001f 	cmp	x0, #0x0
   833fc:	540000c1 	b.ne	83414 <_sbrk+0x30>  // b.any
   83400:	b0000060 	adrp	x0, 90000 <impure_data+0x270>
   83404:	91156000 	add	x0, x0, #0x558
   83408:	900004e1 	adrp	x1, 11f000 <__heap_start__+0x200>
   8340c:	91380021 	add	x1, x1, #0xe00
   83410:	f9000001 	str	x1, [x0]
   83414:	b0000060 	adrp	x0, 90000 <impure_data+0x270>
   83418:	91156000 	add	x0, x0, #0x558
   8341c:	f9400000 	ldr	x0, [x0]
   83420:	f9000fe0 	str	x0, [sp, #24]
   83424:	b0000060 	adrp	x0, 90000 <impure_data+0x270>
   83428:	91156000 	add	x0, x0, #0x558
   8342c:	f9400001 	ldr	x1, [x0]
   83430:	b9800fe0 	ldrsw	x0, [sp, #12]
   83434:	8b000021 	add	x1, x1, x0
   83438:	b0000060 	adrp	x0, 90000 <impure_data+0x270>
   8343c:	91156000 	add	x0, x0, #0x558
   83440:	f9000001 	str	x1, [x0]
   83444:	f9400fe0 	ldr	x0, [sp, #24]
   83448:	910083ff 	add	sp, sp, #0x20
   8344c:	d65f03c0 	ret

0000000000083450 <CEcoMemoryAllocator1_4D656D31_QueryInterface>:
   83450:	a9bc7bfd 	stp	x29, x30, [sp, #-64]!
   83454:	910003fd 	mov	x29, sp
   83458:	f90017a0 	str	x0, [x29, #40]
   8345c:	f90013a1 	str	x1, [x29, #32]
   83460:	f9000fa2 	str	x2, [x29, #24]
   83464:	f94017a0 	ldr	x0, [x29, #40]
   83468:	d1002000 	sub	x0, x0, #0x8
   8346c:	f9001fa0 	str	x0, [x29, #56]
   83470:	f94017a0 	ldr	x0, [x29, #40]
   83474:	f100001f 	cmp	x0, #0x0
   83478:	54000080 	b.eq	83488 <CEcoMemoryAllocator1_4D656D31_QueryInterface+0x38>  // b.none
   8347c:	f9400fa0 	ldr	x0, [x29, #24]
   83480:	f100001f 	cmp	x0, #0x0
   83484:	54000061 	b.ne	83490 <CEcoMemoryAllocator1_4D656D31_QueryInterface+0x40>  // b.any
   83488:	12800000 	mov	w0, #0xffffffff            	// #-1
   8348c:	140001cf 	b	83bc8 <CEcoMemoryAllocator1_4D656D31_QueryInterface+0x778>
   83490:	f94013a0 	ldr	x0, [x29, #32]
   83494:	39400001 	ldrb	w1, [x0]
   83498:	f0000440 	adrp	x0, 10e000 <ECO_CGI_1_PIXEL_VALIDITY_FLAG_e>
   8349c:	91116000 	add	x0, x0, #0x458
   834a0:	39400000 	ldrb	w0, [x0]
   834a4:	6b00003f 	cmp	w1, w0
   834a8:	54001261 	b.ne	836f4 <CEcoMemoryAllocator1_4D656D31_QueryInterface+0x2a4>  // b.any
   834ac:	f94013a0 	ldr	x0, [x29, #32]
   834b0:	91000400 	add	x0, x0, #0x1
   834b4:	39400001 	ldrb	w1, [x0]
   834b8:	f0000440 	adrp	x0, 10e000 <ECO_CGI_1_PIXEL_VALIDITY_FLAG_e>
   834bc:	91116400 	add	x0, x0, #0x459
   834c0:	39400000 	ldrb	w0, [x0]
   834c4:	6b00003f 	cmp	w1, w0
   834c8:	54001161 	b.ne	836f4 <CEcoMemoryAllocator1_4D656D31_QueryInterface+0x2a4>  // b.any
   834cc:	f94013a0 	ldr	x0, [x29, #32]
   834d0:	91000800 	add	x0, x0, #0x2
   834d4:	39400001 	ldrb	w1, [x0]
   834d8:	f0000440 	adrp	x0, 10e000 <ECO_CGI_1_PIXEL_VALIDITY_FLAG_e>
   834dc:	91116800 	add	x0, x0, #0x45a
   834e0:	39400000 	ldrb	w0, [x0]
   834e4:	6b00003f 	cmp	w1, w0
   834e8:	54001061 	b.ne	836f4 <CEcoMemoryAllocator1_4D656D31_QueryInterface+0x2a4>  // b.any
   834ec:	f94013a0 	ldr	x0, [x29, #32]
   834f0:	91000c00 	add	x0, x0, #0x3
   834f4:	39400001 	ldrb	w1, [x0]
   834f8:	f0000440 	adrp	x0, 10e000 <ECO_CGI_1_PIXEL_VALIDITY_FLAG_e>
   834fc:	91116c00 	add	x0, x0, #0x45b
   83500:	39400000 	ldrb	w0, [x0]
   83504:	6b00003f 	cmp	w1, w0
   83508:	54000f61 	b.ne	836f4 <CEcoMemoryAllocator1_4D656D31_QueryInterface+0x2a4>  // b.any
   8350c:	f94013a0 	ldr	x0, [x29, #32]
   83510:	91001000 	add	x0, x0, #0x4
   83514:	39400001 	ldrb	w1, [x0]
   83518:	f0000440 	adrp	x0, 10e000 <ECO_CGI_1_PIXEL_VALIDITY_FLAG_e>
   8351c:	91117000 	add	x0, x0, #0x45c
   83520:	39400000 	ldrb	w0, [x0]
   83524:	6b00003f 	cmp	w1, w0
   83528:	54000e61 	b.ne	836f4 <CEcoMemoryAllocator1_4D656D31_QueryInterface+0x2a4>  // b.any
   8352c:	f94013a0 	ldr	x0, [x29, #32]
   83530:	91001400 	add	x0, x0, #0x5
   83534:	39400001 	ldrb	w1, [x0]
   83538:	f0000440 	adrp	x0, 10e000 <ECO_CGI_1_PIXEL_VALIDITY_FLAG_e>
   8353c:	91117400 	add	x0, x0, #0x45d
   83540:	39400000 	ldrb	w0, [x0]
   83544:	6b00003f 	cmp	w1, w0
   83548:	54000d61 	b.ne	836f4 <CEcoMemoryAllocator1_4D656D31_QueryInterface+0x2a4>  // b.any
   8354c:	f94013a0 	ldr	x0, [x29, #32]
   83550:	91001800 	add	x0, x0, #0x6
   83554:	39400001 	ldrb	w1, [x0]
   83558:	f0000440 	adrp	x0, 10e000 <ECO_CGI_1_PIXEL_VALIDITY_FLAG_e>
   8355c:	91117800 	add	x0, x0, #0x45e
   83560:	39400000 	ldrb	w0, [x0]
   83564:	6b00003f 	cmp	w1, w0
   83568:	54000c61 	b.ne	836f4 <CEcoMemoryAllocator1_4D656D31_QueryInterface+0x2a4>  // b.any
   8356c:	f94013a0 	ldr	x0, [x29, #32]
   83570:	91001c00 	add	x0, x0, #0x7
   83574:	39400001 	ldrb	w1, [x0]
   83578:	f0000440 	adrp	x0, 10e000 <ECO_CGI_1_PIXEL_VALIDITY_FLAG_e>
   8357c:	91117c00 	add	x0, x0, #0x45f
   83580:	39400000 	ldrb	w0, [x0]
   83584:	6b00003f 	cmp	w1, w0
   83588:	54000b61 	b.ne	836f4 <CEcoMemoryAllocator1_4D656D31_QueryInterface+0x2a4>  // b.any
   8358c:	f94013a0 	ldr	x0, [x29, #32]
   83590:	91002000 	add	x0, x0, #0x8
   83594:	39400001 	ldrb	w1, [x0]
   83598:	f0000440 	adrp	x0, 10e000 <ECO_CGI_1_PIXEL_VALIDITY_FLAG_e>
   8359c:	91118000 	add	x0, x0, #0x460
   835a0:	39400000 	ldrb	w0, [x0]
   835a4:	6b00003f 	cmp	w1, w0
   835a8:	54000a61 	b.ne	836f4 <CEcoMemoryAllocator1_4D656D31_QueryInterface+0x2a4>  // b.any
   835ac:	f94013a0 	ldr	x0, [x29, #32]
   835b0:	91002400 	add	x0, x0, #0x9
   835b4:	39400001 	ldrb	w1, [x0]
   835b8:	f0000440 	adrp	x0, 10e000 <ECO_CGI_1_PIXEL_VALIDITY_FLAG_e>
   835bc:	91118400 	add	x0, x0, #0x461
   835c0:	39400000 	ldrb	w0, [x0]
   835c4:	6b00003f 	cmp	w1, w0
   835c8:	54000961 	b.ne	836f4 <CEcoMemoryAllocator1_4D656D31_QueryInterface+0x2a4>  // b.any
   835cc:	f94013a0 	ldr	x0, [x29, #32]
   835d0:	91002800 	add	x0, x0, #0xa
   835d4:	39400001 	ldrb	w1, [x0]
   835d8:	f0000440 	adrp	x0, 10e000 <ECO_CGI_1_PIXEL_VALIDITY_FLAG_e>
   835dc:	91118800 	add	x0, x0, #0x462
   835e0:	39400000 	ldrb	w0, [x0]
   835e4:	6b00003f 	cmp	w1, w0
   835e8:	54000861 	b.ne	836f4 <CEcoMemoryAllocator1_4D656D31_QueryInterface+0x2a4>  // b.any
   835ec:	f94013a0 	ldr	x0, [x29, #32]
   835f0:	91002c00 	add	x0, x0, #0xb
   835f4:	39400001 	ldrb	w1, [x0]
   835f8:	f0000440 	adrp	x0, 10e000 <ECO_CGI_1_PIXEL_VALIDITY_FLAG_e>
   835fc:	91118c00 	add	x0, x0, #0x463
   83600:	39400000 	ldrb	w0, [x0]
   83604:	6b00003f 	cmp	w1, w0
   83608:	54000761 	b.ne	836f4 <CEcoMemoryAllocator1_4D656D31_QueryInterface+0x2a4>  // b.any
   8360c:	f94013a0 	ldr	x0, [x29, #32]
   83610:	91003000 	add	x0, x0, #0xc
   83614:	39400001 	ldrb	w1, [x0]
   83618:	f0000440 	adrp	x0, 10e000 <ECO_CGI_1_PIXEL_VALIDITY_FLAG_e>
   8361c:	91119000 	add	x0, x0, #0x464
   83620:	39400000 	ldrb	w0, [x0]
   83624:	6b00003f 	cmp	w1, w0
   83628:	54000661 	b.ne	836f4 <CEcoMemoryAllocator1_4D656D31_QueryInterface+0x2a4>  // b.any
   8362c:	f94013a0 	ldr	x0, [x29, #32]
   83630:	91003400 	add	x0, x0, #0xd
   83634:	39400001 	ldrb	w1, [x0]
   83638:	f0000440 	adrp	x0, 10e000 <ECO_CGI_1_PIXEL_VALIDITY_FLAG_e>
   8363c:	91119400 	add	x0, x0, #0x465
   83640:	39400000 	ldrb	w0, [x0]
   83644:	6b00003f 	cmp	w1, w0
   83648:	54000561 	b.ne	836f4 <CEcoMemoryAllocator1_4D656D31_QueryInterface+0x2a4>  // b.any
   8364c:	f94013a0 	ldr	x0, [x29, #32]
   83650:	91003800 	add	x0, x0, #0xe
   83654:	39400001 	ldrb	w1, [x0]
   83658:	f0000440 	adrp	x0, 10e000 <ECO_CGI_1_PIXEL_VALIDITY_FLAG_e>
   8365c:	91119800 	add	x0, x0, #0x466
   83660:	39400000 	ldrb	w0, [x0]
   83664:	6b00003f 	cmp	w1, w0
   83668:	54000461 	b.ne	836f4 <CEcoMemoryAllocator1_4D656D31_QueryInterface+0x2a4>  // b.any
   8366c:	f94013a0 	ldr	x0, [x29, #32]
   83670:	91003c00 	add	x0, x0, #0xf
   83674:	39400001 	ldrb	w1, [x0]
   83678:	f0000440 	adrp	x0, 10e000 <ECO_CGI_1_PIXEL_VALIDITY_FLAG_e>
   8367c:	91119c00 	add	x0, x0, #0x467
   83680:	39400000 	ldrb	w0, [x0]
   83684:	6b00003f 	cmp	w1, w0
   83688:	54000361 	b.ne	836f4 <CEcoMemoryAllocator1_4D656D31_QueryInterface+0x2a4>  // b.any
   8368c:	f94013a0 	ldr	x0, [x29, #32]
   83690:	91004000 	add	x0, x0, #0x10
   83694:	39400001 	ldrb	w1, [x0]
   83698:	f0000440 	adrp	x0, 10e000 <ECO_CGI_1_PIXEL_VALIDITY_FLAG_e>
   8369c:	9111a000 	add	x0, x0, #0x468
   836a0:	39400000 	ldrb	w0, [x0]
   836a4:	6b00003f 	cmp	w1, w0
   836a8:	54000261 	b.ne	836f4 <CEcoMemoryAllocator1_4D656D31_QueryInterface+0x2a4>  // b.any
   836ac:	f94013a0 	ldr	x0, [x29, #32]
   836b0:	91004400 	add	x0, x0, #0x11
   836b4:	39400001 	ldrb	w1, [x0]
   836b8:	f0000440 	adrp	x0, 10e000 <ECO_CGI_1_PIXEL_VALIDITY_FLAG_e>
   836bc:	9111a400 	add	x0, x0, #0x469
   836c0:	39400000 	ldrb	w0, [x0]
   836c4:	6b00003f 	cmp	w1, w0
   836c8:	54000161 	b.ne	836f4 <CEcoMemoryAllocator1_4D656D31_QueryInterface+0x2a4>  // b.any
   836cc:	f9401fa0 	ldr	x0, [x29, #56]
   836d0:	91002001 	add	x1, x0, #0x8
   836d4:	f9400fa0 	ldr	x0, [x29, #24]
   836d8:	f9000001 	str	x1, [x0]
   836dc:	f9401fa0 	ldr	x0, [x29, #56]
   836e0:	f9400000 	ldr	x0, [x0]
   836e4:	f9400401 	ldr	x1, [x0, #8]
   836e8:	f9401fa0 	ldr	x0, [x29, #56]
   836ec:	d63f0020 	blr	x1
   836f0:	14000135 	b	83bc4 <CEcoMemoryAllocator1_4D656D31_QueryInterface+0x774>
   836f4:	f94013a0 	ldr	x0, [x29, #32]
   836f8:	39400001 	ldrb	w1, [x0]
   836fc:	f0000440 	adrp	x0, 10e000 <ECO_CGI_1_PIXEL_VALIDITY_FLAG_e>
   83700:	9111c000 	add	x0, x0, #0x470
   83704:	39400000 	ldrb	w0, [x0]
   83708:	6b00003f 	cmp	w1, w0
   8370c:	54001241 	b.ne	83954 <CEcoMemoryAllocator1_4D656D31_QueryInterface+0x504>  // b.any
   83710:	f94013a0 	ldr	x0, [x29, #32]
   83714:	91000400 	add	x0, x0, #0x1
   83718:	39400001 	ldrb	w1, [x0]
   8371c:	f0000440 	adrp	x0, 10e000 <ECO_CGI_1_PIXEL_VALIDITY_FLAG_e>
   83720:	9111c400 	add	x0, x0, #0x471
   83724:	39400000 	ldrb	w0, [x0]
   83728:	6b00003f 	cmp	w1, w0
   8372c:	54001141 	b.ne	83954 <CEcoMemoryAllocator1_4D656D31_QueryInterface+0x504>  // b.any
   83730:	f94013a0 	ldr	x0, [x29, #32]
   83734:	91000800 	add	x0, x0, #0x2
   83738:	39400001 	ldrb	w1, [x0]
   8373c:	f0000440 	adrp	x0, 10e000 <ECO_CGI_1_PIXEL_VALIDITY_FLAG_e>
   83740:	9111c800 	add	x0, x0, #0x472
   83744:	39400000 	ldrb	w0, [x0]
   83748:	6b00003f 	cmp	w1, w0
   8374c:	54001041 	b.ne	83954 <CEcoMemoryAllocator1_4D656D31_QueryInterface+0x504>  // b.any
   83750:	f94013a0 	ldr	x0, [x29, #32]
   83754:	91000c00 	add	x0, x0, #0x3
   83758:	39400001 	ldrb	w1, [x0]
   8375c:	f0000440 	adrp	x0, 10e000 <ECO_CGI_1_PIXEL_VALIDITY_FLAG_e>
   83760:	9111cc00 	add	x0, x0, #0x473
   83764:	39400000 	ldrb	w0, [x0]
   83768:	6b00003f 	cmp	w1, w0
   8376c:	54000f41 	b.ne	83954 <CEcoMemoryAllocator1_4D656D31_QueryInterface+0x504>  // b.any
   83770:	f94013a0 	ldr	x0, [x29, #32]
   83774:	91001000 	add	x0, x0, #0x4
   83778:	39400001 	ldrb	w1, [x0]
   8377c:	f0000440 	adrp	x0, 10e000 <ECO_CGI_1_PIXEL_VALIDITY_FLAG_e>
   83780:	9111d000 	add	x0, x0, #0x474
   83784:	39400000 	ldrb	w0, [x0]
   83788:	6b00003f 	cmp	w1, w0
   8378c:	54000e41 	b.ne	83954 <CEcoMemoryAllocator1_4D656D31_QueryInterface+0x504>  // b.any
   83790:	f94013a0 	ldr	x0, [x29, #32]
   83794:	91001400 	add	x0, x0, #0x5
   83798:	39400001 	ldrb	w1, [x0]
   8379c:	f0000440 	adrp	x0, 10e000 <ECO_CGI_1_PIXEL_VALIDITY_FLAG_e>
   837a0:	9111d400 	add	x0, x0, #0x475
   837a4:	39400000 	ldrb	w0, [x0]
   837a8:	6b00003f 	cmp	w1, w0
   837ac:	54000d41 	b.ne	83954 <CEcoMemoryAllocator1_4D656D31_QueryInterface+0x504>  // b.any
   837b0:	f94013a0 	ldr	x0, [x29, #32]
   837b4:	91001800 	add	x0, x0, #0x6
   837b8:	39400001 	ldrb	w1, [x0]
   837bc:	f0000440 	adrp	x0, 10e000 <ECO_CGI_1_PIXEL_VALIDITY_FLAG_e>
   837c0:	9111d800 	add	x0, x0, #0x476
   837c4:	39400000 	ldrb	w0, [x0]
   837c8:	6b00003f 	cmp	w1, w0
   837cc:	54000c41 	b.ne	83954 <CEcoMemoryAllocator1_4D656D31_QueryInterface+0x504>  // b.any
   837d0:	f94013a0 	ldr	x0, [x29, #32]
   837d4:	91001c00 	add	x0, x0, #0x7
   837d8:	39400001 	ldrb	w1, [x0]
   837dc:	f0000440 	adrp	x0, 10e000 <ECO_CGI_1_PIXEL_VALIDITY_FLAG_e>
   837e0:	9111dc00 	add	x0, x0, #0x477
   837e4:	39400000 	ldrb	w0, [x0]
   837e8:	6b00003f 	cmp	w1, w0
   837ec:	54000b41 	b.ne	83954 <CEcoMemoryAllocator1_4D656D31_QueryInterface+0x504>  // b.any
   837f0:	f94013a0 	ldr	x0, [x29, #32]
   837f4:	91002000 	add	x0, x0, #0x8
   837f8:	39400001 	ldrb	w1, [x0]
   837fc:	f0000440 	adrp	x0, 10e000 <ECO_CGI_1_PIXEL_VALIDITY_FLAG_e>
   83800:	9111e000 	add	x0, x0, #0x478
   83804:	39400000 	ldrb	w0, [x0]
   83808:	6b00003f 	cmp	w1, w0
   8380c:	54000a41 	b.ne	83954 <CEcoMemoryAllocator1_4D656D31_QueryInterface+0x504>  // b.any
   83810:	f94013a0 	ldr	x0, [x29, #32]
   83814:	91002400 	add	x0, x0, #0x9
   83818:	39400001 	ldrb	w1, [x0]
   8381c:	f0000440 	adrp	x0, 10e000 <ECO_CGI_1_PIXEL_VALIDITY_FLAG_e>
   83820:	9111e400 	add	x0, x0, #0x479
   83824:	39400000 	ldrb	w0, [x0]
   83828:	6b00003f 	cmp	w1, w0
   8382c:	54000941 	b.ne	83954 <CEcoMemoryAllocator1_4D656D31_QueryInterface+0x504>  // b.any
   83830:	f94013a0 	ldr	x0, [x29, #32]
   83834:	91002800 	add	x0, x0, #0xa
   83838:	39400001 	ldrb	w1, [x0]
   8383c:	f0000440 	adrp	x0, 10e000 <ECO_CGI_1_PIXEL_VALIDITY_FLAG_e>
   83840:	9111e800 	add	x0, x0, #0x47a
   83844:	39400000 	ldrb	w0, [x0]
   83848:	6b00003f 	cmp	w1, w0
   8384c:	54000841 	b.ne	83954 <CEcoMemoryAllocator1_4D656D31_QueryInterface+0x504>  // b.any
   83850:	f94013a0 	ldr	x0, [x29, #32]
   83854:	91002c00 	add	x0, x0, #0xb
   83858:	39400001 	ldrb	w1, [x0]
   8385c:	f0000440 	adrp	x0, 10e000 <ECO_CGI_1_PIXEL_VALIDITY_FLAG_e>
   83860:	9111ec00 	add	x0, x0, #0x47b
   83864:	39400000 	ldrb	w0, [x0]
   83868:	6b00003f 	cmp	w1, w0
   8386c:	54000741 	b.ne	83954 <CEcoMemoryAllocator1_4D656D31_QueryInterface+0x504>  // b.any
   83870:	f94013a0 	ldr	x0, [x29, #32]
   83874:	91003000 	add	x0, x0, #0xc
   83878:	39400001 	ldrb	w1, [x0]
   8387c:	f0000440 	adrp	x0, 10e000 <ECO_CGI_1_PIXEL_VALIDITY_FLAG_e>
   83880:	9111f000 	add	x0, x0, #0x47c
   83884:	39400000 	ldrb	w0, [x0]
   83888:	6b00003f 	cmp	w1, w0
   8388c:	54000641 	b.ne	83954 <CEcoMemoryAllocator1_4D656D31_QueryInterface+0x504>  // b.any
   83890:	f94013a0 	ldr	x0, [x29, #32]
   83894:	91003400 	add	x0, x0, #0xd
   83898:	39400001 	ldrb	w1, [x0]
   8389c:	f0000440 	adrp	x0, 10e000 <ECO_CGI_1_PIXEL_VALIDITY_FLAG_e>
   838a0:	9111f400 	add	x0, x0, #0x47d
   838a4:	39400000 	ldrb	w0, [x0]
   838a8:	6b00003f 	cmp	w1, w0
   838ac:	54000541 	b.ne	83954 <CEcoMemoryAllocator1_4D656D31_QueryInterface+0x504>  // b.any
   838b0:	f94013a0 	ldr	x0, [x29, #32]
   838b4:	91003800 	add	x0, x0, #0xe
   838b8:	39400001 	ldrb	w1, [x0]
   838bc:	f0000440 	adrp	x0, 10e000 <ECO_CGI_1_PIXEL_VALIDITY_FLAG_e>
   838c0:	9111f800 	add	x0, x0, #0x47e
   838c4:	39400000 	ldrb	w0, [x0]
   838c8:	6b00003f 	cmp	w1, w0
   838cc:	54000441 	b.ne	83954 <CEcoMemoryAllocator1_4D656D31_QueryInterface+0x504>  // b.any
   838d0:	f94013a0 	ldr	x0, [x29, #32]
   838d4:	91003c00 	add	x0, x0, #0xf
   838d8:	39400001 	ldrb	w1, [x0]
   838dc:	f0000440 	adrp	x0, 10e000 <ECO_CGI_1_PIXEL_VALIDITY_FLAG_e>
   838e0:	9111fc00 	add	x0, x0, #0x47f
   838e4:	39400000 	ldrb	w0, [x0]
   838e8:	6b00003f 	cmp	w1, w0
   838ec:	54000341 	b.ne	83954 <CEcoMemoryAllocator1_4D656D31_QueryInterface+0x504>  // b.any
   838f0:	f94013a0 	ldr	x0, [x29, #32]
   838f4:	91004000 	add	x0, x0, #0x10
   838f8:	39400001 	ldrb	w1, [x0]
   838fc:	f0000440 	adrp	x0, 10e000 <ECO_CGI_1_PIXEL_VALIDITY_FLAG_e>
   83900:	91120000 	add	x0, x0, #0x480
   83904:	39400000 	ldrb	w0, [x0]
   83908:	6b00003f 	cmp	w1, w0
   8390c:	54000241 	b.ne	83954 <CEcoMemoryAllocator1_4D656D31_QueryInterface+0x504>  // b.any
   83910:	f94013a0 	ldr	x0, [x29, #32]
   83914:	91004400 	add	x0, x0, #0x11
   83918:	39400001 	ldrb	w1, [x0]
   8391c:	f0000440 	adrp	x0, 10e000 <ECO_CGI_1_PIXEL_VALIDITY_FLAG_e>
   83920:	91120400 	add	x0, x0, #0x481
   83924:	39400000 	ldrb	w0, [x0]
   83928:	6b00003f 	cmp	w1, w0
   8392c:	54000141 	b.ne	83954 <CEcoMemoryAllocator1_4D656D31_QueryInterface+0x504>  // b.any
   83930:	f9401fa1 	ldr	x1, [x29, #56]
   83934:	f9400fa0 	ldr	x0, [x29, #24]
   83938:	f9000001 	str	x1, [x0]
   8393c:	f9401fa0 	ldr	x0, [x29, #56]
   83940:	f9400000 	ldr	x0, [x0]
   83944:	f9400401 	ldr	x1, [x0, #8]
   83948:	f9401fa0 	ldr	x0, [x29, #56]
   8394c:	d63f0020 	blr	x1
   83950:	1400009d 	b	83bc4 <CEcoMemoryAllocator1_4D656D31_QueryInterface+0x774>
   83954:	f94013a0 	ldr	x0, [x29, #32]
   83958:	39400001 	ldrb	w1, [x0]
   8395c:	f0000440 	adrp	x0, 10e000 <ECO_CGI_1_PIXEL_VALIDITY_FLAG_e>
   83960:	91104000 	add	x0, x0, #0x410
   83964:	39400000 	ldrb	w0, [x0]
   83968:	6b00003f 	cmp	w1, w0
   8396c:	54001241 	b.ne	83bb4 <CEcoMemoryAllocator1_4D656D31_QueryInterface+0x764>  // b.any
   83970:	f94013a0 	ldr	x0, [x29, #32]
   83974:	91000400 	add	x0, x0, #0x1
   83978:	39400001 	ldrb	w1, [x0]
   8397c:	f0000440 	adrp	x0, 10e000 <ECO_CGI_1_PIXEL_VALIDITY_FLAG_e>
   83980:	91104400 	add	x0, x0, #0x411
   83984:	39400000 	ldrb	w0, [x0]
   83988:	6b00003f 	cmp	w1, w0
   8398c:	54001141 	b.ne	83bb4 <CEcoMemoryAllocator1_4D656D31_QueryInterface+0x764>  // b.any
   83990:	f94013a0 	ldr	x0, [x29, #32]
   83994:	91000800 	add	x0, x0, #0x2
   83998:	39400001 	ldrb	w1, [x0]
   8399c:	f0000440 	adrp	x0, 10e000 <ECO_CGI_1_PIXEL_VALIDITY_FLAG_e>
   839a0:	91104800 	add	x0, x0, #0x412
   839a4:	39400000 	ldrb	w0, [x0]
   839a8:	6b00003f 	cmp	w1, w0
   839ac:	54001041 	b.ne	83bb4 <CEcoMemoryAllocator1_4D656D31_QueryInterface+0x764>  // b.any
   839b0:	f94013a0 	ldr	x0, [x29, #32]
   839b4:	91000c00 	add	x0, x0, #0x3
   839b8:	39400001 	ldrb	w1, [x0]
   839bc:	f0000440 	adrp	x0, 10e000 <ECO_CGI_1_PIXEL_VALIDITY_FLAG_e>
   839c0:	91104c00 	add	x0, x0, #0x413
   839c4:	39400000 	ldrb	w0, [x0]
   839c8:	6b00003f 	cmp	w1, w0
   839cc:	54000f41 	b.ne	83bb4 <CEcoMemoryAllocator1_4D656D31_QueryInterface+0x764>  // b.any
   839d0:	f94013a0 	ldr	x0, [x29, #32]
   839d4:	91001000 	add	x0, x0, #0x4
   839d8:	39400001 	ldrb	w1, [x0]
   839dc:	f0000440 	adrp	x0, 10e000 <ECO_CGI_1_PIXEL_VALIDITY_FLAG_e>
   839e0:	91105000 	add	x0, x0, #0x414
   839e4:	39400000 	ldrb	w0, [x0]
   839e8:	6b00003f 	cmp	w1, w0
   839ec:	54000e41 	b.ne	83bb4 <CEcoMemoryAllocator1_4D656D31_QueryInterface+0x764>  // b.any
   839f0:	f94013a0 	ldr	x0, [x29, #32]
   839f4:	91001400 	add	x0, x0, #0x5
   839f8:	39400001 	ldrb	w1, [x0]
   839fc:	f0000440 	adrp	x0, 10e000 <ECO_CGI_1_PIXEL_VALIDITY_FLAG_e>
   83a00:	91105400 	add	x0, x0, #0x415
   83a04:	39400000 	ldrb	w0, [x0]
   83a08:	6b00003f 	cmp	w1, w0
   83a0c:	54000d41 	b.ne	83bb4 <CEcoMemoryAllocator1_4D656D31_QueryInterface+0x764>  // b.any
   83a10:	f94013a0 	ldr	x0, [x29, #32]
   83a14:	91001800 	add	x0, x0, #0x6
   83a18:	39400001 	ldrb	w1, [x0]
   83a1c:	f0000440 	adrp	x0, 10e000 <ECO_CGI_1_PIXEL_VALIDITY_FLAG_e>
   83a20:	91105800 	add	x0, x0, #0x416
   83a24:	39400000 	ldrb	w0, [x0]
   83a28:	6b00003f 	cmp	w1, w0
   83a2c:	54000c41 	b.ne	83bb4 <CEcoMemoryAllocator1_4D656D31_QueryInterface+0x764>  // b.any
   83a30:	f94013a0 	ldr	x0, [x29, #32]
   83a34:	91001c00 	add	x0, x0, #0x7
   83a38:	39400001 	ldrb	w1, [x0]
   83a3c:	f0000440 	adrp	x0, 10e000 <ECO_CGI_1_PIXEL_VALIDITY_FLAG_e>
   83a40:	91105c00 	add	x0, x0, #0x417
   83a44:	39400000 	ldrb	w0, [x0]
   83a48:	6b00003f 	cmp	w1, w0
   83a4c:	54000b41 	b.ne	83bb4 <CEcoMemoryAllocator1_4D656D31_QueryInterface+0x764>  // b.any
   83a50:	f94013a0 	ldr	x0, [x29, #32]
   83a54:	91002000 	add	x0, x0, #0x8
   83a58:	39400001 	ldrb	w1, [x0]
   83a5c:	f0000440 	adrp	x0, 10e000 <ECO_CGI_1_PIXEL_VALIDITY_FLAG_e>
   83a60:	91106000 	add	x0, x0, #0x418
   83a64:	39400000 	ldrb	w0, [x0]
   83a68:	6b00003f 	cmp	w1, w0
   83a6c:	54000a41 	b.ne	83bb4 <CEcoMemoryAllocator1_4D656D31_QueryInterface+0x764>  // b.any
   83a70:	f94013a0 	ldr	x0, [x29, #32]
   83a74:	91002400 	add	x0, x0, #0x9
   83a78:	39400001 	ldrb	w1, [x0]
   83a7c:	f0000440 	adrp	x0, 10e000 <ECO_CGI_1_PIXEL_VALIDITY_FLAG_e>
   83a80:	91106400 	add	x0, x0, #0x419
   83a84:	39400000 	ldrb	w0, [x0]
   83a88:	6b00003f 	cmp	w1, w0
   83a8c:	54000941 	b.ne	83bb4 <CEcoMemoryAllocator1_4D656D31_QueryInterface+0x764>  // b.any
   83a90:	f94013a0 	ldr	x0, [x29, #32]
   83a94:	91002800 	add	x0, x0, #0xa
   83a98:	39400001 	ldrb	w1, [x0]
   83a9c:	f0000440 	adrp	x0, 10e000 <ECO_CGI_1_PIXEL_VALIDITY_FLAG_e>
   83aa0:	91106800 	add	x0, x0, #0x41a
   83aa4:	39400000 	ldrb	w0, [x0]
   83aa8:	6b00003f 	cmp	w1, w0
   83aac:	54000841 	b.ne	83bb4 <CEcoMemoryAllocator1_4D656D31_QueryInterface+0x764>  // b.any
   83ab0:	f94013a0 	ldr	x0, [x29, #32]
   83ab4:	91002c00 	add	x0, x0, #0xb
   83ab8:	39400001 	ldrb	w1, [x0]
   83abc:	f0000440 	adrp	x0, 10e000 <ECO_CGI_1_PIXEL_VALIDITY_FLAG_e>
   83ac0:	91106c00 	add	x0, x0, #0x41b
   83ac4:	39400000 	ldrb	w0, [x0]
   83ac8:	6b00003f 	cmp	w1, w0
   83acc:	54000741 	b.ne	83bb4 <CEcoMemoryAllocator1_4D656D31_QueryInterface+0x764>  // b.any
   83ad0:	f94013a0 	ldr	x0, [x29, #32]
   83ad4:	91003000 	add	x0, x0, #0xc
   83ad8:	39400001 	ldrb	w1, [x0]
   83adc:	f0000440 	adrp	x0, 10e000 <ECO_CGI_1_PIXEL_VALIDITY_FLAG_e>
   83ae0:	91107000 	add	x0, x0, #0x41c
   83ae4:	39400000 	ldrb	w0, [x0]
   83ae8:	6b00003f 	cmp	w1, w0
   83aec:	54000641 	b.ne	83bb4 <CEcoMemoryAllocator1_4D656D31_QueryInterface+0x764>  // b.any
   83af0:	f94013a0 	ldr	x0, [x29, #32]
   83af4:	91003400 	add	x0, x0, #0xd
   83af8:	39400001 	ldrb	w1, [x0]
   83afc:	f0000440 	adrp	x0, 10e000 <ECO_CGI_1_PIXEL_VALIDITY_FLAG_e>
   83b00:	91107400 	add	x0, x0, #0x41d
   83b04:	39400000 	ldrb	w0, [x0]
   83b08:	6b00003f 	cmp	w1, w0
   83b0c:	54000541 	b.ne	83bb4 <CEcoMemoryAllocator1_4D656D31_QueryInterface+0x764>  // b.any
   83b10:	f94013a0 	ldr	x0, [x29, #32]
   83b14:	91003800 	add	x0, x0, #0xe
   83b18:	39400001 	ldrb	w1, [x0]
   83b1c:	f0000440 	adrp	x0, 10e000 <ECO_CGI_1_PIXEL_VALIDITY_FLAG_e>
   83b20:	91107800 	add	x0, x0, #0x41e
   83b24:	39400000 	ldrb	w0, [x0]
   83b28:	6b00003f 	cmp	w1, w0
   83b2c:	54000441 	b.ne	83bb4 <CEcoMemoryAllocator1_4D656D31_QueryInterface+0x764>  // b.any
   83b30:	f94013a0 	ldr	x0, [x29, #32]
   83b34:	91003c00 	add	x0, x0, #0xf
   83b38:	39400001 	ldrb	w1, [x0]
   83b3c:	f0000440 	adrp	x0, 10e000 <ECO_CGI_1_PIXEL_VALIDITY_FLAG_e>
   83b40:	91107c00 	add	x0, x0, #0x41f
   83b44:	39400000 	ldrb	w0, [x0]
   83b48:	6b00003f 	cmp	w1, w0
   83b4c:	54000341 	b.ne	83bb4 <CEcoMemoryAllocator1_4D656D31_QueryInterface+0x764>  // b.any
   83b50:	f94013a0 	ldr	x0, [x29, #32]
   83b54:	91004000 	add	x0, x0, #0x10
   83b58:	39400001 	ldrb	w1, [x0]
   83b5c:	f0000440 	adrp	x0, 10e000 <ECO_CGI_1_PIXEL_VALIDITY_FLAG_e>
   83b60:	91108000 	add	x0, x0, #0x420
   83b64:	39400000 	ldrb	w0, [x0]
   83b68:	6b00003f 	cmp	w1, w0
   83b6c:	54000241 	b.ne	83bb4 <CEcoMemoryAllocator1_4D656D31_QueryInterface+0x764>  // b.any
   83b70:	f94013a0 	ldr	x0, [x29, #32]
   83b74:	91004400 	add	x0, x0, #0x11
   83b78:	39400001 	ldrb	w1, [x0]
   83b7c:	f0000440 	adrp	x0, 10e000 <ECO_CGI_1_PIXEL_VALIDITY_FLAG_e>
   83b80:	91108400 	add	x0, x0, #0x421
   83b84:	39400000 	ldrb	w0, [x0]
   83b88:	6b00003f 	cmp	w1, w0
   83b8c:	54000141 	b.ne	83bb4 <CEcoMemoryAllocator1_4D656D31_QueryInterface+0x764>  // b.any
   83b90:	f9401fa1 	ldr	x1, [x29, #56]
   83b94:	f9400fa0 	ldr	x0, [x29, #24]
   83b98:	f9000001 	str	x1, [x0]
   83b9c:	f9401fa0 	ldr	x0, [x29, #56]
   83ba0:	f9400000 	ldr	x0, [x0]
   83ba4:	f9400401 	ldr	x1, [x0, #8]
   83ba8:	f9401fa0 	ldr	x0, [x29, #56]
   83bac:	d63f0020 	blr	x1
   83bb0:	14000005 	b	83bc4 <CEcoMemoryAllocator1_4D656D31_QueryInterface+0x774>
   83bb4:	f9400fa0 	ldr	x0, [x29, #24]
   83bb8:	f900001f 	str	xzr, [x0]
   83bbc:	12800000 	mov	w0, #0xffffffff            	// #-1
   83bc0:	14000002 	b	83bc8 <CEcoMemoryAllocator1_4D656D31_QueryInterface+0x778>
   83bc4:	52800000 	mov	w0, #0x0                   	// #0
   83bc8:	a8c47bfd 	ldp	x29, x30, [sp], #64
   83bcc:	d65f03c0 	ret

0000000000083bd0 <CEcoMemoryAllocator1_4D656D31_AddRef>:
   83bd0:	d10083ff 	sub	sp, sp, #0x20
   83bd4:	f90007e0 	str	x0, [sp, #8]
   83bd8:	f94007e0 	ldr	x0, [sp, #8]
   83bdc:	d1002000 	sub	x0, x0, #0x8
   83be0:	f9000fe0 	str	x0, [sp, #24]
   83be4:	f94007e0 	ldr	x0, [sp, #8]
   83be8:	f100001f 	cmp	x0, #0x0
   83bec:	54000061 	b.ne	83bf8 <CEcoMemoryAllocator1_4D656D31_AddRef+0x28>  // b.any
   83bf0:	12800000 	mov	w0, #0xffffffff            	// #-1
   83bf4:	14000008 	b	83c14 <CEcoMemoryAllocator1_4D656D31_AddRef+0x44>
   83bf8:	f9400fe0 	ldr	x0, [sp, #24]
   83bfc:	b9401000 	ldr	w0, [x0, #16]
   83c00:	11000401 	add	w1, w0, #0x1
   83c04:	f9400fe0 	ldr	x0, [sp, #24]
   83c08:	b9001001 	str	w1, [x0, #16]
   83c0c:	f9400fe0 	ldr	x0, [sp, #24]
   83c10:	b9401000 	ldr	w0, [x0, #16]
   83c14:	910083ff 	add	sp, sp, #0x20
   83c18:	d65f03c0 	ret

0000000000083c1c <CEcoMemoryAllocator1_4D656D31_Release>:
   83c1c:	a9bd7bfd 	stp	x29, x30, [sp, #-48]!
   83c20:	910003fd 	mov	x29, sp
   83c24:	f9000fa0 	str	x0, [x29, #24]
   83c28:	f9400fa0 	ldr	x0, [x29, #24]
   83c2c:	d1002000 	sub	x0, x0, #0x8
   83c30:	f90017a0 	str	x0, [x29, #40]
   83c34:	f9400fa0 	ldr	x0, [x29, #24]
   83c38:	f100001f 	cmp	x0, #0x0
   83c3c:	54000061 	b.ne	83c48 <CEcoMemoryAllocator1_4D656D31_Release+0x2c>  // b.any
   83c40:	12800000 	mov	w0, #0xffffffff            	// #-1
   83c44:	14000010 	b	83c84 <CEcoMemoryAllocator1_4D656D31_Release+0x68>
   83c48:	f94017a0 	ldr	x0, [x29, #40]
   83c4c:	b9401000 	ldr	w0, [x0, #16]
   83c50:	51000401 	sub	w1, w0, #0x1
   83c54:	f94017a0 	ldr	x0, [x29, #40]
   83c58:	b9001001 	str	w1, [x0, #16]
   83c5c:	f94017a0 	ldr	x0, [x29, #40]
   83c60:	b9401000 	ldr	w0, [x0, #16]
   83c64:	7100001f 	cmp	w0, #0x0
   83c68:	540000a1 	b.ne	83c7c <CEcoMemoryAllocator1_4D656D31_Release+0x60>  // b.any
   83c6c:	f94017a0 	ldr	x0, [x29, #40]
   83c70:	97fffdcd 	bl	833a4 <deleteCEcoMemoryManager1_4D656D31>
   83c74:	52800000 	mov	w0, #0x0                   	// #0
   83c78:	14000003 	b	83c84 <CEcoMemoryAllocator1_4D656D31_Release+0x68>
   83c7c:	f94017a0 	ldr	x0, [x29, #40]
   83c80:	b9401000 	ldr	w0, [x0, #16]
   83c84:	a8c37bfd 	ldp	x29, x30, [sp], #48
   83c88:	d65f03c0 	ret

0000000000083c8c <CEcoMemoryAllocator1_4D656D31_Alloc>:
   83c8c:	a9bd7bfd 	stp	x29, x30, [sp, #-48]!
   83c90:	910003fd 	mov	x29, sp
   83c94:	f9000fa0 	str	x0, [x29, #24]
   83c98:	b90017a1 	str	w1, [x29, #20]
   83c9c:	f9400fa0 	ldr	x0, [x29, #24]
   83ca0:	d1002000 	sub	x0, x0, #0x8
   83ca4:	f90017a0 	str	x0, [x29, #40]
   83ca8:	f90013bf 	str	xzr, [x29, #32]
   83cac:	b94017a0 	ldr	w0, [x29, #20]
   83cb0:	94002852 	bl	8ddf8 <malloc>
   83cb4:	f90013a0 	str	x0, [x29, #32]
   83cb8:	f94017a0 	ldr	x0, [x29, #40]
   83cbc:	b9403000 	ldr	w0, [x0, #48]
   83cc0:	11000401 	add	w1, w0, #0x1
   83cc4:	f94017a0 	ldr	x0, [x29, #40]
   83cc8:	b9003001 	str	w1, [x0, #48]
   83ccc:	f94013a0 	ldr	x0, [x29, #32]
   83cd0:	a8c37bfd 	ldp	x29, x30, [sp], #48
   83cd4:	d65f03c0 	ret

0000000000083cd8 <CEcoMemoryAllocator1_4D656D31_Free>:
   83cd8:	a9bd7bfd 	stp	x29, x30, [sp, #-48]!
   83cdc:	910003fd 	mov	x29, sp
   83ce0:	f9000fa0 	str	x0, [x29, #24]
   83ce4:	f9000ba1 	str	x1, [x29, #16]
   83ce8:	f9400fa0 	ldr	x0, [x29, #24]
   83cec:	d1002000 	sub	x0, x0, #0x8
   83cf0:	f90017a0 	str	x0, [x29, #40]
   83cf4:	f94017a0 	ldr	x0, [x29, #40]
   83cf8:	b9403000 	ldr	w0, [x0, #48]
   83cfc:	51000401 	sub	w1, w0, #0x1
   83d00:	f94017a0 	ldr	x0, [x29, #40]
   83d04:	b9003001 	str	w1, [x0, #48]
   83d08:	f9400ba0 	ldr	x0, [x29, #16]
   83d0c:	9400283f 	bl	8de08 <free>
   83d10:	d503201f 	nop
   83d14:	a8c37bfd 	ldp	x29, x30, [sp], #48
   83d18:	d65f03c0 	ret

0000000000083d1c <CEcoMemoryAllocator1_4D656D31_Realloc>:
   83d1c:	a9bb7bfd 	stp	x29, x30, [sp, #-80]!
   83d20:	910003fd 	mov	x29, sp
   83d24:	f90017a0 	str	x0, [x29, #40]
   83d28:	f90013a1 	str	x1, [x29, #32]
   83d2c:	b9001fa2 	str	w2, [x29, #28]
   83d30:	f90027bf 	str	xzr, [x29, #72]
   83d34:	b90047bf 	str	wzr, [x29, #68]
   83d38:	f94013a0 	ldr	x0, [x29, #32]
   83d3c:	f9001fa0 	str	x0, [x29, #56]
   83d40:	f9401fa0 	ldr	x0, [x29, #56]
   83d44:	d1001000 	sub	x0, x0, #0x4
   83d48:	f9001fa0 	str	x0, [x29, #56]
   83d4c:	f9401fa0 	ldr	x0, [x29, #56]
   83d50:	f9001ba0 	str	x0, [x29, #48]
   83d54:	f9401ba0 	ldr	x0, [x29, #48]
   83d58:	b9400000 	ldr	w0, [x0]
   83d5c:	b90047a0 	str	w0, [x29, #68]
   83d60:	f94017a0 	ldr	x0, [x29, #40]
   83d64:	f100001f 	cmp	x0, #0x0
   83d68:	540004c0 	b.eq	83e00 <CEcoMemoryAllocator1_4D656D31_Realloc+0xe4>  // b.none
   83d6c:	f94017a0 	ldr	x0, [x29, #40]
   83d70:	f9400000 	ldr	x0, [x0]
   83d74:	f9400c02 	ldr	x2, [x0, #24]
   83d78:	b9401fa1 	ldr	w1, [x29, #28]
   83d7c:	f94017a0 	ldr	x0, [x29, #40]
   83d80:	d63f0040 	blr	x2
   83d84:	f90027a0 	str	x0, [x29, #72]
   83d88:	f94027a0 	ldr	x0, [x29, #72]
   83d8c:	f100001f 	cmp	x0, #0x0
   83d90:	54000380 	b.eq	83e00 <CEcoMemoryAllocator1_4D656D31_Realloc+0xe4>  // b.none
   83d94:	b94047a1 	ldr	w1, [x29, #68]
   83d98:	b9401fa0 	ldr	w0, [x29, #28]
   83d9c:	6b00003f 	cmp	w1, w0
   83da0:	54000142 	b.cs	83dc8 <CEcoMemoryAllocator1_4D656D31_Realloc+0xac>  // b.hs, b.nlast
   83da4:	f94017a0 	ldr	x0, [x29, #40]
   83da8:	f9400000 	ldr	x0, [x0]
   83dac:	f9401804 	ldr	x4, [x0, #48]
   83db0:	b94047a3 	ldr	w3, [x29, #68]
   83db4:	f94013a2 	ldr	x2, [x29, #32]
   83db8:	f94027a1 	ldr	x1, [x29, #72]
   83dbc:	f94017a0 	ldr	x0, [x29, #40]
   83dc0:	d63f0080 	blr	x4
   83dc4:	14000009 	b	83de8 <CEcoMemoryAllocator1_4D656D31_Realloc+0xcc>
   83dc8:	f94017a0 	ldr	x0, [x29, #40]
   83dcc:	f9400000 	ldr	x0, [x0]
   83dd0:	f9401804 	ldr	x4, [x0, #48]
   83dd4:	b9401fa3 	ldr	w3, [x29, #28]
   83dd8:	f94013a2 	ldr	x2, [x29, #32]
   83ddc:	f94027a1 	ldr	x1, [x29, #72]
   83de0:	f94017a0 	ldr	x0, [x29, #40]
   83de4:	d63f0080 	blr	x4
   83de8:	f94017a0 	ldr	x0, [x29, #40]
   83dec:	f9400000 	ldr	x0, [x0]
   83df0:	f9401002 	ldr	x2, [x0, #32]
   83df4:	f94013a1 	ldr	x1, [x29, #32]
   83df8:	f94017a0 	ldr	x0, [x29, #40]
   83dfc:	d63f0040 	blr	x2
   83e00:	f94027a0 	ldr	x0, [x29, #72]
   83e04:	a8c57bfd 	ldp	x29, x30, [sp], #80
   83e08:	d65f03c0 	ret

0000000000083e0c <CEcoMemoryAllocator1_4D656D31_Copy>:
   83e0c:	d100c3ff 	sub	sp, sp, #0x30
   83e10:	f9000fe0 	str	x0, [sp, #24]
   83e14:	f9000be1 	str	x1, [sp, #16]
   83e18:	f90007e2 	str	x2, [sp, #8]
   83e1c:	b90007e3 	str	w3, [sp, #4]
   83e20:	b9002fff 	str	wzr, [sp, #44]
   83e24:	f9400fe0 	ldr	x0, [sp, #24]
   83e28:	f100001f 	cmp	x0, #0x0
   83e2c:	54000240 	b.eq	83e74 <CEcoMemoryAllocator1_4D656D31_Copy+0x68>  // b.none
   83e30:	b9002fff 	str	wzr, [sp, #44]
   83e34:	1400000c 	b	83e64 <CEcoMemoryAllocator1_4D656D31_Copy+0x58>
   83e38:	b9402fe0 	ldr	w0, [sp, #44]
   83e3c:	f94007e1 	ldr	x1, [sp, #8]
   83e40:	8b000021 	add	x1, x1, x0
   83e44:	b9402fe0 	ldr	w0, [sp, #44]
   83e48:	f9400be2 	ldr	x2, [sp, #16]
   83e4c:	8b000040 	add	x0, x2, x0
   83e50:	39400021 	ldrb	w1, [x1]
   83e54:	39000001 	strb	w1, [x0]
   83e58:	b9402fe0 	ldr	w0, [sp, #44]
   83e5c:	11000400 	add	w0, w0, #0x1
   83e60:	b9002fe0 	str	w0, [sp, #44]
   83e64:	b9402fe1 	ldr	w1, [sp, #44]
   83e68:	b94007e0 	ldr	w0, [sp, #4]
   83e6c:	6b00003f 	cmp	w1, w0
   83e70:	54fffe43 	b.cc	83e38 <CEcoMemoryAllocator1_4D656D31_Copy+0x2c>  // b.lo, b.ul, b.last
   83e74:	f9400be0 	ldr	x0, [sp, #16]
   83e78:	9100c3ff 	add	sp, sp, #0x30
   83e7c:	d65f03c0 	ret

0000000000083e80 <CEcoMemoryAllocator1_4D656D31_Fill>:
   83e80:	d100c3ff 	sub	sp, sp, #0x30
   83e84:	f9000fe0 	str	x0, [sp, #24]
   83e88:	f9000be1 	str	x1, [sp, #16]
   83e8c:	39003fe2 	strb	w2, [sp, #15]
   83e90:	b9000be3 	str	w3, [sp, #8]
   83e94:	b9002fff 	str	wzr, [sp, #44]
   83e98:	f9400fe0 	ldr	x0, [sp, #24]
   83e9c:	f100001f 	cmp	x0, #0x0
   83ea0:	540001e0 	b.eq	83edc <CEcoMemoryAllocator1_4D656D31_Fill+0x5c>  // b.none
   83ea4:	b9002fff 	str	wzr, [sp, #44]
   83ea8:	14000009 	b	83ecc <CEcoMemoryAllocator1_4D656D31_Fill+0x4c>
   83eac:	b9402fe0 	ldr	w0, [sp, #44]
   83eb0:	f9400be1 	ldr	x1, [sp, #16]
   83eb4:	8b000020 	add	x0, x1, x0
   83eb8:	39403fe1 	ldrb	w1, [sp, #15]
   83ebc:	39000001 	strb	w1, [x0]
   83ec0:	b9402fe0 	ldr	w0, [sp, #44]
   83ec4:	11000400 	add	w0, w0, #0x1
   83ec8:	b9002fe0 	str	w0, [sp, #44]
   83ecc:	b9402fe1 	ldr	w1, [sp, #44]
   83ed0:	b9400be0 	ldr	w0, [sp, #8]
   83ed4:	6b00003f 	cmp	w1, w0
   83ed8:	54fffea3 	b.cc	83eac <CEcoMemoryAllocator1_4D656D31_Fill+0x2c>  // b.lo, b.ul, b.last
   83edc:	f9400be0 	ldr	x0, [sp, #16]
   83ee0:	9100c3ff 	add	sp, sp, #0x30
   83ee4:	d65f03c0 	ret

0000000000083ee8 <CEcoMemoryAllocator1_4D656D31_Compare>:
   83ee8:	d100c3ff 	sub	sp, sp, #0x30
   83eec:	f9000fe0 	str	x0, [sp, #24]
   83ef0:	f9000be1 	str	x1, [sp, #16]
   83ef4:	f90007e2 	str	x2, [sp, #8]
   83ef8:	b90007e3 	str	w3, [sp, #4]
   83efc:	12800000 	mov	w0, #0xffffffff            	// #-1
   83f00:	79005fe0 	strh	w0, [sp, #46]
   83f04:	b9002bff 	str	wzr, [sp, #40]
   83f08:	f9400fe0 	ldr	x0, [sp, #24]
   83f0c:	f100001f 	cmp	x0, #0x0
   83f10:	540005e0 	b.eq	83fcc <CEcoMemoryAllocator1_4D656D31_Compare+0xe4>  // b.none
   83f14:	b9002bff 	str	wzr, [sp, #40]
   83f18:	14000029 	b	83fbc <CEcoMemoryAllocator1_4D656D31_Compare+0xd4>
   83f1c:	b9402be0 	ldr	w0, [sp, #40]
   83f20:	f9400be1 	ldr	x1, [sp, #16]
   83f24:	8b000020 	add	x0, x1, x0
   83f28:	39400001 	ldrb	w1, [x0]
   83f2c:	b9402be0 	ldr	w0, [sp, #40]
   83f30:	f94007e2 	ldr	x2, [sp, #8]
   83f34:	8b000040 	add	x0, x2, x0
   83f38:	39400000 	ldrb	w0, [x0]
   83f3c:	6b00003f 	cmp	w1, w0
   83f40:	54000082 	b.cs	83f50 <CEcoMemoryAllocator1_4D656D31_Compare+0x68>  // b.hs, b.nlast
   83f44:	12800000 	mov	w0, #0xffffffff            	// #-1
   83f48:	79005fe0 	strh	w0, [sp, #46]
   83f4c:	14000020 	b	83fcc <CEcoMemoryAllocator1_4D656D31_Compare+0xe4>
   83f50:	b9402be0 	ldr	w0, [sp, #40]
   83f54:	f9400be1 	ldr	x1, [sp, #16]
   83f58:	8b000020 	add	x0, x1, x0
   83f5c:	39400001 	ldrb	w1, [x0]
   83f60:	b9402be0 	ldr	w0, [sp, #40]
   83f64:	f94007e2 	ldr	x2, [sp, #8]
   83f68:	8b000040 	add	x0, x2, x0
   83f6c:	39400000 	ldrb	w0, [x0]
   83f70:	6b00003f 	cmp	w1, w0
   83f74:	54000089 	b.ls	83f84 <CEcoMemoryAllocator1_4D656D31_Compare+0x9c>  // b.plast
   83f78:	52800020 	mov	w0, #0x1                   	// #1
   83f7c:	79005fe0 	strh	w0, [sp, #46]
   83f80:	14000013 	b	83fcc <CEcoMemoryAllocator1_4D656D31_Compare+0xe4>
   83f84:	b9402be0 	ldr	w0, [sp, #40]
   83f88:	f9400be1 	ldr	x1, [sp, #16]
   83f8c:	8b000020 	add	x0, x1, x0
   83f90:	39400001 	ldrb	w1, [x0]
   83f94:	b9402be0 	ldr	w0, [sp, #40]
   83f98:	f94007e2 	ldr	x2, [sp, #8]
   83f9c:	8b000040 	add	x0, x2, x0
   83fa0:	39400000 	ldrb	w0, [x0]
   83fa4:	6b00003f 	cmp	w1, w0
   83fa8:	54000041 	b.ne	83fb0 <CEcoMemoryAllocator1_4D656D31_Compare+0xc8>  // b.any
   83fac:	79005fff 	strh	wzr, [sp, #46]
   83fb0:	b9402be0 	ldr	w0, [sp, #40]
   83fb4:	11000400 	add	w0, w0, #0x1
   83fb8:	b9002be0 	str	w0, [sp, #40]
   83fbc:	b9402be1 	ldr	w1, [sp, #40]
   83fc0:	b94007e0 	ldr	w0, [sp, #4]
   83fc4:	6b00003f 	cmp	w1, w0
   83fc8:	54fffaa3 	b.cc	83f1c <CEcoMemoryAllocator1_4D656D31_Compare+0x34>  // b.lo, b.ul, b.last
   83fcc:	79c05fe0 	ldrsh	w0, [sp, #46]
   83fd0:	9100c3ff 	add	sp, sp, #0x30
   83fd4:	d65f03c0 	ret

0000000000083fd8 <CEcoIPCCMailbox1Factory_QueryInterface>:
   83fd8:	a9bd7bfd 	stp	x29, x30, [sp, #-48]!
   83fdc:	910003fd 	mov	x29, sp
   83fe0:	f90017a0 	str	x0, [x29, #40]
   83fe4:	f90013a1 	str	x1, [x29, #32]
   83fe8:	f9000fa2 	str	x2, [x29, #24]
   83fec:	f94013a0 	ldr	x0, [x29, #32]
   83ff0:	39400001 	ldrb	w1, [x0]
   83ff4:	f0000440 	adrp	x0, 10e000 <ECO_CGI_1_PIXEL_VALIDITY_FLAG_e>
   83ff8:	91122000 	add	x0, x0, #0x488
   83ffc:	39400000 	ldrb	w0, [x0]
   84000:	6b00003f 	cmp	w1, w0
   84004:	54001121 	b.ne	84228 <CEcoIPCCMailbox1Factory_QueryInterface+0x250>  // b.any
   84008:	f94013a0 	ldr	x0, [x29, #32]
   8400c:	91000400 	add	x0, x0, #0x1
   84010:	39400001 	ldrb	w1, [x0]
   84014:	d0000440 	adrp	x0, 10e000 <ECO_CGI_1_PIXEL_VALIDITY_FLAG_e>
   84018:	91122400 	add	x0, x0, #0x489
   8401c:	39400000 	ldrb	w0, [x0]
   84020:	6b00003f 	cmp	w1, w0
   84024:	54001021 	b.ne	84228 <CEcoIPCCMailbox1Factory_QueryInterface+0x250>  // b.any
   84028:	f94013a0 	ldr	x0, [x29, #32]
   8402c:	91000800 	add	x0, x0, #0x2
   84030:	39400001 	ldrb	w1, [x0]
   84034:	d0000440 	adrp	x0, 10e000 <ECO_CGI_1_PIXEL_VALIDITY_FLAG_e>
   84038:	91122800 	add	x0, x0, #0x48a
   8403c:	39400000 	ldrb	w0, [x0]
   84040:	6b00003f 	cmp	w1, w0
   84044:	54000f21 	b.ne	84228 <CEcoIPCCMailbox1Factory_QueryInterface+0x250>  // b.any
   84048:	f94013a0 	ldr	x0, [x29, #32]
   8404c:	91000c00 	add	x0, x0, #0x3
   84050:	39400001 	ldrb	w1, [x0]
   84054:	d0000440 	adrp	x0, 10e000 <ECO_CGI_1_PIXEL_VALIDITY_FLAG_e>
   84058:	91122c00 	add	x0, x0, #0x48b
   8405c:	39400000 	ldrb	w0, [x0]
   84060:	6b00003f 	cmp	w1, w0
   84064:	54000e21 	b.ne	84228 <CEcoIPCCMailbox1Factory_QueryInterface+0x250>  // b.any
   84068:	f94013a0 	ldr	x0, [x29, #32]
   8406c:	91001000 	add	x0, x0, #0x4
   84070:	39400001 	ldrb	w1, [x0]
   84074:	d0000440 	adrp	x0, 10e000 <ECO_CGI_1_PIXEL_VALIDITY_FLAG_e>
   84078:	91123000 	add	x0, x0, #0x48c
   8407c:	39400000 	ldrb	w0, [x0]
   84080:	6b00003f 	cmp	w1, w0
   84084:	54000d21 	b.ne	84228 <CEcoIPCCMailbox1Factory_QueryInterface+0x250>  // b.any
   84088:	f94013a0 	ldr	x0, [x29, #32]
   8408c:	91001400 	add	x0, x0, #0x5
   84090:	39400001 	ldrb	w1, [x0]
   84094:	d0000440 	adrp	x0, 10e000 <ECO_CGI_1_PIXEL_VALIDITY_FLAG_e>
   84098:	91123400 	add	x0, x0, #0x48d
   8409c:	39400000 	ldrb	w0, [x0]
   840a0:	6b00003f 	cmp	w1, w0
   840a4:	54000c21 	b.ne	84228 <CEcoIPCCMailbox1Factory_QueryInterface+0x250>  // b.any
   840a8:	f94013a0 	ldr	x0, [x29, #32]
   840ac:	91001800 	add	x0, x0, #0x6
   840b0:	39400001 	ldrb	w1, [x0]
   840b4:	d0000440 	adrp	x0, 10e000 <ECO_CGI_1_PIXEL_VALIDITY_FLAG_e>
   840b8:	91123800 	add	x0, x0, #0x48e
   840bc:	39400000 	ldrb	w0, [x0]
   840c0:	6b00003f 	cmp	w1, w0
   840c4:	54000b21 	b.ne	84228 <CEcoIPCCMailbox1Factory_QueryInterface+0x250>  // b.any
   840c8:	f94013a0 	ldr	x0, [x29, #32]
   840cc:	91001c00 	add	x0, x0, #0x7
   840d0:	39400001 	ldrb	w1, [x0]
   840d4:	d0000440 	adrp	x0, 10e000 <ECO_CGI_1_PIXEL_VALIDITY_FLAG_e>
   840d8:	91123c00 	add	x0, x0, #0x48f
   840dc:	39400000 	ldrb	w0, [x0]
   840e0:	6b00003f 	cmp	w1, w0
   840e4:	54000a21 	b.ne	84228 <CEcoIPCCMailbox1Factory_QueryInterface+0x250>  // b.any
   840e8:	f94013a0 	ldr	x0, [x29, #32]
   840ec:	91002000 	add	x0, x0, #0x8
   840f0:	39400001 	ldrb	w1, [x0]
   840f4:	d0000440 	adrp	x0, 10e000 <ECO_CGI_1_PIXEL_VALIDITY_FLAG_e>
   840f8:	91124000 	add	x0, x0, #0x490
   840fc:	39400000 	ldrb	w0, [x0]
   84100:	6b00003f 	cmp	w1, w0
   84104:	54000921 	b.ne	84228 <CEcoIPCCMailbox1Factory_QueryInterface+0x250>  // b.any
   84108:	f94013a0 	ldr	x0, [x29, #32]
   8410c:	91002400 	add	x0, x0, #0x9
   84110:	39400001 	ldrb	w1, [x0]
   84114:	d0000440 	adrp	x0, 10e000 <ECO_CGI_1_PIXEL_VALIDITY_FLAG_e>
   84118:	91124400 	add	x0, x0, #0x491
   8411c:	39400000 	ldrb	w0, [x0]
   84120:	6b00003f 	cmp	w1, w0
   84124:	54000821 	b.ne	84228 <CEcoIPCCMailbox1Factory_QueryInterface+0x250>  // b.any
   84128:	f94013a0 	ldr	x0, [x29, #32]
   8412c:	91002800 	add	x0, x0, #0xa
   84130:	39400001 	ldrb	w1, [x0]
   84134:	d0000440 	adrp	x0, 10e000 <ECO_CGI_1_PIXEL_VALIDITY_FLAG_e>
   84138:	91124800 	add	x0, x0, #0x492
   8413c:	39400000 	ldrb	w0, [x0]
   84140:	6b00003f 	cmp	w1, w0
   84144:	54000721 	b.ne	84228 <CEcoIPCCMailbox1Factory_QueryInterface+0x250>  // b.any
   84148:	f94013a0 	ldr	x0, [x29, #32]
   8414c:	91002c00 	add	x0, x0, #0xb
   84150:	39400001 	ldrb	w1, [x0]
   84154:	d0000440 	adrp	x0, 10e000 <ECO_CGI_1_PIXEL_VALIDITY_FLAG_e>
   84158:	91124c00 	add	x0, x0, #0x493
   8415c:	39400000 	ldrb	w0, [x0]
   84160:	6b00003f 	cmp	w1, w0
   84164:	54000621 	b.ne	84228 <CEcoIPCCMailbox1Factory_QueryInterface+0x250>  // b.any
   84168:	f94013a0 	ldr	x0, [x29, #32]
   8416c:	91003000 	add	x0, x0, #0xc
   84170:	39400001 	ldrb	w1, [x0]
   84174:	d0000440 	adrp	x0, 10e000 <ECO_CGI_1_PIXEL_VALIDITY_FLAG_e>
   84178:	91125000 	add	x0, x0, #0x494
   8417c:	39400000 	ldrb	w0, [x0]
   84180:	6b00003f 	cmp	w1, w0
   84184:	54000521 	b.ne	84228 <CEcoIPCCMailbox1Factory_QueryInterface+0x250>  // b.any
   84188:	f94013a0 	ldr	x0, [x29, #32]
   8418c:	91003400 	add	x0, x0, #0xd
   84190:	39400001 	ldrb	w1, [x0]
   84194:	d0000440 	adrp	x0, 10e000 <ECO_CGI_1_PIXEL_VALIDITY_FLAG_e>
   84198:	91125400 	add	x0, x0, #0x495
   8419c:	39400000 	ldrb	w0, [x0]
   841a0:	6b00003f 	cmp	w1, w0
   841a4:	54000421 	b.ne	84228 <CEcoIPCCMailbox1Factory_QueryInterface+0x250>  // b.any
   841a8:	f94013a0 	ldr	x0, [x29, #32]
   841ac:	91003800 	add	x0, x0, #0xe
   841b0:	39400001 	ldrb	w1, [x0]
   841b4:	d0000440 	adrp	x0, 10e000 <ECO_CGI_1_PIXEL_VALIDITY_FLAG_e>
   841b8:	91125800 	add	x0, x0, #0x496
   841bc:	39400000 	ldrb	w0, [x0]
   841c0:	6b00003f 	cmp	w1, w0
   841c4:	54000321 	b.ne	84228 <CEcoIPCCMailbox1Factory_QueryInterface+0x250>  // b.any
   841c8:	f94013a0 	ldr	x0, [x29, #32]
   841cc:	91003c00 	add	x0, x0, #0xf
   841d0:	39400001 	ldrb	w1, [x0]
   841d4:	d0000440 	adrp	x0, 10e000 <ECO_CGI_1_PIXEL_VALIDITY_FLAG_e>
   841d8:	91125c00 	add	x0, x0, #0x497
   841dc:	39400000 	ldrb	w0, [x0]
   841e0:	6b00003f 	cmp	w1, w0
   841e4:	54000221 	b.ne	84228 <CEcoIPCCMailbox1Factory_QueryInterface+0x250>  // b.any
   841e8:	f94013a0 	ldr	x0, [x29, #32]
   841ec:	91004000 	add	x0, x0, #0x10
   841f0:	39400001 	ldrb	w1, [x0]
   841f4:	d0000440 	adrp	x0, 10e000 <ECO_CGI_1_PIXEL_VALIDITY_FLAG_e>
   841f8:	91126000 	add	x0, x0, #0x498
   841fc:	39400000 	ldrb	w0, [x0]
   84200:	6b00003f 	cmp	w1, w0
   84204:	54000121 	b.ne	84228 <CEcoIPCCMailbox1Factory_QueryInterface+0x250>  // b.any
   84208:	f94013a0 	ldr	x0, [x29, #32]
   8420c:	91004400 	add	x0, x0, #0x11
   84210:	39400001 	ldrb	w1, [x0]
   84214:	d0000440 	adrp	x0, 10e000 <ECO_CGI_1_PIXEL_VALIDITY_FLAG_e>
   84218:	91126400 	add	x0, x0, #0x499
   8421c:	39400000 	ldrb	w0, [x0]
   84220:	6b00003f 	cmp	w1, w0
   84224:	54001200 	b.eq	84464 <CEcoIPCCMailbox1Factory_QueryInterface+0x48c>  // b.none
   84228:	f94013a0 	ldr	x0, [x29, #32]
   8422c:	39400001 	ldrb	w1, [x0]
   84230:	d0000440 	adrp	x0, 10e000 <ECO_CGI_1_PIXEL_VALIDITY_FLAG_e>
   84234:	91128000 	add	x0, x0, #0x4a0
   84238:	39400000 	ldrb	w0, [x0]
   8423c:	6b00003f 	cmp	w1, w0
   84240:	540012a1 	b.ne	84494 <CEcoIPCCMailbox1Factory_QueryInterface+0x4bc>  // b.any
   84244:	f94013a0 	ldr	x0, [x29, #32]
   84248:	91000400 	add	x0, x0, #0x1
   8424c:	39400001 	ldrb	w1, [x0]
   84250:	d0000440 	adrp	x0, 10e000 <ECO_CGI_1_PIXEL_VALIDITY_FLAG_e>
   84254:	91128400 	add	x0, x0, #0x4a1
   84258:	39400000 	ldrb	w0, [x0]
   8425c:	6b00003f 	cmp	w1, w0
   84260:	540011a1 	b.ne	84494 <CEcoIPCCMailbox1Factory_QueryInterface+0x4bc>  // b.any
   84264:	f94013a0 	ldr	x0, [x29, #32]
   84268:	91000800 	add	x0, x0, #0x2
   8426c:	39400001 	ldrb	w1, [x0]
   84270:	d0000440 	adrp	x0, 10e000 <ECO_CGI_1_PIXEL_VALIDITY_FLAG_e>
   84274:	91128800 	add	x0, x0, #0x4a2
   84278:	39400000 	ldrb	w0, [x0]
   8427c:	6b00003f 	cmp	w1, w0
   84280:	540010a1 	b.ne	84494 <CEcoIPCCMailbox1Factory_QueryInterface+0x4bc>  // b.any
   84284:	f94013a0 	ldr	x0, [x29, #32]
   84288:	91000c00 	add	x0, x0, #0x3
   8428c:	39400001 	ldrb	w1, [x0]
   84290:	d0000440 	adrp	x0, 10e000 <ECO_CGI_1_PIXEL_VALIDITY_FLAG_e>
   84294:	91128c00 	add	x0, x0, #0x4a3
   84298:	39400000 	ldrb	w0, [x0]
   8429c:	6b00003f 	cmp	w1, w0
   842a0:	54000fa1 	b.ne	84494 <CEcoIPCCMailbox1Factory_QueryInterface+0x4bc>  // b.any
   842a4:	f94013a0 	ldr	x0, [x29, #32]
   842a8:	91001000 	add	x0, x0, #0x4
   842ac:	39400001 	ldrb	w1, [x0]
   842b0:	d0000440 	adrp	x0, 10e000 <ECO_CGI_1_PIXEL_VALIDITY_FLAG_e>
   842b4:	91129000 	add	x0, x0, #0x4a4
   842b8:	39400000 	ldrb	w0, [x0]
   842bc:	6b00003f 	cmp	w1, w0
   842c0:	54000ea1 	b.ne	84494 <CEcoIPCCMailbox1Factory_QueryInterface+0x4bc>  // b.any
   842c4:	f94013a0 	ldr	x0, [x29, #32]
   842c8:	91001400 	add	x0, x0, #0x5
   842cc:	39400001 	ldrb	w1, [x0]
   842d0:	d0000440 	adrp	x0, 10e000 <ECO_CGI_1_PIXEL_VALIDITY_FLAG_e>
   842d4:	91129400 	add	x0, x0, #0x4a5
   842d8:	39400000 	ldrb	w0, [x0]
   842dc:	6b00003f 	cmp	w1, w0
   842e0:	54000da1 	b.ne	84494 <CEcoIPCCMailbox1Factory_QueryInterface+0x4bc>  // b.any
   842e4:	f94013a0 	ldr	x0, [x29, #32]
   842e8:	91001800 	add	x0, x0, #0x6
   842ec:	39400001 	ldrb	w1, [x0]
   842f0:	d0000440 	adrp	x0, 10e000 <ECO_CGI_1_PIXEL_VALIDITY_FLAG_e>
   842f4:	91129800 	add	x0, x0, #0x4a6
   842f8:	39400000 	ldrb	w0, [x0]
   842fc:	6b00003f 	cmp	w1, w0
   84300:	54000ca1 	b.ne	84494 <CEcoIPCCMailbox1Factory_QueryInterface+0x4bc>  // b.any
   84304:	f94013a0 	ldr	x0, [x29, #32]
   84308:	91001c00 	add	x0, x0, #0x7
   8430c:	39400001 	ldrb	w1, [x0]
   84310:	d0000440 	adrp	x0, 10e000 <ECO_CGI_1_PIXEL_VALIDITY_FLAG_e>
   84314:	91129c00 	add	x0, x0, #0x4a7
   84318:	39400000 	ldrb	w0, [x0]
   8431c:	6b00003f 	cmp	w1, w0
   84320:	54000ba1 	b.ne	84494 <CEcoIPCCMailbox1Factory_QueryInterface+0x4bc>  // b.any
   84324:	f94013a0 	ldr	x0, [x29, #32]
   84328:	91002000 	add	x0, x0, #0x8
   8432c:	39400001 	ldrb	w1, [x0]
   84330:	d0000440 	adrp	x0, 10e000 <ECO_CGI_1_PIXEL_VALIDITY_FLAG_e>
   84334:	9112a000 	add	x0, x0, #0x4a8
   84338:	39400000 	ldrb	w0, [x0]
   8433c:	6b00003f 	cmp	w1, w0
   84340:	54000aa1 	b.ne	84494 <CEcoIPCCMailbox1Factory_QueryInterface+0x4bc>  // b.any
   84344:	f94013a0 	ldr	x0, [x29, #32]
   84348:	91002400 	add	x0, x0, #0x9
   8434c:	39400001 	ldrb	w1, [x0]
   84350:	d0000440 	adrp	x0, 10e000 <ECO_CGI_1_PIXEL_VALIDITY_FLAG_e>
   84354:	9112a400 	add	x0, x0, #0x4a9
   84358:	39400000 	ldrb	w0, [x0]
   8435c:	6b00003f 	cmp	w1, w0
   84360:	540009a1 	b.ne	84494 <CEcoIPCCMailbox1Factory_QueryInterface+0x4bc>  // b.any
   84364:	f94013a0 	ldr	x0, [x29, #32]
   84368:	91002800 	add	x0, x0, #0xa
   8436c:	39400001 	ldrb	w1, [x0]
   84370:	d0000440 	adrp	x0, 10e000 <ECO_CGI_1_PIXEL_VALIDITY_FLAG_e>
   84374:	9112a800 	add	x0, x0, #0x4aa
   84378:	39400000 	ldrb	w0, [x0]
   8437c:	6b00003f 	cmp	w1, w0
   84380:	540008a1 	b.ne	84494 <CEcoIPCCMailbox1Factory_QueryInterface+0x4bc>  // b.any
   84384:	f94013a0 	ldr	x0, [x29, #32]
   84388:	91002c00 	add	x0, x0, #0xb
   8438c:	39400001 	ldrb	w1, [x0]
   84390:	d0000440 	adrp	x0, 10e000 <ECO_CGI_1_PIXEL_VALIDITY_FLAG_e>
   84394:	9112ac00 	add	x0, x0, #0x4ab
   84398:	39400000 	ldrb	w0, [x0]
   8439c:	6b00003f 	cmp	w1, w0
   843a0:	540007a1 	b.ne	84494 <CEcoIPCCMailbox1Factory_QueryInterface+0x4bc>  // b.any
   843a4:	f94013a0 	ldr	x0, [x29, #32]
   843a8:	91003000 	add	x0, x0, #0xc
   843ac:	39400001 	ldrb	w1, [x0]
   843b0:	d0000440 	adrp	x0, 10e000 <ECO_CGI_1_PIXEL_VALIDITY_FLAG_e>
   843b4:	9112b000 	add	x0, x0, #0x4ac
   843b8:	39400000 	ldrb	w0, [x0]
   843bc:	6b00003f 	cmp	w1, w0
   843c0:	540006a1 	b.ne	84494 <CEcoIPCCMailbox1Factory_QueryInterface+0x4bc>  // b.any
   843c4:	f94013a0 	ldr	x0, [x29, #32]
   843c8:	91003400 	add	x0, x0, #0xd
   843cc:	39400001 	ldrb	w1, [x0]
   843d0:	d0000440 	adrp	x0, 10e000 <ECO_CGI_1_PIXEL_VALIDITY_FLAG_e>
   843d4:	9112b400 	add	x0, x0, #0x4ad
   843d8:	39400000 	ldrb	w0, [x0]
   843dc:	6b00003f 	cmp	w1, w0
   843e0:	540005a1 	b.ne	84494 <CEcoIPCCMailbox1Factory_QueryInterface+0x4bc>  // b.any
   843e4:	f94013a0 	ldr	x0, [x29, #32]
   843e8:	91003800 	add	x0, x0, #0xe
   843ec:	39400001 	ldrb	w1, [x0]
   843f0:	d0000440 	adrp	x0, 10e000 <ECO_CGI_1_PIXEL_VALIDITY_FLAG_e>
   843f4:	9112b800 	add	x0, x0, #0x4ae
   843f8:	39400000 	ldrb	w0, [x0]
   843fc:	6b00003f 	cmp	w1, w0
   84400:	540004a1 	b.ne	84494 <CEcoIPCCMailbox1Factory_QueryInterface+0x4bc>  // b.any
   84404:	f94013a0 	ldr	x0, [x29, #32]
   84408:	91003c00 	add	x0, x0, #0xf
   8440c:	39400001 	ldrb	w1, [x0]
   84410:	d0000440 	adrp	x0, 10e000 <ECO_CGI_1_PIXEL_VALIDITY_FLAG_e>
   84414:	9112bc00 	add	x0, x0, #0x4af
   84418:	39400000 	ldrb	w0, [x0]
   8441c:	6b00003f 	cmp	w1, w0
   84420:	540003a1 	b.ne	84494 <CEcoIPCCMailbox1Factory_QueryInterface+0x4bc>  // b.any
   84424:	f94013a0 	ldr	x0, [x29, #32]
   84428:	91004000 	add	x0, x0, #0x10
   8442c:	39400001 	ldrb	w1, [x0]
   84430:	d0000440 	adrp	x0, 10e000 <ECO_CGI_1_PIXEL_VALIDITY_FLAG_e>
   84434:	9112c000 	add	x0, x0, #0x4b0
   84438:	39400000 	ldrb	w0, [x0]
   8443c:	6b00003f 	cmp	w1, w0
   84440:	540002a1 	b.ne	84494 <CEcoIPCCMailbox1Factory_QueryInterface+0x4bc>  // b.any
   84444:	f94013a0 	ldr	x0, [x29, #32]
   84448:	91004400 	add	x0, x0, #0x11
   8444c:	39400001 	ldrb	w1, [x0]
   84450:	d0000440 	adrp	x0, 10e000 <ECO_CGI_1_PIXEL_VALIDITY_FLAG_e>
   84454:	9112c400 	add	x0, x0, #0x4b1
   84458:	39400000 	ldrb	w0, [x0]
   8445c:	6b00003f 	cmp	w1, w0
   84460:	540001a1 	b.ne	84494 <CEcoIPCCMailbox1Factory_QueryInterface+0x4bc>  // b.any
   84464:	f9400fa0 	ldr	x0, [x29, #24]
   84468:	f94017a1 	ldr	x1, [x29, #40]
   8446c:	f9000001 	str	x1, [x0]
   84470:	f9400fa0 	ldr	x0, [x29, #24]
   84474:	f9400000 	ldr	x0, [x0]
   84478:	f9400000 	ldr	x0, [x0]
   8447c:	f9400401 	ldr	x1, [x0, #8]
   84480:	f9400fa0 	ldr	x0, [x29, #24]
   84484:	f9400000 	ldr	x0, [x0]
   84488:	d63f0020 	blr	x1
   8448c:	52800000 	mov	w0, #0x0                   	// #0
   84490:	14000004 	b	844a0 <CEcoIPCCMailbox1Factory_QueryInterface+0x4c8>
   84494:	f9400fa0 	ldr	x0, [x29, #24]
   84498:	f900001f 	str	xzr, [x0]
   8449c:	12800000 	mov	w0, #0xffffffff            	// #-1
   844a0:	a8c37bfd 	ldp	x29, x30, [sp], #48
   844a4:	d65f03c0 	ret

00000000000844a8 <CEcoIPCCMailbox1Factory_AddRef>:
   844a8:	d10083ff 	sub	sp, sp, #0x20
   844ac:	f90007e0 	str	x0, [sp, #8]
   844b0:	f94007e0 	ldr	x0, [sp, #8]
   844b4:	f9000fe0 	str	x0, [sp, #24]
   844b8:	f94007e0 	ldr	x0, [sp, #8]
   844bc:	f100001f 	cmp	x0, #0x0
   844c0:	54000061 	b.ne	844cc <CEcoIPCCMailbox1Factory_AddRef+0x24>  // b.any
   844c4:	12800000 	mov	w0, #0xffffffff            	// #-1
   844c8:	14000008 	b	844e8 <CEcoIPCCMailbox1Factory_AddRef+0x40>
   844cc:	f9400fe0 	ldr	x0, [sp, #24]
   844d0:	b9400800 	ldr	w0, [x0, #8]
   844d4:	11000401 	add	w1, w0, #0x1
   844d8:	f9400fe0 	ldr	x0, [sp, #24]
   844dc:	b9000801 	str	w1, [x0, #8]
   844e0:	f9400fe0 	ldr	x0, [sp, #24]
   844e4:	b9400800 	ldr	w0, [x0, #8]
   844e8:	910083ff 	add	sp, sp, #0x20
   844ec:	d65f03c0 	ret

00000000000844f0 <CEcoIPCCMailbox1Factory_Release>:
   844f0:	d10083ff 	sub	sp, sp, #0x20
   844f4:	f90007e0 	str	x0, [sp, #8]
   844f8:	f94007e0 	ldr	x0, [sp, #8]
   844fc:	f9000fe0 	str	x0, [sp, #24]
   84500:	f94007e0 	ldr	x0, [sp, #8]
   84504:	f100001f 	cmp	x0, #0x0
   84508:	54000061 	b.ne	84514 <CEcoIPCCMailbox1Factory_Release+0x24>  // b.any
   8450c:	12800000 	mov	w0, #0xffffffff            	// #-1
   84510:	1400000e 	b	84548 <CEcoIPCCMailbox1Factory_Release+0x58>
   84514:	f9400fe0 	ldr	x0, [sp, #24]
   84518:	b9400800 	ldr	w0, [x0, #8]
   8451c:	51000401 	sub	w1, w0, #0x1
   84520:	f9400fe0 	ldr	x0, [sp, #24]
   84524:	b9000801 	str	w1, [x0, #8]
   84528:	f9400fe0 	ldr	x0, [sp, #24]
   8452c:	b9400800 	ldr	w0, [x0, #8]
   84530:	7100001f 	cmp	w0, #0x0
   84534:	54000061 	b.ne	84540 <CEcoIPCCMailbox1Factory_Release+0x50>  // b.any
   84538:	52800000 	mov	w0, #0x0                   	// #0
   8453c:	14000003 	b	84548 <CEcoIPCCMailbox1Factory_Release+0x58>
   84540:	f9400fe0 	ldr	x0, [sp, #24]
   84544:	b9400800 	ldr	w0, [x0, #8]
   84548:	910083ff 	add	sp, sp, #0x20
   8454c:	d65f03c0 	ret

0000000000084550 <CEcoIPCCMailbox1Factory_Init>:
   84550:	a9bc7bfd 	stp	x29, x30, [sp, #-64]!
   84554:	910003fd 	mov	x29, sp
   84558:	f90017a0 	str	x0, [x29, #40]
   8455c:	f90013a1 	str	x1, [x29, #32]
   84560:	f9000fa2 	str	x2, [x29, #24]
   84564:	f94017a0 	ldr	x0, [x29, #40]
   84568:	f9001fa0 	str	x0, [x29, #56]
   8456c:	12800000 	mov	w0, #0xffffffff            	// #-1
   84570:	79006fa0 	strh	w0, [x29, #54]
   84574:	f94017a0 	ldr	x0, [x29, #40]
   84578:	f100001f 	cmp	x0, #0x0
   8457c:	54000061 	b.ne	84588 <CEcoIPCCMailbox1Factory_Init+0x38>  // b.any
   84580:	12800000 	mov	w0, #0xffffffff            	// #-1
   84584:	14000008 	b	845a4 <CEcoIPCCMailbox1Factory_Init+0x54>
   84588:	f9401fa0 	ldr	x0, [x29, #56]
   8458c:	f9400c02 	ldr	x2, [x0, #24]
   84590:	f94013a1 	ldr	x1, [x29, #32]
   84594:	f9400fa0 	ldr	x0, [x29, #24]
   84598:	d63f0040 	blr	x2
   8459c:	79006fa0 	strh	w0, [x29, #54]
   845a0:	79c06fa0 	ldrsh	w0, [x29, #54]
   845a4:	a8c47bfd 	ldp	x29, x30, [sp], #64
   845a8:	d65f03c0 	ret

00000000000845ac <CEcoIPCCMailbox1Factory_Alloc>:
   845ac:	a9ba7bfd 	stp	x29, x30, [sp, #-96]!
   845b0:	910003fd 	mov	x29, sp
   845b4:	f9001fa0 	str	x0, [x29, #56]
   845b8:	f9001ba1 	str	x1, [x29, #48]
   845bc:	f90017a2 	str	x2, [x29, #40]
   845c0:	f90013a3 	str	x3, [x29, #32]
   845c4:	f9000fa4 	str	x4, [x29, #24]
   845c8:	f9401fa0 	ldr	x0, [x29, #56]
   845cc:	f9002fa0 	str	x0, [x29, #88]
   845d0:	12800000 	mov	w0, #0xffffffff            	// #-1
   845d4:	7900afa0 	strh	w0, [x29, #86]
   845d8:	f90027bf 	str	xzr, [x29, #72]
   845dc:	f9401fa0 	ldr	x0, [x29, #56]
   845e0:	f100001f 	cmp	x0, #0x0
   845e4:	54000061 	b.ne	845f0 <CEcoIPCCMailbox1Factory_Alloc+0x44>  // b.any
   845e8:	12800000 	mov	w0, #0xffffffff            	// #-1
   845ec:	140000b3 	b	848b8 <CEcoIPCCMailbox1Factory_Alloc+0x30c>
   845f0:	f94017a0 	ldr	x0, [x29, #40]
   845f4:	f100001f 	cmp	x0, #0x0
   845f8:	54001240 	b.eq	84840 <CEcoIPCCMailbox1Factory_Alloc+0x294>  // b.none
   845fc:	f94013a0 	ldr	x0, [x29, #32]
   84600:	39400001 	ldrb	w1, [x0]
   84604:	d0000440 	adrp	x0, 10e000 <ECO_CGI_1_PIXEL_VALIDITY_FLAG_e>
   84608:	91122000 	add	x0, x0, #0x488
   8460c:	39400000 	ldrb	w0, [x0]
   84610:	6b00003f 	cmp	w1, w0
   84614:	54001121 	b.ne	84838 <CEcoIPCCMailbox1Factory_Alloc+0x28c>  // b.any
   84618:	f94013a0 	ldr	x0, [x29, #32]
   8461c:	91000400 	add	x0, x0, #0x1
   84620:	39400001 	ldrb	w1, [x0]
   84624:	d0000440 	adrp	x0, 10e000 <ECO_CGI_1_PIXEL_VALIDITY_FLAG_e>
   84628:	91122400 	add	x0, x0, #0x489
   8462c:	39400000 	ldrb	w0, [x0]
   84630:	6b00003f 	cmp	w1, w0
   84634:	54001021 	b.ne	84838 <CEcoIPCCMailbox1Factory_Alloc+0x28c>  // b.any
   84638:	f94013a0 	ldr	x0, [x29, #32]
   8463c:	91000800 	add	x0, x0, #0x2
   84640:	39400001 	ldrb	w1, [x0]
   84644:	d0000440 	adrp	x0, 10e000 <ECO_CGI_1_PIXEL_VALIDITY_FLAG_e>
   84648:	91122800 	add	x0, x0, #0x48a
   8464c:	39400000 	ldrb	w0, [x0]
   84650:	6b00003f 	cmp	w1, w0
   84654:	54000f21 	b.ne	84838 <CEcoIPCCMailbox1Factory_Alloc+0x28c>  // b.any
   84658:	f94013a0 	ldr	x0, [x29, #32]
   8465c:	91000c00 	add	x0, x0, #0x3
   84660:	39400001 	ldrb	w1, [x0]
   84664:	d0000440 	adrp	x0, 10e000 <ECO_CGI_1_PIXEL_VALIDITY_FLAG_e>
   84668:	91122c00 	add	x0, x0, #0x48b
   8466c:	39400000 	ldrb	w0, [x0]
   84670:	6b00003f 	cmp	w1, w0
   84674:	54000e21 	b.ne	84838 <CEcoIPCCMailbox1Factory_Alloc+0x28c>  // b.any
   84678:	f94013a0 	ldr	x0, [x29, #32]
   8467c:	91001000 	add	x0, x0, #0x4
   84680:	39400001 	ldrb	w1, [x0]
   84684:	d0000440 	adrp	x0, 10e000 <ECO_CGI_1_PIXEL_VALIDITY_FLAG_e>
   84688:	91123000 	add	x0, x0, #0x48c
   8468c:	39400000 	ldrb	w0, [x0]
   84690:	6b00003f 	cmp	w1, w0
   84694:	54000d21 	b.ne	84838 <CEcoIPCCMailbox1Factory_Alloc+0x28c>  // b.any
   84698:	f94013a0 	ldr	x0, [x29, #32]
   8469c:	91001400 	add	x0, x0, #0x5
   846a0:	39400001 	ldrb	w1, [x0]
   846a4:	d0000440 	adrp	x0, 10e000 <ECO_CGI_1_PIXEL_VALIDITY_FLAG_e>
   846a8:	91123400 	add	x0, x0, #0x48d
   846ac:	39400000 	ldrb	w0, [x0]
   846b0:	6b00003f 	cmp	w1, w0
   846b4:	54000c21 	b.ne	84838 <CEcoIPCCMailbox1Factory_Alloc+0x28c>  // b.any
   846b8:	f94013a0 	ldr	x0, [x29, #32]
   846bc:	91001800 	add	x0, x0, #0x6
   846c0:	39400001 	ldrb	w1, [x0]
   846c4:	d0000440 	adrp	x0, 10e000 <ECO_CGI_1_PIXEL_VALIDITY_FLAG_e>
   846c8:	91123800 	add	x0, x0, #0x48e
   846cc:	39400000 	ldrb	w0, [x0]
   846d0:	6b00003f 	cmp	w1, w0
   846d4:	54000b21 	b.ne	84838 <CEcoIPCCMailbox1Factory_Alloc+0x28c>  // b.any
   846d8:	f94013a0 	ldr	x0, [x29, #32]
   846dc:	91001c00 	add	x0, x0, #0x7
   846e0:	39400001 	ldrb	w1, [x0]
   846e4:	d0000440 	adrp	x0, 10e000 <ECO_CGI_1_PIXEL_VALIDITY_FLAG_e>
   846e8:	91123c00 	add	x0, x0, #0x48f
   846ec:	39400000 	ldrb	w0, [x0]
   846f0:	6b00003f 	cmp	w1, w0
   846f4:	54000a21 	b.ne	84838 <CEcoIPCCMailbox1Factory_Alloc+0x28c>  // b.any
   846f8:	f94013a0 	ldr	x0, [x29, #32]
   846fc:	91002000 	add	x0, x0, #0x8
   84700:	39400001 	ldrb	w1, [x0]
   84704:	d0000440 	adrp	x0, 10e000 <ECO_CGI_1_PIXEL_VALIDITY_FLAG_e>
   84708:	91124000 	add	x0, x0, #0x490
   8470c:	39400000 	ldrb	w0, [x0]
   84710:	6b00003f 	cmp	w1, w0
   84714:	54000921 	b.ne	84838 <CEcoIPCCMailbox1Factory_Alloc+0x28c>  // b.any
   84718:	f94013a0 	ldr	x0, [x29, #32]
   8471c:	91002400 	add	x0, x0, #0x9
   84720:	39400001 	ldrb	w1, [x0]
   84724:	d0000440 	adrp	x0, 10e000 <ECO_CGI_1_PIXEL_VALIDITY_FLAG_e>
   84728:	91124400 	add	x0, x0, #0x491
   8472c:	39400000 	ldrb	w0, [x0]
   84730:	6b00003f 	cmp	w1, w0
   84734:	54000821 	b.ne	84838 <CEcoIPCCMailbox1Factory_Alloc+0x28c>  // b.any
   84738:	f94013a0 	ldr	x0, [x29, #32]
   8473c:	91002800 	add	x0, x0, #0xa
   84740:	39400001 	ldrb	w1, [x0]
   84744:	d0000440 	adrp	x0, 10e000 <ECO_CGI_1_PIXEL_VALIDITY_FLAG_e>
   84748:	91124800 	add	x0, x0, #0x492
   8474c:	39400000 	ldrb	w0, [x0]
   84750:	6b00003f 	cmp	w1, w0
   84754:	54000721 	b.ne	84838 <CEcoIPCCMailbox1Factory_Alloc+0x28c>  // b.any
   84758:	f94013a0 	ldr	x0, [x29, #32]
   8475c:	91002c00 	add	x0, x0, #0xb
   84760:	39400001 	ldrb	w1, [x0]
   84764:	d0000440 	adrp	x0, 10e000 <ECO_CGI_1_PIXEL_VALIDITY_FLAG_e>
   84768:	91124c00 	add	x0, x0, #0x493
   8476c:	39400000 	ldrb	w0, [x0]
   84770:	6b00003f 	cmp	w1, w0
   84774:	54000621 	b.ne	84838 <CEcoIPCCMailbox1Factory_Alloc+0x28c>  // b.any
   84778:	f94013a0 	ldr	x0, [x29, #32]
   8477c:	91003000 	add	x0, x0, #0xc
   84780:	39400001 	ldrb	w1, [x0]
   84784:	d0000440 	adrp	x0, 10e000 <ECO_CGI_1_PIXEL_VALIDITY_FLAG_e>
   84788:	91125000 	add	x0, x0, #0x494
   8478c:	39400000 	ldrb	w0, [x0]
   84790:	6b00003f 	cmp	w1, w0
   84794:	54000521 	b.ne	84838 <CEcoIPCCMailbox1Factory_Alloc+0x28c>  // b.any
   84798:	f94013a0 	ldr	x0, [x29, #32]
   8479c:	91003400 	add	x0, x0, #0xd
   847a0:	39400001 	ldrb	w1, [x0]
   847a4:	d0000440 	adrp	x0, 10e000 <ECO_CGI_1_PIXEL_VALIDITY_FLAG_e>
   847a8:	91125400 	add	x0, x0, #0x495
   847ac:	39400000 	ldrb	w0, [x0]
   847b0:	6b00003f 	cmp	w1, w0
   847b4:	54000421 	b.ne	84838 <CEcoIPCCMailbox1Factory_Alloc+0x28c>  // b.any
   847b8:	f94013a0 	ldr	x0, [x29, #32]
   847bc:	91003800 	add	x0, x0, #0xe
   847c0:	39400001 	ldrb	w1, [x0]
   847c4:	d0000440 	adrp	x0, 10e000 <ECO_CGI_1_PIXEL_VALIDITY_FLAG_e>
   847c8:	91125800 	add	x0, x0, #0x496
   847cc:	39400000 	ldrb	w0, [x0]
   847d0:	6b00003f 	cmp	w1, w0
   847d4:	54000321 	b.ne	84838 <CEcoIPCCMailbox1Factory_Alloc+0x28c>  // b.any
   847d8:	f94013a0 	ldr	x0, [x29, #32]
   847dc:	91003c00 	add	x0, x0, #0xf
   847e0:	39400001 	ldrb	w1, [x0]
   847e4:	d0000440 	adrp	x0, 10e000 <ECO_CGI_1_PIXEL_VALIDITY_FLAG_e>
   847e8:	91125c00 	add	x0, x0, #0x497
   847ec:	39400000 	ldrb	w0, [x0]
   847f0:	6b00003f 	cmp	w1, w0
   847f4:	54000221 	b.ne	84838 <CEcoIPCCMailbox1Factory_Alloc+0x28c>  // b.any
   847f8:	f94013a0 	ldr	x0, [x29, #32]
   847fc:	91004000 	add	x0, x0, #0x10
   84800:	39400001 	ldrb	w1, [x0]
   84804:	d0000440 	adrp	x0, 10e000 <ECO_CGI_1_PIXEL_VALIDITY_FLAG_e>
   84808:	91126000 	add	x0, x0, #0x498
   8480c:	39400000 	ldrb	w0, [x0]
   84810:	6b00003f 	cmp	w1, w0
   84814:	54000121 	b.ne	84838 <CEcoIPCCMailbox1Factory_Alloc+0x28c>  // b.any
   84818:	f94013a0 	ldr	x0, [x29, #32]
   8481c:	91004400 	add	x0, x0, #0x11
   84820:	39400001 	ldrb	w1, [x0]
   84824:	d0000440 	adrp	x0, 10e000 <ECO_CGI_1_PIXEL_VALIDITY_FLAG_e>
   84828:	91126400 	add	x0, x0, #0x499
   8482c:	39400000 	ldrb	w0, [x0]
   84830:	6b00003f 	cmp	w1, w0
   84834:	54000060 	b.eq	84840 <CEcoIPCCMailbox1Factory_Alloc+0x294>  // b.none
   84838:	12800000 	mov	w0, #0xffffffff            	// #-1
   8483c:	1400001f 	b	848b8 <CEcoIPCCMailbox1Factory_Alloc+0x30c>
   84840:	f9402fa0 	ldr	x0, [x29, #88]
   84844:	f9400803 	ldr	x3, [x0, #16]
   84848:	910123a0 	add	x0, x29, #0x48
   8484c:	aa0003e2 	mov	x2, x0
   84850:	f94017a1 	ldr	x1, [x29, #40]
   84854:	f9401ba0 	ldr	x0, [x29, #48]
   84858:	d63f0060 	blr	x3
   8485c:	7900afa0 	strh	w0, [x29, #86]
   84860:	79c0afa0 	ldrsh	w0, [x29, #86]
   84864:	7100001f 	cmp	w0, #0x0
   84868:	54000081 	b.ne	84878 <CEcoIPCCMailbox1Factory_Alloc+0x2cc>  // b.any
   8486c:	f94027a0 	ldr	x0, [x29, #72]
   84870:	f100001f 	cmp	x0, #0x0
   84874:	54000061 	b.ne	84880 <CEcoIPCCMailbox1Factory_Alloc+0x2d4>  // b.any
   84878:	12800000 	mov	w0, #0xffffffff            	// #-1
   8487c:	1400000f 	b	848b8 <CEcoIPCCMailbox1Factory_Alloc+0x30c>
   84880:	f94027a0 	ldr	x0, [x29, #72]
   84884:	f9400000 	ldr	x0, [x0]
   84888:	f9400003 	ldr	x3, [x0]
   8488c:	f94027a0 	ldr	x0, [x29, #72]
   84890:	f9400fa2 	ldr	x2, [x29, #24]
   84894:	f94013a1 	ldr	x1, [x29, #32]
   84898:	d63f0060 	blr	x3
   8489c:	7900afa0 	strh	w0, [x29, #86]
   848a0:	f94027a0 	ldr	x0, [x29, #72]
   848a4:	f9400000 	ldr	x0, [x0]
   848a8:	f9400801 	ldr	x1, [x0, #16]
   848ac:	f94027a0 	ldr	x0, [x29, #72]
   848b0:	d63f0020 	blr	x1
   848b4:	79c0afa0 	ldrsh	w0, [x29, #86]
   848b8:	a8c67bfd 	ldp	x29, x30, [sp], #96
   848bc:	d65f03c0 	ret

00000000000848c0 <CEcoIPCCMailbox1Factory_get_Name>:
   848c0:	d10083ff 	sub	sp, sp, #0x20
   848c4:	f90007e0 	str	x0, [sp, #8]
   848c8:	f94007e0 	ldr	x0, [sp, #8]
   848cc:	f9000fe0 	str	x0, [sp, #24]
   848d0:	f94007e0 	ldr	x0, [sp, #8]
   848d4:	f100001f 	cmp	x0, #0x0
   848d8:	54000061 	b.ne	848e4 <CEcoIPCCMailbox1Factory_get_Name+0x24>  // b.any
   848dc:	d2800000 	mov	x0, #0x0                   	// #0
   848e0:	14000003 	b	848ec <CEcoIPCCMailbox1Factory_get_Name+0x2c>
   848e4:	f9400fe0 	ldr	x0, [sp, #24]
   848e8:	91008000 	add	x0, x0, #0x20
   848ec:	910083ff 	add	sp, sp, #0x20
   848f0:	d65f03c0 	ret

00000000000848f4 <CEcoIPCCMailbox1Factory_get_Version>:
   848f4:	d10083ff 	sub	sp, sp, #0x20
   848f8:	f90007e0 	str	x0, [sp, #8]
   848fc:	f94007e0 	ldr	x0, [sp, #8]
   84900:	f9000fe0 	str	x0, [sp, #24]
   84904:	f94007e0 	ldr	x0, [sp, #8]
   84908:	f100001f 	cmp	x0, #0x0
   8490c:	54000061 	b.ne	84918 <CEcoIPCCMailbox1Factory_get_Version+0x24>  // b.any
   84910:	d2800000 	mov	x0, #0x0                   	// #0
   84914:	14000003 	b	84920 <CEcoIPCCMailbox1Factory_get_Version+0x2c>
   84918:	f9400fe0 	ldr	x0, [sp, #24]
   8491c:	91018000 	add	x0, x0, #0x60
   84920:	910083ff 	add	sp, sp, #0x20
   84924:	d65f03c0 	ret

0000000000084928 <CEcoIPCCMailbox1Factory_get_Manufacturer>:
   84928:	d10083ff 	sub	sp, sp, #0x20
   8492c:	f90007e0 	str	x0, [sp, #8]
   84930:	f94007e0 	ldr	x0, [sp, #8]
   84934:	f9000fe0 	str	x0, [sp, #24]
   84938:	f94007e0 	ldr	x0, [sp, #8]
   8493c:	f100001f 	cmp	x0, #0x0
   84940:	54000061 	b.ne	8494c <CEcoIPCCMailbox1Factory_get_Manufacturer+0x24>  // b.any
   84944:	d2800000 	mov	x0, #0x0                   	// #0
   84948:	14000003 	b	84954 <CEcoIPCCMailbox1Factory_get_Manufacturer+0x2c>
   8494c:	f9400fe0 	ldr	x0, [sp, #24]
   84950:	9101c000 	add	x0, x0, #0x70
   84954:	910083ff 	add	sp, sp, #0x20
   84958:	d65f03c0 	ret

000000000008495c <CEcoIPCCMailbox1_QueryInterface>:
   8495c:	a9bc7bfd 	stp	x29, x30, [sp, #-64]!
   84960:	910003fd 	mov	x29, sp
   84964:	f90017a0 	str	x0, [x29, #40]
   84968:	f90013a1 	str	x1, [x29, #32]
   8496c:	f9000fa2 	str	x2, [x29, #24]
   84970:	f94017a0 	ldr	x0, [x29, #40]
   84974:	f9001fa0 	str	x0, [x29, #56]
   84978:	12800000 	mov	w0, #0xffffffff            	// #-1
   8497c:	79006fa0 	strh	w0, [x29, #54]
   84980:	f94017a0 	ldr	x0, [x29, #40]
   84984:	f100001f 	cmp	x0, #0x0
   84988:	54000080 	b.eq	84998 <CEcoIPCCMailbox1_QueryInterface+0x3c>  // b.none
   8498c:	f9400fa0 	ldr	x0, [x29, #24]
   84990:	f100001f 	cmp	x0, #0x0
   84994:	54000061 	b.ne	849a0 <CEcoIPCCMailbox1_QueryInterface+0x44>  // b.any
   84998:	79c06fa0 	ldrsh	w0, [x29, #54]
   8499c:	14000136 	b	84e74 <CEcoIPCCMailbox1_QueryInterface+0x518>
   849a0:	f94013a0 	ldr	x0, [x29, #32]
   849a4:	39400001 	ldrb	w1, [x0]
   849a8:	d0000440 	adrp	x0, 10e000 <ECO_CGI_1_PIXEL_VALIDITY_FLAG_e>
   849ac:	9115e000 	add	x0, x0, #0x578
   849b0:	39400000 	ldrb	w0, [x0]
   849b4:	6b00003f 	cmp	w1, w0
   849b8:	54001241 	b.ne	84c00 <CEcoIPCCMailbox1_QueryInterface+0x2a4>  // b.any
   849bc:	f94013a0 	ldr	x0, [x29, #32]
   849c0:	91000400 	add	x0, x0, #0x1
   849c4:	39400001 	ldrb	w1, [x0]
   849c8:	d0000440 	adrp	x0, 10e000 <ECO_CGI_1_PIXEL_VALIDITY_FLAG_e>
   849cc:	9115e400 	add	x0, x0, #0x579
   849d0:	39400000 	ldrb	w0, [x0]
   849d4:	6b00003f 	cmp	w1, w0
   849d8:	54001141 	b.ne	84c00 <CEcoIPCCMailbox1_QueryInterface+0x2a4>  // b.any
   849dc:	f94013a0 	ldr	x0, [x29, #32]
   849e0:	91000800 	add	x0, x0, #0x2
   849e4:	39400001 	ldrb	w1, [x0]
   849e8:	d0000440 	adrp	x0, 10e000 <ECO_CGI_1_PIXEL_VALIDITY_FLAG_e>
   849ec:	9115e800 	add	x0, x0, #0x57a
   849f0:	39400000 	ldrb	w0, [x0]
   849f4:	6b00003f 	cmp	w1, w0
   849f8:	54001041 	b.ne	84c00 <CEcoIPCCMailbox1_QueryInterface+0x2a4>  // b.any
   849fc:	f94013a0 	ldr	x0, [x29, #32]
   84a00:	91000c00 	add	x0, x0, #0x3
   84a04:	39400001 	ldrb	w1, [x0]
   84a08:	d0000440 	adrp	x0, 10e000 <ECO_CGI_1_PIXEL_VALIDITY_FLAG_e>
   84a0c:	9115ec00 	add	x0, x0, #0x57b
   84a10:	39400000 	ldrb	w0, [x0]
   84a14:	6b00003f 	cmp	w1, w0
   84a18:	54000f41 	b.ne	84c00 <CEcoIPCCMailbox1_QueryInterface+0x2a4>  // b.any
   84a1c:	f94013a0 	ldr	x0, [x29, #32]
   84a20:	91001000 	add	x0, x0, #0x4
   84a24:	39400001 	ldrb	w1, [x0]
   84a28:	d0000440 	adrp	x0, 10e000 <ECO_CGI_1_PIXEL_VALIDITY_FLAG_e>
   84a2c:	9115f000 	add	x0, x0, #0x57c
   84a30:	39400000 	ldrb	w0, [x0]
   84a34:	6b00003f 	cmp	w1, w0
   84a38:	54000e41 	b.ne	84c00 <CEcoIPCCMailbox1_QueryInterface+0x2a4>  // b.any
   84a3c:	f94013a0 	ldr	x0, [x29, #32]
   84a40:	91001400 	add	x0, x0, #0x5
   84a44:	39400001 	ldrb	w1, [x0]
   84a48:	d0000440 	adrp	x0, 10e000 <ECO_CGI_1_PIXEL_VALIDITY_FLAG_e>
   84a4c:	9115f400 	add	x0, x0, #0x57d
   84a50:	39400000 	ldrb	w0, [x0]
   84a54:	6b00003f 	cmp	w1, w0
   84a58:	54000d41 	b.ne	84c00 <CEcoIPCCMailbox1_QueryInterface+0x2a4>  // b.any
   84a5c:	f94013a0 	ldr	x0, [x29, #32]
   84a60:	91001800 	add	x0, x0, #0x6
   84a64:	39400001 	ldrb	w1, [x0]
   84a68:	d0000440 	adrp	x0, 10e000 <ECO_CGI_1_PIXEL_VALIDITY_FLAG_e>
   84a6c:	9115f800 	add	x0, x0, #0x57e
   84a70:	39400000 	ldrb	w0, [x0]
   84a74:	6b00003f 	cmp	w1, w0
   84a78:	54000c41 	b.ne	84c00 <CEcoIPCCMailbox1_QueryInterface+0x2a4>  // b.any
   84a7c:	f94013a0 	ldr	x0, [x29, #32]
   84a80:	91001c00 	add	x0, x0, #0x7
   84a84:	39400001 	ldrb	w1, [x0]
   84a88:	d0000440 	adrp	x0, 10e000 <ECO_CGI_1_PIXEL_VALIDITY_FLAG_e>
   84a8c:	9115fc00 	add	x0, x0, #0x57f
   84a90:	39400000 	ldrb	w0, [x0]
   84a94:	6b00003f 	cmp	w1, w0
   84a98:	54000b41 	b.ne	84c00 <CEcoIPCCMailbox1_QueryInterface+0x2a4>  // b.any
   84a9c:	f94013a0 	ldr	x0, [x29, #32]
   84aa0:	91002000 	add	x0, x0, #0x8
   84aa4:	39400001 	ldrb	w1, [x0]
   84aa8:	d0000440 	adrp	x0, 10e000 <ECO_CGI_1_PIXEL_VALIDITY_FLAG_e>
   84aac:	91160000 	add	x0, x0, #0x580
   84ab0:	39400000 	ldrb	w0, [x0]
   84ab4:	6b00003f 	cmp	w1, w0
   84ab8:	54000a41 	b.ne	84c00 <CEcoIPCCMailbox1_QueryInterface+0x2a4>  // b.any
   84abc:	f94013a0 	ldr	x0, [x29, #32]
   84ac0:	91002400 	add	x0, x0, #0x9
   84ac4:	39400001 	ldrb	w1, [x0]
   84ac8:	d0000440 	adrp	x0, 10e000 <ECO_CGI_1_PIXEL_VALIDITY_FLAG_e>
   84acc:	91160400 	add	x0, x0, #0x581
   84ad0:	39400000 	ldrb	w0, [x0]
   84ad4:	6b00003f 	cmp	w1, w0
   84ad8:	54000941 	b.ne	84c00 <CEcoIPCCMailbox1_QueryInterface+0x2a4>  // b.any
   84adc:	f94013a0 	ldr	x0, [x29, #32]
   84ae0:	91002800 	add	x0, x0, #0xa
   84ae4:	39400001 	ldrb	w1, [x0]
   84ae8:	d0000440 	adrp	x0, 10e000 <ECO_CGI_1_PIXEL_VALIDITY_FLAG_e>
   84aec:	91160800 	add	x0, x0, #0x582
   84af0:	39400000 	ldrb	w0, [x0]
   84af4:	6b00003f 	cmp	w1, w0
   84af8:	54000841 	b.ne	84c00 <CEcoIPCCMailbox1_QueryInterface+0x2a4>  // b.any
   84afc:	f94013a0 	ldr	x0, [x29, #32]
   84b00:	91002c00 	add	x0, x0, #0xb
   84b04:	39400001 	ldrb	w1, [x0]
   84b08:	d0000440 	adrp	x0, 10e000 <ECO_CGI_1_PIXEL_VALIDITY_FLAG_e>
   84b0c:	91160c00 	add	x0, x0, #0x583
   84b10:	39400000 	ldrb	w0, [x0]
   84b14:	6b00003f 	cmp	w1, w0
   84b18:	54000741 	b.ne	84c00 <CEcoIPCCMailbox1_QueryInterface+0x2a4>  // b.any
   84b1c:	f94013a0 	ldr	x0, [x29, #32]
   84b20:	91003000 	add	x0, x0, #0xc
   84b24:	39400001 	ldrb	w1, [x0]
   84b28:	d0000440 	adrp	x0, 10e000 <ECO_CGI_1_PIXEL_VALIDITY_FLAG_e>
   84b2c:	91161000 	add	x0, x0, #0x584
   84b30:	39400000 	ldrb	w0, [x0]
   84b34:	6b00003f 	cmp	w1, w0
   84b38:	54000641 	b.ne	84c00 <CEcoIPCCMailbox1_QueryInterface+0x2a4>  // b.any
   84b3c:	f94013a0 	ldr	x0, [x29, #32]
   84b40:	91003400 	add	x0, x0, #0xd
   84b44:	39400001 	ldrb	w1, [x0]
   84b48:	d0000440 	adrp	x0, 10e000 <ECO_CGI_1_PIXEL_VALIDITY_FLAG_e>
   84b4c:	91161400 	add	x0, x0, #0x585
   84b50:	39400000 	ldrb	w0, [x0]
   84b54:	6b00003f 	cmp	w1, w0
   84b58:	54000541 	b.ne	84c00 <CEcoIPCCMailbox1_QueryInterface+0x2a4>  // b.any
   84b5c:	f94013a0 	ldr	x0, [x29, #32]
   84b60:	91003800 	add	x0, x0, #0xe
   84b64:	39400001 	ldrb	w1, [x0]
   84b68:	d0000440 	adrp	x0, 10e000 <ECO_CGI_1_PIXEL_VALIDITY_FLAG_e>
   84b6c:	91161800 	add	x0, x0, #0x586
   84b70:	39400000 	ldrb	w0, [x0]
   84b74:	6b00003f 	cmp	w1, w0
   84b78:	54000441 	b.ne	84c00 <CEcoIPCCMailbox1_QueryInterface+0x2a4>  // b.any
   84b7c:	f94013a0 	ldr	x0, [x29, #32]
   84b80:	91003c00 	add	x0, x0, #0xf
   84b84:	39400001 	ldrb	w1, [x0]
   84b88:	d0000440 	adrp	x0, 10e000 <ECO_CGI_1_PIXEL_VALIDITY_FLAG_e>
   84b8c:	91161c00 	add	x0, x0, #0x587
   84b90:	39400000 	ldrb	w0, [x0]
   84b94:	6b00003f 	cmp	w1, w0
   84b98:	54000341 	b.ne	84c00 <CEcoIPCCMailbox1_QueryInterface+0x2a4>  // b.any
   84b9c:	f94013a0 	ldr	x0, [x29, #32]
   84ba0:	91004000 	add	x0, x0, #0x10
   84ba4:	39400001 	ldrb	w1, [x0]
   84ba8:	d0000440 	adrp	x0, 10e000 <ECO_CGI_1_PIXEL_VALIDITY_FLAG_e>
   84bac:	91162000 	add	x0, x0, #0x588
   84bb0:	39400000 	ldrb	w0, [x0]
   84bb4:	6b00003f 	cmp	w1, w0
   84bb8:	54000241 	b.ne	84c00 <CEcoIPCCMailbox1_QueryInterface+0x2a4>  // b.any
   84bbc:	f94013a0 	ldr	x0, [x29, #32]
   84bc0:	91004400 	add	x0, x0, #0x11
   84bc4:	39400001 	ldrb	w1, [x0]
   84bc8:	d0000440 	adrp	x0, 10e000 <ECO_CGI_1_PIXEL_VALIDITY_FLAG_e>
   84bcc:	91162400 	add	x0, x0, #0x589
   84bd0:	39400000 	ldrb	w0, [x0]
   84bd4:	6b00003f 	cmp	w1, w0
   84bd8:	54000141 	b.ne	84c00 <CEcoIPCCMailbox1_QueryInterface+0x2a4>  // b.any
   84bdc:	f9401fa1 	ldr	x1, [x29, #56]
   84be0:	f9400fa0 	ldr	x0, [x29, #24]
   84be4:	f9000001 	str	x1, [x0]
   84be8:	f9401fa0 	ldr	x0, [x29, #56]
   84bec:	f9400000 	ldr	x0, [x0]
   84bf0:	f9400401 	ldr	x1, [x0, #8]
   84bf4:	f9401fa0 	ldr	x0, [x29, #56]
   84bf8:	d63f0020 	blr	x1
   84bfc:	1400009d 	b	84e70 <CEcoIPCCMailbox1_QueryInterface+0x514>
   84c00:	f94013a0 	ldr	x0, [x29, #32]
   84c04:	39400001 	ldrb	w1, [x0]
   84c08:	d0000440 	adrp	x0, 10e000 <ECO_CGI_1_PIXEL_VALIDITY_FLAG_e>
   84c0c:	91146000 	add	x0, x0, #0x518
   84c10:	39400000 	ldrb	w0, [x0]
   84c14:	6b00003f 	cmp	w1, w0
   84c18:	54001241 	b.ne	84e60 <CEcoIPCCMailbox1_QueryInterface+0x504>  // b.any
   84c1c:	f94013a0 	ldr	x0, [x29, #32]
   84c20:	91000400 	add	x0, x0, #0x1
   84c24:	39400001 	ldrb	w1, [x0]
   84c28:	d0000440 	adrp	x0, 10e000 <ECO_CGI_1_PIXEL_VALIDITY_FLAG_e>
   84c2c:	91146400 	add	x0, x0, #0x519
   84c30:	39400000 	ldrb	w0, [x0]
   84c34:	6b00003f 	cmp	w1, w0
   84c38:	54001141 	b.ne	84e60 <CEcoIPCCMailbox1_QueryInterface+0x504>  // b.any
   84c3c:	f94013a0 	ldr	x0, [x29, #32]
   84c40:	91000800 	add	x0, x0, #0x2
   84c44:	39400001 	ldrb	w1, [x0]
   84c48:	d0000440 	adrp	x0, 10e000 <ECO_CGI_1_PIXEL_VALIDITY_FLAG_e>
   84c4c:	91146800 	add	x0, x0, #0x51a
   84c50:	39400000 	ldrb	w0, [x0]
   84c54:	6b00003f 	cmp	w1, w0
   84c58:	54001041 	b.ne	84e60 <CEcoIPCCMailbox1_QueryInterface+0x504>  // b.any
   84c5c:	f94013a0 	ldr	x0, [x29, #32]
   84c60:	91000c00 	add	x0, x0, #0x3
   84c64:	39400001 	ldrb	w1, [x0]
   84c68:	d0000440 	adrp	x0, 10e000 <ECO_CGI_1_PIXEL_VALIDITY_FLAG_e>
   84c6c:	91146c00 	add	x0, x0, #0x51b
   84c70:	39400000 	ldrb	w0, [x0]
   84c74:	6b00003f 	cmp	w1, w0
   84c78:	54000f41 	b.ne	84e60 <CEcoIPCCMailbox1_QueryInterface+0x504>  // b.any
   84c7c:	f94013a0 	ldr	x0, [x29, #32]
   84c80:	91001000 	add	x0, x0, #0x4
   84c84:	39400001 	ldrb	w1, [x0]
   84c88:	d0000440 	adrp	x0, 10e000 <ECO_CGI_1_PIXEL_VALIDITY_FLAG_e>
   84c8c:	91147000 	add	x0, x0, #0x51c
   84c90:	39400000 	ldrb	w0, [x0]
   84c94:	6b00003f 	cmp	w1, w0
   84c98:	54000e41 	b.ne	84e60 <CEcoIPCCMailbox1_QueryInterface+0x504>  // b.any
   84c9c:	f94013a0 	ldr	x0, [x29, #32]
   84ca0:	91001400 	add	x0, x0, #0x5
   84ca4:	39400001 	ldrb	w1, [x0]
   84ca8:	d0000440 	adrp	x0, 10e000 <ECO_CGI_1_PIXEL_VALIDITY_FLAG_e>
   84cac:	91147400 	add	x0, x0, #0x51d
   84cb0:	39400000 	ldrb	w0, [x0]
   84cb4:	6b00003f 	cmp	w1, w0
   84cb8:	54000d41 	b.ne	84e60 <CEcoIPCCMailbox1_QueryInterface+0x504>  // b.any
   84cbc:	f94013a0 	ldr	x0, [x29, #32]
   84cc0:	91001800 	add	x0, x0, #0x6
   84cc4:	39400001 	ldrb	w1, [x0]
   84cc8:	d0000440 	adrp	x0, 10e000 <ECO_CGI_1_PIXEL_VALIDITY_FLAG_e>
   84ccc:	91147800 	add	x0, x0, #0x51e
   84cd0:	39400000 	ldrb	w0, [x0]
   84cd4:	6b00003f 	cmp	w1, w0
   84cd8:	54000c41 	b.ne	84e60 <CEcoIPCCMailbox1_QueryInterface+0x504>  // b.any
   84cdc:	f94013a0 	ldr	x0, [x29, #32]
   84ce0:	91001c00 	add	x0, x0, #0x7
   84ce4:	39400001 	ldrb	w1, [x0]
   84ce8:	d0000440 	adrp	x0, 10e000 <ECO_CGI_1_PIXEL_VALIDITY_FLAG_e>
   84cec:	91147c00 	add	x0, x0, #0x51f
   84cf0:	39400000 	ldrb	w0, [x0]
   84cf4:	6b00003f 	cmp	w1, w0
   84cf8:	54000b41 	b.ne	84e60 <CEcoIPCCMailbox1_QueryInterface+0x504>  // b.any
   84cfc:	f94013a0 	ldr	x0, [x29, #32]
   84d00:	91002000 	add	x0, x0, #0x8
   84d04:	39400001 	ldrb	w1, [x0]
   84d08:	d0000440 	adrp	x0, 10e000 <ECO_CGI_1_PIXEL_VALIDITY_FLAG_e>
   84d0c:	91148000 	add	x0, x0, #0x520
   84d10:	39400000 	ldrb	w0, [x0]
   84d14:	6b00003f 	cmp	w1, w0
   84d18:	54000a41 	b.ne	84e60 <CEcoIPCCMailbox1_QueryInterface+0x504>  // b.any
   84d1c:	f94013a0 	ldr	x0, [x29, #32]
   84d20:	91002400 	add	x0, x0, #0x9
   84d24:	39400001 	ldrb	w1, [x0]
   84d28:	d0000440 	adrp	x0, 10e000 <ECO_CGI_1_PIXEL_VALIDITY_FLAG_e>
   84d2c:	91148400 	add	x0, x0, #0x521
   84d30:	39400000 	ldrb	w0, [x0]
   84d34:	6b00003f 	cmp	w1, w0
   84d38:	54000941 	b.ne	84e60 <CEcoIPCCMailbox1_QueryInterface+0x504>  // b.any
   84d3c:	f94013a0 	ldr	x0, [x29, #32]
   84d40:	91002800 	add	x0, x0, #0xa
   84d44:	39400001 	ldrb	w1, [x0]
   84d48:	d0000440 	adrp	x0, 10e000 <ECO_CGI_1_PIXEL_VALIDITY_FLAG_e>
   84d4c:	91148800 	add	x0, x0, #0x522
   84d50:	39400000 	ldrb	w0, [x0]
   84d54:	6b00003f 	cmp	w1, w0
   84d58:	54000841 	b.ne	84e60 <CEcoIPCCMailbox1_QueryInterface+0x504>  // b.any
   84d5c:	f94013a0 	ldr	x0, [x29, #32]
   84d60:	91002c00 	add	x0, x0, #0xb
   84d64:	39400001 	ldrb	w1, [x0]
   84d68:	d0000440 	adrp	x0, 10e000 <ECO_CGI_1_PIXEL_VALIDITY_FLAG_e>
   84d6c:	91148c00 	add	x0, x0, #0x523
   84d70:	39400000 	ldrb	w0, [x0]
   84d74:	6b00003f 	cmp	w1, w0
   84d78:	54000741 	b.ne	84e60 <CEcoIPCCMailbox1_QueryInterface+0x504>  // b.any
   84d7c:	f94013a0 	ldr	x0, [x29, #32]
   84d80:	91003000 	add	x0, x0, #0xc
   84d84:	39400001 	ldrb	w1, [x0]
   84d88:	d0000440 	adrp	x0, 10e000 <ECO_CGI_1_PIXEL_VALIDITY_FLAG_e>
   84d8c:	91149000 	add	x0, x0, #0x524
   84d90:	39400000 	ldrb	w0, [x0]
   84d94:	6b00003f 	cmp	w1, w0
   84d98:	54000641 	b.ne	84e60 <CEcoIPCCMailbox1_QueryInterface+0x504>  // b.any
   84d9c:	f94013a0 	ldr	x0, [x29, #32]
   84da0:	91003400 	add	x0, x0, #0xd
   84da4:	39400001 	ldrb	w1, [x0]
   84da8:	d0000440 	adrp	x0, 10e000 <ECO_CGI_1_PIXEL_VALIDITY_FLAG_e>
   84dac:	91149400 	add	x0, x0, #0x525
   84db0:	39400000 	ldrb	w0, [x0]
   84db4:	6b00003f 	cmp	w1, w0
   84db8:	54000541 	b.ne	84e60 <CEcoIPCCMailbox1_QueryInterface+0x504>  // b.any
   84dbc:	f94013a0 	ldr	x0, [x29, #32]
   84dc0:	91003800 	add	x0, x0, #0xe
   84dc4:	39400001 	ldrb	w1, [x0]
   84dc8:	d0000440 	adrp	x0, 10e000 <ECO_CGI_1_PIXEL_VALIDITY_FLAG_e>
   84dcc:	91149800 	add	x0, x0, #0x526
   84dd0:	39400000 	ldrb	w0, [x0]
   84dd4:	6b00003f 	cmp	w1, w0
   84dd8:	54000441 	b.ne	84e60 <CEcoIPCCMailbox1_QueryInterface+0x504>  // b.any
   84ddc:	f94013a0 	ldr	x0, [x29, #32]
   84de0:	91003c00 	add	x0, x0, #0xf
   84de4:	39400001 	ldrb	w1, [x0]
   84de8:	d0000440 	adrp	x0, 10e000 <ECO_CGI_1_PIXEL_VALIDITY_FLAG_e>
   84dec:	91149c00 	add	x0, x0, #0x527
   84df0:	39400000 	ldrb	w0, [x0]
   84df4:	6b00003f 	cmp	w1, w0
   84df8:	54000341 	b.ne	84e60 <CEcoIPCCMailbox1_QueryInterface+0x504>  // b.any
   84dfc:	f94013a0 	ldr	x0, [x29, #32]
   84e00:	91004000 	add	x0, x0, #0x10
   84e04:	39400001 	ldrb	w1, [x0]
   84e08:	d0000440 	adrp	x0, 10e000 <ECO_CGI_1_PIXEL_VALIDITY_FLAG_e>
   84e0c:	9114a000 	add	x0, x0, #0x528
   84e10:	39400000 	ldrb	w0, [x0]
   84e14:	6b00003f 	cmp	w1, w0
   84e18:	54000241 	b.ne	84e60 <CEcoIPCCMailbox1_QueryInterface+0x504>  // b.any
   84e1c:	f94013a0 	ldr	x0, [x29, #32]
   84e20:	91004400 	add	x0, x0, #0x11
   84e24:	39400001 	ldrb	w1, [x0]
   84e28:	d0000440 	adrp	x0, 10e000 <ECO_CGI_1_PIXEL_VALIDITY_FLAG_e>
   84e2c:	9114a400 	add	x0, x0, #0x529
   84e30:	39400000 	ldrb	w0, [x0]
   84e34:	6b00003f 	cmp	w1, w0
   84e38:	54000141 	b.ne	84e60 <CEcoIPCCMailbox1_QueryInterface+0x504>  // b.any
   84e3c:	f9401fa1 	ldr	x1, [x29, #56]
   84e40:	f9400fa0 	ldr	x0, [x29, #24]
   84e44:	f9000001 	str	x1, [x0]
   84e48:	f9401fa0 	ldr	x0, [x29, #56]
   84e4c:	f9400000 	ldr	x0, [x0]
   84e50:	f9400401 	ldr	x1, [x0, #8]
   84e54:	f9401fa0 	ldr	x0, [x29, #56]
   84e58:	d63f0020 	blr	x1
   84e5c:	14000005 	b	84e70 <CEcoIPCCMailbox1_QueryInterface+0x514>
   84e60:	f9400fa0 	ldr	x0, [x29, #24]
   84e64:	f900001f 	str	xzr, [x0]
   84e68:	12800000 	mov	w0, #0xffffffff            	// #-1
   84e6c:	14000002 	b	84e74 <CEcoIPCCMailbox1_QueryInterface+0x518>
   84e70:	52800000 	mov	w0, #0x0                   	// #0
   84e74:	a8c47bfd 	ldp	x29, x30, [sp], #64
   84e78:	d65f03c0 	ret

0000000000084e7c <CEcoIPCCMailbox1_AddRef>:
   84e7c:	d10083ff 	sub	sp, sp, #0x20
   84e80:	f90007e0 	str	x0, [sp, #8]
   84e84:	f94007e0 	ldr	x0, [sp, #8]
   84e88:	f9000fe0 	str	x0, [sp, #24]
   84e8c:	f94007e0 	ldr	x0, [sp, #8]
   84e90:	f100001f 	cmp	x0, #0x0
   84e94:	54000061 	b.ne	84ea0 <CEcoIPCCMailbox1_AddRef+0x24>  // b.any
   84e98:	12800000 	mov	w0, #0xffffffff            	// #-1
   84e9c:	14000008 	b	84ebc <CEcoIPCCMailbox1_AddRef+0x40>
   84ea0:	f9400fe0 	ldr	x0, [sp, #24]
   84ea4:	b9400800 	ldr	w0, [x0, #8]
   84ea8:	11000401 	add	w1, w0, #0x1
   84eac:	f9400fe0 	ldr	x0, [sp, #24]
   84eb0:	b9000801 	str	w1, [x0, #8]
   84eb4:	f9400fe0 	ldr	x0, [sp, #24]
   84eb8:	b9400800 	ldr	w0, [x0, #8]
   84ebc:	910083ff 	add	sp, sp, #0x20
   84ec0:	d65f03c0 	ret

0000000000084ec4 <CEcoIPCCMailbox1_Release>:
   84ec4:	a9bd7bfd 	stp	x29, x30, [sp, #-48]!
   84ec8:	910003fd 	mov	x29, sp
   84ecc:	f9000fa0 	str	x0, [x29, #24]
   84ed0:	f9400fa0 	ldr	x0, [x29, #24]
   84ed4:	f90017a0 	str	x0, [x29, #40]
   84ed8:	f9400fa0 	ldr	x0, [x29, #24]
   84edc:	f100001f 	cmp	x0, #0x0
   84ee0:	54000061 	b.ne	84eec <CEcoIPCCMailbox1_Release+0x28>  // b.any
   84ee4:	12800000 	mov	w0, #0xffffffff            	// #-1
   84ee8:	14000010 	b	84f28 <CEcoIPCCMailbox1_Release+0x64>
   84eec:	f94017a0 	ldr	x0, [x29, #40]
   84ef0:	b9400800 	ldr	w0, [x0, #8]
   84ef4:	51000401 	sub	w1, w0, #0x1
   84ef8:	f94017a0 	ldr	x0, [x29, #40]
   84efc:	b9000801 	str	w1, [x0, #8]
   84f00:	f94017a0 	ldr	x0, [x29, #40]
   84f04:	b9400800 	ldr	w0, [x0, #8]
   84f08:	7100001f 	cmp	w0, #0x0
   84f0c:	540000a1 	b.ne	84f20 <CEcoIPCCMailbox1_Release+0x5c>  // b.any
   84f10:	f94017a0 	ldr	x0, [x29, #40]
   84f14:	94000126 	bl	853ac <deleteCEcoIPCCMailbox1>
   84f18:	52800000 	mov	w0, #0x0                   	// #0
   84f1c:	14000003 	b	84f28 <CEcoIPCCMailbox1_Release+0x64>
   84f20:	f94017a0 	ldr	x0, [x29, #40]
   84f24:	b9400800 	ldr	w0, [x0, #8]
   84f28:	a8c37bfd 	ldp	x29, x30, [sp], #48
   84f2c:	d65f03c0 	ret

0000000000084f30 <CEcoIPCCMailbox1_get_MappedAddress>:
   84f30:	d10083ff 	sub	sp, sp, #0x20
   84f34:	f90007e0 	str	x0, [sp, #8]
   84f38:	f94007e0 	ldr	x0, [sp, #8]
   84f3c:	f9000fe0 	str	x0, [sp, #24]
   84f40:	f9000bff 	str	xzr, [sp, #16]
   84f44:	f94007e0 	ldr	x0, [sp, #8]
   84f48:	f100001f 	cmp	x0, #0x0
   84f4c:	54000061 	b.ne	84f58 <CEcoIPCCMailbox1_get_MappedAddress+0x28>  // b.any
   84f50:	f9400be0 	ldr	x0, [sp, #16]
   84f54:	14000003 	b	84f60 <CEcoIPCCMailbox1_get_MappedAddress+0x30>
   84f58:	f9400fe0 	ldr	x0, [sp, #24]
   84f5c:	f9401000 	ldr	x0, [x0, #32]
   84f60:	910083ff 	add	sp, sp, #0x20
   84f64:	d65f03c0 	ret

0000000000084f68 <CEcoIPCCMailbox1_set_MappedAddress>:
   84f68:	d10083ff 	sub	sp, sp, #0x20
   84f6c:	f90007e0 	str	x0, [sp, #8]
   84f70:	f90003e1 	str	x1, [sp]
   84f74:	f94007e0 	ldr	x0, [sp, #8]
   84f78:	f9000fe0 	str	x0, [sp, #24]
   84f7c:	f94007e0 	ldr	x0, [sp, #8]
   84f80:	f100001f 	cmp	x0, #0x0
   84f84:	540000a0 	b.eq	84f98 <CEcoIPCCMailbox1_set_MappedAddress+0x30>  // b.none
   84f88:	f9400fe0 	ldr	x0, [sp, #24]
   84f8c:	f94003e1 	ldr	x1, [sp]
   84f90:	f9001001 	str	x1, [x0, #32]
   84f94:	14000002 	b	84f9c <CEcoIPCCMailbox1_set_MappedAddress+0x34>
   84f98:	d503201f 	nop
   84f9c:	910083ff 	add	sp, sp, #0x20
   84fa0:	d65f03c0 	ret

0000000000084fa4 <CEcoIPCCMailbox1_Read>:
   84fa4:	d10083ff 	sub	sp, sp, #0x20
   84fa8:	f90007e0 	str	x0, [sp, #8]
   84fac:	39001fe1 	strb	w1, [sp, #7]
   84fb0:	f9000fff 	str	xzr, [sp, #24]
   84fb4:	b90017ff 	str	wzr, [sp, #20]
   84fb8:	f94007e0 	ldr	x0, [sp, #8]
   84fbc:	f100001f 	cmp	x0, #0x0
   84fc0:	54000061 	b.ne	84fcc <CEcoIPCCMailbox1_Read+0x28>  // b.any
   84fc4:	52800000 	mov	w0, #0x0                   	// #0
   84fc8:	14000018 	b	85028 <CEcoIPCCMailbox1_Read+0x84>
   84fcc:	f94007e0 	ldr	x0, [sp, #8]
   84fd0:	f9000fe0 	str	x0, [sp, #24]
   84fd4:	f9400fe0 	ldr	x0, [sp, #24]
   84fd8:	f9401000 	ldr	x0, [x0, #32]
   84fdc:	b9401800 	ldr	w0, [x0, #24]
   84fe0:	b90017e0 	str	w0, [sp, #20]
   84fe4:	b94017e0 	ldr	w0, [sp, #20]
   84fe8:	12020000 	and	w0, w0, #0x40000000
   84fec:	7100001f 	cmp	w0, #0x0
   84ff0:	54ffff21 	b.ne	84fd4 <CEcoIPCCMailbox1_Read+0x30>  // b.any
   84ff4:	f9400fe0 	ldr	x0, [sp, #24]
   84ff8:	f9401000 	ldr	x0, [x0, #32]
   84ffc:	b9400000 	ldr	w0, [x0]
   85000:	b90017e0 	str	w0, [sp, #20]
   85004:	b94017e0 	ldr	w0, [sp, #20]
   85008:	12000c01 	and	w1, w0, #0xf
   8500c:	39401fe0 	ldrb	w0, [sp, #7]
   85010:	6b00003f 	cmp	w1, w0
   85014:	54fffe01 	b.ne	84fd4 <CEcoIPCCMailbox1_Read+0x30>  // b.any
   85018:	b94017e0 	ldr	w0, [sp, #20]
   8501c:	121c6c00 	and	w0, w0, #0xfffffff0
   85020:	b90017e0 	str	w0, [sp, #20]
   85024:	b94017e0 	ldr	w0, [sp, #20]
   85028:	910083ff 	add	sp, sp, #0x20
   8502c:	d65f03c0 	ret

0000000000085030 <CEcoIPCCMailbox1_Write>:
   85030:	d10083ff 	sub	sp, sp, #0x20
   85034:	f90007e0 	str	x0, [sp, #8]
   85038:	39001fe1 	strb	w1, [sp, #7]
   8503c:	b90003e2 	str	w2, [sp]
   85040:	f94007e0 	ldr	x0, [sp, #8]
   85044:	f9000fe0 	str	x0, [sp, #24]
   85048:	b90017ff 	str	wzr, [sp, #20]
   8504c:	f94007e0 	ldr	x0, [sp, #8]
   85050:	f100001f 	cmp	x0, #0x0
   85054:	540002c0 	b.eq	850ac <CEcoIPCCMailbox1_Write+0x7c>  // b.none
   85058:	b94003e0 	ldr	w0, [sp]
   8505c:	121c6c00 	and	w0, w0, #0xfffffff0
   85060:	b90003e0 	str	w0, [sp]
   85064:	39401fe0 	ldrb	w0, [sp, #7]
   85068:	b94003e1 	ldr	w1, [sp]
   8506c:	2a000020 	orr	w0, w1, w0
   85070:	b90003e0 	str	w0, [sp]
   85074:	f9400fe0 	ldr	x0, [sp, #24]
   85078:	f9401000 	ldr	x0, [x0, #32]
   8507c:	b9403800 	ldr	w0, [x0, #56]
   85080:	b90017e0 	str	w0, [sp, #20]
   85084:	b94017e0 	ldr	w0, [sp, #20]
   85088:	7100001f 	cmp	w0, #0x0
   8508c:	54ffff4b 	b.lt	85074 <CEcoIPCCMailbox1_Write+0x44>  // b.tstop
   85090:	f9400fe0 	ldr	x0, [sp, #24]
   85094:	f9401000 	ldr	x0, [x0, #32]
   85098:	aa0003e1 	mov	x1, x0
   8509c:	b94003e0 	ldr	w0, [sp]
   850a0:	b9002020 	str	w0, [x1, #32]
   850a4:	d503201f 	nop
   850a8:	14000002 	b	850b0 <CEcoIPCCMailbox1_Write+0x80>
   850ac:	d503201f 	nop
   850b0:	910083ff 	add	sp, sp, #0x20
   850b4:	d65f03c0 	ret

00000000000850b8 <CEcoIPCCMailbox1_ProcessingByArgs>:
   850b8:	a9a87bfd 	stp	x29, x30, [sp, #-384]!
   850bc:	910003fd 	mov	x29, sp
   850c0:	f90017a0 	str	x0, [x29, #40]
   850c4:	39009fa1 	strb	w1, [x29, #39]
   850c8:	f9000fa2 	str	x2, [x29, #24]
   850cc:	b90023a3 	str	w3, [x29, #32]
   850d0:	f900b3a4 	str	x4, [x29, #352]
   850d4:	f900b7a5 	str	x5, [x29, #360]
   850d8:	f900bba6 	str	x6, [x29, #368]
   850dc:	f900bfa7 	str	x7, [x29, #376]
   850e0:	3d803ba0 	str	q0, [x29, #224]
   850e4:	3d803fa1 	str	q1, [x29, #240]
   850e8:	3d8043a2 	str	q2, [x29, #256]
   850ec:	3d8047a3 	str	q3, [x29, #272]
   850f0:	3d804ba4 	str	q4, [x29, #288]
   850f4:	3d804fa5 	str	q5, [x29, #304]
   850f8:	3d8053a6 	str	q6, [x29, #320]
   850fc:	3d8057a7 	str	q7, [x29, #336]
   85100:	12800000 	mov	w0, #0xffffffff            	// #-1
   85104:	b900dfa0 	str	w0, [x29, #220]
   85108:	b900dbbf 	str	wzr, [x29, #216]
   8510c:	a9057fbf 	stp	xzr, xzr, [x29, #80]
   85110:	a9067fbf 	stp	xzr, xzr, [x29, #96]
   85114:	a9077fbf 	stp	xzr, xzr, [x29, #112]
   85118:	a9087fbf 	stp	xzr, xzr, [x29, #128]
   8511c:	a9097fbf 	stp	xzr, xzr, [x29, #144]
   85120:	a90a7fbf 	stp	xzr, xzr, [x29, #160]
   85124:	a90b7fbf 	stp	xzr, xzr, [x29, #176]
   85128:	a90c7fbf 	stp	xzr, xzr, [x29, #192]
   8512c:	f94017a0 	ldr	x0, [x29, #40]
   85130:	f100001f 	cmp	x0, #0x0
   85134:	54000081 	b.ne	85144 <CEcoIPCCMailbox1_ProcessingByArgs+0x8c>  // b.any
   85138:	b940dfa0 	ldr	w0, [x29, #220]
   8513c:	13003c00 	sxth	w0, w0
   85140:	1400006a 	b	852e8 <CEcoIPCCMailbox1_ProcessingByArgs+0x230>
   85144:	910603a0 	add	x0, x29, #0x180
   85148:	f9001ba0 	str	x0, [x29, #48]
   8514c:	910603a0 	add	x0, x29, #0x180
   85150:	f9001fa0 	str	x0, [x29, #56]
   85154:	910583a0 	add	x0, x29, #0x160
   85158:	f90023a0 	str	x0, [x29, #64]
   8515c:	128003e0 	mov	w0, #0xffffffe0            	// #-32
   85160:	b9004ba0 	str	w0, [x29, #72]
   85164:	12800fe0 	mov	w0, #0xffffff80            	// #-128
   85168:	b9004fa0 	str	w0, [x29, #76]
   8516c:	b94023a0 	ldr	w0, [x29, #32]
   85170:	11000c00 	add	w0, w0, #0x3
   85174:	531e7400 	lsl	w0, w0, #2
   85178:	b90053a0 	str	w0, [x29, #80]
   8517c:	b94023a0 	ldr	w0, [x29, #32]
   85180:	11000800 	add	w0, w0, #0x2
   85184:	2a0003e0 	mov	w0, w0
   85188:	d37ef400 	lsl	x0, x0, #2
   8518c:	910143a1 	add	x1, x29, #0x50
   85190:	b820683f 	str	wzr, [x1, x0]
   85194:	b90057bf 	str	wzr, [x29, #84]
   85198:	b900dbbf 	str	wzr, [x29, #216]
   8519c:	14000023 	b	85228 <CEcoIPCCMailbox1_ProcessingByArgs+0x170>
   851a0:	b940dba0 	ldr	w0, [x29, #216]
   851a4:	11000803 	add	w3, w0, #0x2
   851a8:	b9404ba0 	ldr	w0, [x29, #72]
   851ac:	f9401ba1 	ldr	x1, [x29, #48]
   851b0:	7100001f 	cmp	w0, #0x0
   851b4:	540000eb 	b.lt	851d0 <CEcoIPCCMailbox1_ProcessingByArgs+0x118>  // b.tstop
   851b8:	aa0103e0 	mov	x0, x1
   851bc:	91002c00 	add	x0, x0, #0xb
   851c0:	927df000 	and	x0, x0, #0xfffffffffffffff8
   851c4:	f9001ba0 	str	x0, [x29, #48]
   851c8:	aa0103e0 	mov	x0, x1
   851cc:	1400000f 	b	85208 <CEcoIPCCMailbox1_ProcessingByArgs+0x150>
   851d0:	11002002 	add	w2, w0, #0x8
   851d4:	b9004ba2 	str	w2, [x29, #72]
   851d8:	b9404ba2 	ldr	w2, [x29, #72]
   851dc:	7100005f 	cmp	w2, #0x0
   851e0:	540000ed 	b.le	851fc <CEcoIPCCMailbox1_ProcessingByArgs+0x144>
   851e4:	aa0103e0 	mov	x0, x1
   851e8:	91002c00 	add	x0, x0, #0xb
   851ec:	927df000 	and	x0, x0, #0xfffffffffffffff8
   851f0:	f9001ba0 	str	x0, [x29, #48]
   851f4:	aa0103e0 	mov	x0, x1
   851f8:	14000004 	b	85208 <CEcoIPCCMailbox1_ProcessingByArgs+0x150>
   851fc:	f9401fa1 	ldr	x1, [x29, #56]
   85200:	93407c00 	sxtw	x0, w0
   85204:	8b000020 	add	x0, x1, x0
   85208:	b9400002 	ldr	w2, [x0]
   8520c:	93407c60 	sxtw	x0, w3
   85210:	d37ef400 	lsl	x0, x0, #2
   85214:	910143a1 	add	x1, x29, #0x50
   85218:	b8206822 	str	w2, [x1, x0]
   8521c:	b940dba0 	ldr	w0, [x29, #216]
   85220:	11000400 	add	w0, w0, #0x1
   85224:	b900dba0 	str	w0, [x29, #216]
   85228:	b940dba0 	ldr	w0, [x29, #216]
   8522c:	b94023a1 	ldr	w1, [x29, #32]
   85230:	6b00003f 	cmp	w1, w0
   85234:	54fffb68 	b.hi	851a0 <CEcoIPCCMailbox1_ProcessingByArgs+0xe8>  // b.pmore
   85238:	f94017a0 	ldr	x0, [x29, #40]
   8523c:	f9400000 	ldr	x0, [x0]
   85240:	f9401803 	ldr	x3, [x0, #48]
   85244:	910143a0 	add	x0, x29, #0x50
   85248:	2a0003e2 	mov	w2, w0
   8524c:	39409fa1 	ldrb	w1, [x29, #39]
   85250:	f94017a0 	ldr	x0, [x29, #40]
   85254:	d63f0060 	blr	x3
   85258:	f94017a0 	ldr	x0, [x29, #40]
   8525c:	f9400000 	ldr	x0, [x0]
   85260:	f9401402 	ldr	x2, [x0, #40]
   85264:	39409fa1 	ldrb	w1, [x29, #39]
   85268:	f94017a0 	ldr	x0, [x29, #40]
   8526c:	d63f0040 	blr	x2
   85270:	b94057a1 	ldr	w1, [x29, #84]
   85274:	52b00000 	mov	w0, #0x80000000            	// #-2147483648
   85278:	6b00003f 	cmp	w1, w0
   8527c:	54000321 	b.ne	852e0 <CEcoIPCCMailbox1_ProcessingByArgs+0x228>  // b.any
   85280:	f9400fa0 	ldr	x0, [x29, #24]
   85284:	f100001f 	cmp	x0, #0x0
   85288:	540002a0 	b.eq	852dc <CEcoIPCCMailbox1_ProcessingByArgs+0x224>  // b.none
   8528c:	b900dbbf 	str	wzr, [x29, #216]
   85290:	1400000f 	b	852cc <CEcoIPCCMailbox1_ProcessingByArgs+0x214>
   85294:	b940dba0 	ldr	w0, [x29, #216]
   85298:	11000802 	add	w2, w0, #0x2
   8529c:	b980dba0 	ldrsw	x0, [x29, #216]
   852a0:	d37ef400 	lsl	x0, x0, #2
   852a4:	f9400fa1 	ldr	x1, [x29, #24]
   852a8:	8b000020 	add	x0, x1, x0
   852ac:	93407c41 	sxtw	x1, w2
   852b0:	d37ef421 	lsl	x1, x1, #2
   852b4:	910143a2 	add	x2, x29, #0x50
   852b8:	b8616841 	ldr	w1, [x2, x1]
   852bc:	b9000001 	str	w1, [x0]
   852c0:	b940dba0 	ldr	w0, [x29, #216]
   852c4:	11000400 	add	w0, w0, #0x1
   852c8:	b900dba0 	str	w0, [x29, #216]
   852cc:	b940dba0 	ldr	w0, [x29, #216]
   852d0:	b94023a1 	ldr	w1, [x29, #32]
   852d4:	6b00003f 	cmp	w1, w0
   852d8:	54fffde8 	b.hi	85294 <CEcoIPCCMailbox1_ProcessingByArgs+0x1dc>  // b.pmore
   852dc:	b900dfbf 	str	wzr, [x29, #220]
   852e0:	b940dfa0 	ldr	w0, [x29, #220]
   852e4:	13003c00 	sxth	w0, w0
   852e8:	a8d87bfd 	ldp	x29, x30, [sp], #384
   852ec:	d65f03c0 	ret

00000000000852f0 <initCEcoIPCCMailbox1>:
   852f0:	d10083ff 	sub	sp, sp, #0x20
   852f4:	f90007e0 	str	x0, [sp, #8]
   852f8:	f90003e1 	str	x1, [sp]
   852fc:	f94007e0 	ldr	x0, [sp, #8]
   85300:	f9000fe0 	str	x0, [sp, #24]
   85304:	12800000 	mov	w0, #0xffffffff            	// #-1
   85308:	79002fe0 	strh	w0, [sp, #22]
   8530c:	f94007e0 	ldr	x0, [sp, #8]
   85310:	f100001f 	cmp	x0, #0x0
   85314:	54000061 	b.ne	85320 <initCEcoIPCCMailbox1+0x30>  // b.any
   85318:	79c02fe0 	ldrsh	w0, [sp, #22]
   8531c:	14000009 	b	85340 <initCEcoIPCCMailbox1+0x50>
   85320:	f9400fe0 	ldr	x0, [sp, #24]
   85324:	f94003e1 	ldr	x1, [sp]
   85328:	f9000c01 	str	x1, [x0, #24]
   8532c:	f9400fe0 	ldr	x0, [sp, #24]
   85330:	d2971001 	mov	x1, #0xb880                	// #47232
   85334:	f2a7e001 	movk	x1, #0x3f00, lsl #16
   85338:	f9001001 	str	x1, [x0, #32]
   8533c:	52800000 	mov	w0, #0x0                   	// #0
   85340:	910083ff 	add	sp, sp, #0x20
   85344:	d65f03c0 	ret

0000000000085348 <createCEcoIPCCMailbox1>:
   85348:	d100c3ff 	sub	sp, sp, #0x30
   8534c:	f9000fe0 	str	x0, [sp, #24]
   85350:	f9000be1 	str	x1, [sp, #16]
   85354:	f90007e2 	str	x2, [sp, #8]
   85358:	f90017ff 	str	xzr, [sp, #40]
   8535c:	b0000040 	adrp	x0, 8e000 <_malloc_r+0x1e8>
   85360:	913be000 	add	x0, x0, #0xef8
   85364:	f90017e0 	str	x0, [sp, #40]
   85368:	f94017e0 	ldr	x0, [sp, #40]
   8536c:	b9400800 	ldr	w0, [x0, #8]
   85370:	7100001f 	cmp	w0, #0x0
   85374:	54000101 	b.ne	85394 <createCEcoIPCCMailbox1+0x4c>  // b.any
   85378:	f94017e0 	ldr	x0, [sp, #40]
   8537c:	52800021 	mov	w1, #0x1                   	// #1
   85380:	b9000801 	str	w1, [x0, #8]
   85384:	f94017e0 	ldr	x0, [sp, #40]
   85388:	d2971001 	mov	x1, #0xb880                	// #47232
   8538c:	f2a7e001 	movk	x1, #0x3f00, lsl #16
   85390:	f9001001 	str	x1, [x0, #32]
   85394:	f94007e0 	ldr	x0, [sp, #8]
   85398:	f94017e1 	ldr	x1, [sp, #40]
   8539c:	f9000001 	str	x1, [x0]
   853a0:	52800000 	mov	w0, #0x0                   	// #0
   853a4:	9100c3ff 	add	sp, sp, #0x30
   853a8:	d65f03c0 	ret

00000000000853ac <deleteCEcoIPCCMailbox1>:
   853ac:	d10043ff 	sub	sp, sp, #0x10
   853b0:	f90007e0 	str	x0, [sp, #8]
   853b4:	d503201f 	nop
   853b8:	910043ff 	add	sp, sp, #0x10
   853bc:	d65f03c0 	ret

00000000000853c0 <CEcoVFB1_AF252188Factory_QueryInterface>:
   853c0:	a9bd7bfd 	stp	x29, x30, [sp, #-48]!
   853c4:	910003fd 	mov	x29, sp
   853c8:	f90017a0 	str	x0, [x29, #40]
   853cc:	f90013a1 	str	x1, [x29, #32]
   853d0:	f9000fa2 	str	x2, [x29, #24]
   853d4:	f94013a0 	ldr	x0, [x29, #32]
   853d8:	39400001 	ldrb	w1, [x0]
   853dc:	b0000440 	adrp	x0, 10e000 <ECO_CGI_1_PIXEL_VALIDITY_FLAG_e>
   853e0:	91170000 	add	x0, x0, #0x5c0
   853e4:	39400000 	ldrb	w0, [x0]
   853e8:	6b00003f 	cmp	w1, w0
   853ec:	54001121 	b.ne	85610 <CEcoVFB1_AF252188Factory_QueryInterface+0x250>  // b.any
   853f0:	f94013a0 	ldr	x0, [x29, #32]
   853f4:	91000400 	add	x0, x0, #0x1
   853f8:	39400001 	ldrb	w1, [x0]
   853fc:	b0000440 	adrp	x0, 10e000 <ECO_CGI_1_PIXEL_VALIDITY_FLAG_e>
   85400:	91170400 	add	x0, x0, #0x5c1
   85404:	39400000 	ldrb	w0, [x0]
   85408:	6b00003f 	cmp	w1, w0
   8540c:	54001021 	b.ne	85610 <CEcoVFB1_AF252188Factory_QueryInterface+0x250>  // b.any
   85410:	f94013a0 	ldr	x0, [x29, #32]
   85414:	91000800 	add	x0, x0, #0x2
   85418:	39400001 	ldrb	w1, [x0]
   8541c:	b0000440 	adrp	x0, 10e000 <ECO_CGI_1_PIXEL_VALIDITY_FLAG_e>
   85420:	91170800 	add	x0, x0, #0x5c2
   85424:	39400000 	ldrb	w0, [x0]
   85428:	6b00003f 	cmp	w1, w0
   8542c:	54000f21 	b.ne	85610 <CEcoVFB1_AF252188Factory_QueryInterface+0x250>  // b.any
   85430:	f94013a0 	ldr	x0, [x29, #32]
   85434:	91000c00 	add	x0, x0, #0x3
   85438:	39400001 	ldrb	w1, [x0]
   8543c:	b0000440 	adrp	x0, 10e000 <ECO_CGI_1_PIXEL_VALIDITY_FLAG_e>
   85440:	91170c00 	add	x0, x0, #0x5c3
   85444:	39400000 	ldrb	w0, [x0]
   85448:	6b00003f 	cmp	w1, w0
   8544c:	54000e21 	b.ne	85610 <CEcoVFB1_AF252188Factory_QueryInterface+0x250>  // b.any
   85450:	f94013a0 	ldr	x0, [x29, #32]
   85454:	91001000 	add	x0, x0, #0x4
   85458:	39400001 	ldrb	w1, [x0]
   8545c:	b0000440 	adrp	x0, 10e000 <ECO_CGI_1_PIXEL_VALIDITY_FLAG_e>
   85460:	91171000 	add	x0, x0, #0x5c4
   85464:	39400000 	ldrb	w0, [x0]
   85468:	6b00003f 	cmp	w1, w0
   8546c:	54000d21 	b.ne	85610 <CEcoVFB1_AF252188Factory_QueryInterface+0x250>  // b.any
   85470:	f94013a0 	ldr	x0, [x29, #32]
   85474:	91001400 	add	x0, x0, #0x5
   85478:	39400001 	ldrb	w1, [x0]
   8547c:	b0000440 	adrp	x0, 10e000 <ECO_CGI_1_PIXEL_VALIDITY_FLAG_e>
   85480:	91171400 	add	x0, x0, #0x5c5
   85484:	39400000 	ldrb	w0, [x0]
   85488:	6b00003f 	cmp	w1, w0
   8548c:	54000c21 	b.ne	85610 <CEcoVFB1_AF252188Factory_QueryInterface+0x250>  // b.any
   85490:	f94013a0 	ldr	x0, [x29, #32]
   85494:	91001800 	add	x0, x0, #0x6
   85498:	39400001 	ldrb	w1, [x0]
   8549c:	b0000440 	adrp	x0, 10e000 <ECO_CGI_1_PIXEL_VALIDITY_FLAG_e>
   854a0:	91171800 	add	x0, x0, #0x5c6
   854a4:	39400000 	ldrb	w0, [x0]
   854a8:	6b00003f 	cmp	w1, w0
   854ac:	54000b21 	b.ne	85610 <CEcoVFB1_AF252188Factory_QueryInterface+0x250>  // b.any
   854b0:	f94013a0 	ldr	x0, [x29, #32]
   854b4:	91001c00 	add	x0, x0, #0x7
   854b8:	39400001 	ldrb	w1, [x0]
   854bc:	b0000440 	adrp	x0, 10e000 <ECO_CGI_1_PIXEL_VALIDITY_FLAG_e>
   854c0:	91171c00 	add	x0, x0, #0x5c7
   854c4:	39400000 	ldrb	w0, [x0]
   854c8:	6b00003f 	cmp	w1, w0
   854cc:	54000a21 	b.ne	85610 <CEcoVFB1_AF252188Factory_QueryInterface+0x250>  // b.any
   854d0:	f94013a0 	ldr	x0, [x29, #32]
   854d4:	91002000 	add	x0, x0, #0x8
   854d8:	39400001 	ldrb	w1, [x0]
   854dc:	b0000440 	adrp	x0, 10e000 <ECO_CGI_1_PIXEL_VALIDITY_FLAG_e>
   854e0:	91172000 	add	x0, x0, #0x5c8
   854e4:	39400000 	ldrb	w0, [x0]
   854e8:	6b00003f 	cmp	w1, w0
   854ec:	54000921 	b.ne	85610 <CEcoVFB1_AF252188Factory_QueryInterface+0x250>  // b.any
   854f0:	f94013a0 	ldr	x0, [x29, #32]
   854f4:	91002400 	add	x0, x0, #0x9
   854f8:	39400001 	ldrb	w1, [x0]
   854fc:	b0000440 	adrp	x0, 10e000 <ECO_CGI_1_PIXEL_VALIDITY_FLAG_e>
   85500:	91172400 	add	x0, x0, #0x5c9
   85504:	39400000 	ldrb	w0, [x0]
   85508:	6b00003f 	cmp	w1, w0
   8550c:	54000821 	b.ne	85610 <CEcoVFB1_AF252188Factory_QueryInterface+0x250>  // b.any
   85510:	f94013a0 	ldr	x0, [x29, #32]
   85514:	91002800 	add	x0, x0, #0xa
   85518:	39400001 	ldrb	w1, [x0]
   8551c:	b0000440 	adrp	x0, 10e000 <ECO_CGI_1_PIXEL_VALIDITY_FLAG_e>
   85520:	91172800 	add	x0, x0, #0x5ca
   85524:	39400000 	ldrb	w0, [x0]
   85528:	6b00003f 	cmp	w1, w0
   8552c:	54000721 	b.ne	85610 <CEcoVFB1_AF252188Factory_QueryInterface+0x250>  // b.any
   85530:	f94013a0 	ldr	x0, [x29, #32]
   85534:	91002c00 	add	x0, x0, #0xb
   85538:	39400001 	ldrb	w1, [x0]
   8553c:	b0000440 	adrp	x0, 10e000 <ECO_CGI_1_PIXEL_VALIDITY_FLAG_e>
   85540:	91172c00 	add	x0, x0, #0x5cb
   85544:	39400000 	ldrb	w0, [x0]
   85548:	6b00003f 	cmp	w1, w0
   8554c:	54000621 	b.ne	85610 <CEcoVFB1_AF252188Factory_QueryInterface+0x250>  // b.any
   85550:	f94013a0 	ldr	x0, [x29, #32]
   85554:	91003000 	add	x0, x0, #0xc
   85558:	39400001 	ldrb	w1, [x0]
   8555c:	b0000440 	adrp	x0, 10e000 <ECO_CGI_1_PIXEL_VALIDITY_FLAG_e>
   85560:	91173000 	add	x0, x0, #0x5cc
   85564:	39400000 	ldrb	w0, [x0]
   85568:	6b00003f 	cmp	w1, w0
   8556c:	54000521 	b.ne	85610 <CEcoVFB1_AF252188Factory_QueryInterface+0x250>  // b.any
   85570:	f94013a0 	ldr	x0, [x29, #32]
   85574:	91003400 	add	x0, x0, #0xd
   85578:	39400001 	ldrb	w1, [x0]
   8557c:	b0000440 	adrp	x0, 10e000 <ECO_CGI_1_PIXEL_VALIDITY_FLAG_e>
   85580:	91173400 	add	x0, x0, #0x5cd
   85584:	39400000 	ldrb	w0, [x0]
   85588:	6b00003f 	cmp	w1, w0
   8558c:	54000421 	b.ne	85610 <CEcoVFB1_AF252188Factory_QueryInterface+0x250>  // b.any
   85590:	f94013a0 	ldr	x0, [x29, #32]
   85594:	91003800 	add	x0, x0, #0xe
   85598:	39400001 	ldrb	w1, [x0]
   8559c:	b0000440 	adrp	x0, 10e000 <ECO_CGI_1_PIXEL_VALIDITY_FLAG_e>
   855a0:	91173800 	add	x0, x0, #0x5ce
   855a4:	39400000 	ldrb	w0, [x0]
   855a8:	6b00003f 	cmp	w1, w0
   855ac:	54000321 	b.ne	85610 <CEcoVFB1_AF252188Factory_QueryInterface+0x250>  // b.any
   855b0:	f94013a0 	ldr	x0, [x29, #32]
   855b4:	91003c00 	add	x0, x0, #0xf
   855b8:	39400001 	ldrb	w1, [x0]
   855bc:	b0000440 	adrp	x0, 10e000 <ECO_CGI_1_PIXEL_VALIDITY_FLAG_e>
   855c0:	91173c00 	add	x0, x0, #0x5cf
   855c4:	39400000 	ldrb	w0, [x0]
   855c8:	6b00003f 	cmp	w1, w0
   855cc:	54000221 	b.ne	85610 <CEcoVFB1_AF252188Factory_QueryInterface+0x250>  // b.any
   855d0:	f94013a0 	ldr	x0, [x29, #32]
   855d4:	91004000 	add	x0, x0, #0x10
   855d8:	39400001 	ldrb	w1, [x0]
   855dc:	b0000440 	adrp	x0, 10e000 <ECO_CGI_1_PIXEL_VALIDITY_FLAG_e>
   855e0:	91174000 	add	x0, x0, #0x5d0
   855e4:	39400000 	ldrb	w0, [x0]
   855e8:	6b00003f 	cmp	w1, w0
   855ec:	54000121 	b.ne	85610 <CEcoVFB1_AF252188Factory_QueryInterface+0x250>  // b.any
   855f0:	f94013a0 	ldr	x0, [x29, #32]
   855f4:	91004400 	add	x0, x0, #0x11
   855f8:	39400001 	ldrb	w1, [x0]
   855fc:	b0000440 	adrp	x0, 10e000 <ECO_CGI_1_PIXEL_VALIDITY_FLAG_e>
   85600:	91174400 	add	x0, x0, #0x5d1
   85604:	39400000 	ldrb	w0, [x0]
   85608:	6b00003f 	cmp	w1, w0
   8560c:	54001200 	b.eq	8584c <CEcoVFB1_AF252188Factory_QueryInterface+0x48c>  // b.none
   85610:	f94013a0 	ldr	x0, [x29, #32]
   85614:	39400001 	ldrb	w1, [x0]
   85618:	b0000440 	adrp	x0, 10e000 <ECO_CGI_1_PIXEL_VALIDITY_FLAG_e>
   8561c:	91176000 	add	x0, x0, #0x5d8
   85620:	39400000 	ldrb	w0, [x0]
   85624:	6b00003f 	cmp	w1, w0
   85628:	540012a1 	b.ne	8587c <CEcoVFB1_AF252188Factory_QueryInterface+0x4bc>  // b.any
   8562c:	f94013a0 	ldr	x0, [x29, #32]
   85630:	91000400 	add	x0, x0, #0x1
   85634:	39400001 	ldrb	w1, [x0]
   85638:	b0000440 	adrp	x0, 10e000 <ECO_CGI_1_PIXEL_VALIDITY_FLAG_e>
   8563c:	91176400 	add	x0, x0, #0x5d9
   85640:	39400000 	ldrb	w0, [x0]
   85644:	6b00003f 	cmp	w1, w0
   85648:	540011a1 	b.ne	8587c <CEcoVFB1_AF252188Factory_QueryInterface+0x4bc>  // b.any
   8564c:	f94013a0 	ldr	x0, [x29, #32]
   85650:	91000800 	add	x0, x0, #0x2
   85654:	39400001 	ldrb	w1, [x0]
   85658:	b0000440 	adrp	x0, 10e000 <ECO_CGI_1_PIXEL_VALIDITY_FLAG_e>
   8565c:	91176800 	add	x0, x0, #0x5da
   85660:	39400000 	ldrb	w0, [x0]
   85664:	6b00003f 	cmp	w1, w0
   85668:	540010a1 	b.ne	8587c <CEcoVFB1_AF252188Factory_QueryInterface+0x4bc>  // b.any
   8566c:	f94013a0 	ldr	x0, [x29, #32]
   85670:	91000c00 	add	x0, x0, #0x3
   85674:	39400001 	ldrb	w1, [x0]
   85678:	b0000440 	adrp	x0, 10e000 <ECO_CGI_1_PIXEL_VALIDITY_FLAG_e>
   8567c:	91176c00 	add	x0, x0, #0x5db
   85680:	39400000 	ldrb	w0, [x0]
   85684:	6b00003f 	cmp	w1, w0
   85688:	54000fa1 	b.ne	8587c <CEcoVFB1_AF252188Factory_QueryInterface+0x4bc>  // b.any
   8568c:	f94013a0 	ldr	x0, [x29, #32]
   85690:	91001000 	add	x0, x0, #0x4
   85694:	39400001 	ldrb	w1, [x0]
   85698:	b0000440 	adrp	x0, 10e000 <ECO_CGI_1_PIXEL_VALIDITY_FLAG_e>
   8569c:	91177000 	add	x0, x0, #0x5dc
   856a0:	39400000 	ldrb	w0, [x0]
   856a4:	6b00003f 	cmp	w1, w0
   856a8:	54000ea1 	b.ne	8587c <CEcoVFB1_AF252188Factory_QueryInterface+0x4bc>  // b.any
   856ac:	f94013a0 	ldr	x0, [x29, #32]
   856b0:	91001400 	add	x0, x0, #0x5
   856b4:	39400001 	ldrb	w1, [x0]
   856b8:	b0000440 	adrp	x0, 10e000 <ECO_CGI_1_PIXEL_VALIDITY_FLAG_e>
   856bc:	91177400 	add	x0, x0, #0x5dd
   856c0:	39400000 	ldrb	w0, [x0]
   856c4:	6b00003f 	cmp	w1, w0
   856c8:	54000da1 	b.ne	8587c <CEcoVFB1_AF252188Factory_QueryInterface+0x4bc>  // b.any
   856cc:	f94013a0 	ldr	x0, [x29, #32]
   856d0:	91001800 	add	x0, x0, #0x6
   856d4:	39400001 	ldrb	w1, [x0]
   856d8:	b0000440 	adrp	x0, 10e000 <ECO_CGI_1_PIXEL_VALIDITY_FLAG_e>
   856dc:	91177800 	add	x0, x0, #0x5de
   856e0:	39400000 	ldrb	w0, [x0]
   856e4:	6b00003f 	cmp	w1, w0
   856e8:	54000ca1 	b.ne	8587c <CEcoVFB1_AF252188Factory_QueryInterface+0x4bc>  // b.any
   856ec:	f94013a0 	ldr	x0, [x29, #32]
   856f0:	91001c00 	add	x0, x0, #0x7
   856f4:	39400001 	ldrb	w1, [x0]
   856f8:	b0000440 	adrp	x0, 10e000 <ECO_CGI_1_PIXEL_VALIDITY_FLAG_e>
   856fc:	91177c00 	add	x0, x0, #0x5df
   85700:	39400000 	ldrb	w0, [x0]
   85704:	6b00003f 	cmp	w1, w0
   85708:	54000ba1 	b.ne	8587c <CEcoVFB1_AF252188Factory_QueryInterface+0x4bc>  // b.any
   8570c:	f94013a0 	ldr	x0, [x29, #32]
   85710:	91002000 	add	x0, x0, #0x8
   85714:	39400001 	ldrb	w1, [x0]
   85718:	b0000440 	adrp	x0, 10e000 <ECO_CGI_1_PIXEL_VALIDITY_FLAG_e>
   8571c:	91178000 	add	x0, x0, #0x5e0
   85720:	39400000 	ldrb	w0, [x0]
   85724:	6b00003f 	cmp	w1, w0
   85728:	54000aa1 	b.ne	8587c <CEcoVFB1_AF252188Factory_QueryInterface+0x4bc>  // b.any
   8572c:	f94013a0 	ldr	x0, [x29, #32]
   85730:	91002400 	add	x0, x0, #0x9
   85734:	39400001 	ldrb	w1, [x0]
   85738:	b0000440 	adrp	x0, 10e000 <ECO_CGI_1_PIXEL_VALIDITY_FLAG_e>
   8573c:	91178400 	add	x0, x0, #0x5e1
   85740:	39400000 	ldrb	w0, [x0]
   85744:	6b00003f 	cmp	w1, w0
   85748:	540009a1 	b.ne	8587c <CEcoVFB1_AF252188Factory_QueryInterface+0x4bc>  // b.any
   8574c:	f94013a0 	ldr	x0, [x29, #32]
   85750:	91002800 	add	x0, x0, #0xa
   85754:	39400001 	ldrb	w1, [x0]
   85758:	b0000440 	adrp	x0, 10e000 <ECO_CGI_1_PIXEL_VALIDITY_FLAG_e>
   8575c:	91178800 	add	x0, x0, #0x5e2
   85760:	39400000 	ldrb	w0, [x0]
   85764:	6b00003f 	cmp	w1, w0
   85768:	540008a1 	b.ne	8587c <CEcoVFB1_AF252188Factory_QueryInterface+0x4bc>  // b.any
   8576c:	f94013a0 	ldr	x0, [x29, #32]
   85770:	91002c00 	add	x0, x0, #0xb
   85774:	39400001 	ldrb	w1, [x0]
   85778:	b0000440 	adrp	x0, 10e000 <ECO_CGI_1_PIXEL_VALIDITY_FLAG_e>
   8577c:	91178c00 	add	x0, x0, #0x5e3
   85780:	39400000 	ldrb	w0, [x0]
   85784:	6b00003f 	cmp	w1, w0
   85788:	540007a1 	b.ne	8587c <CEcoVFB1_AF252188Factory_QueryInterface+0x4bc>  // b.any
   8578c:	f94013a0 	ldr	x0, [x29, #32]
   85790:	91003000 	add	x0, x0, #0xc
   85794:	39400001 	ldrb	w1, [x0]
   85798:	b0000440 	adrp	x0, 10e000 <ECO_CGI_1_PIXEL_VALIDITY_FLAG_e>
   8579c:	91179000 	add	x0, x0, #0x5e4
   857a0:	39400000 	ldrb	w0, [x0]
   857a4:	6b00003f 	cmp	w1, w0
   857a8:	540006a1 	b.ne	8587c <CEcoVFB1_AF252188Factory_QueryInterface+0x4bc>  // b.any
   857ac:	f94013a0 	ldr	x0, [x29, #32]
   857b0:	91003400 	add	x0, x0, #0xd
   857b4:	39400001 	ldrb	w1, [x0]
   857b8:	b0000440 	adrp	x0, 10e000 <ECO_CGI_1_PIXEL_VALIDITY_FLAG_e>
   857bc:	91179400 	add	x0, x0, #0x5e5
   857c0:	39400000 	ldrb	w0, [x0]
   857c4:	6b00003f 	cmp	w1, w0
   857c8:	540005a1 	b.ne	8587c <CEcoVFB1_AF252188Factory_QueryInterface+0x4bc>  // b.any
   857cc:	f94013a0 	ldr	x0, [x29, #32]
   857d0:	91003800 	add	x0, x0, #0xe
   857d4:	39400001 	ldrb	w1, [x0]
   857d8:	b0000440 	adrp	x0, 10e000 <ECO_CGI_1_PIXEL_VALIDITY_FLAG_e>
   857dc:	91179800 	add	x0, x0, #0x5e6
   857e0:	39400000 	ldrb	w0, [x0]
   857e4:	6b00003f 	cmp	w1, w0
   857e8:	540004a1 	b.ne	8587c <CEcoVFB1_AF252188Factory_QueryInterface+0x4bc>  // b.any
   857ec:	f94013a0 	ldr	x0, [x29, #32]
   857f0:	91003c00 	add	x0, x0, #0xf
   857f4:	39400001 	ldrb	w1, [x0]
   857f8:	b0000440 	adrp	x0, 10e000 <ECO_CGI_1_PIXEL_VALIDITY_FLAG_e>
   857fc:	91179c00 	add	x0, x0, #0x5e7
   85800:	39400000 	ldrb	w0, [x0]
   85804:	6b00003f 	cmp	w1, w0
   85808:	540003a1 	b.ne	8587c <CEcoVFB1_AF252188Factory_QueryInterface+0x4bc>  // b.any
   8580c:	f94013a0 	ldr	x0, [x29, #32]
   85810:	91004000 	add	x0, x0, #0x10
   85814:	39400001 	ldrb	w1, [x0]
   85818:	b0000440 	adrp	x0, 10e000 <ECO_CGI_1_PIXEL_VALIDITY_FLAG_e>
   8581c:	9117a000 	add	x0, x0, #0x5e8
   85820:	39400000 	ldrb	w0, [x0]
   85824:	6b00003f 	cmp	w1, w0
   85828:	540002a1 	b.ne	8587c <CEcoVFB1_AF252188Factory_QueryInterface+0x4bc>  // b.any
   8582c:	f94013a0 	ldr	x0, [x29, #32]
   85830:	91004400 	add	x0, x0, #0x11
   85834:	39400001 	ldrb	w1, [x0]
   85838:	b0000440 	adrp	x0, 10e000 <ECO_CGI_1_PIXEL_VALIDITY_FLAG_e>
   8583c:	9117a400 	add	x0, x0, #0x5e9
   85840:	39400000 	ldrb	w0, [x0]
   85844:	6b00003f 	cmp	w1, w0
   85848:	540001a1 	b.ne	8587c <CEcoVFB1_AF252188Factory_QueryInterface+0x4bc>  // b.any
   8584c:	f9400fa0 	ldr	x0, [x29, #24]
   85850:	f94017a1 	ldr	x1, [x29, #40]
   85854:	f9000001 	str	x1, [x0]
   85858:	f9400fa0 	ldr	x0, [x29, #24]
   8585c:	f9400000 	ldr	x0, [x0]
   85860:	f9400000 	ldr	x0, [x0]
   85864:	f9400401 	ldr	x1, [x0, #8]
   85868:	f9400fa0 	ldr	x0, [x29, #24]
   8586c:	f9400000 	ldr	x0, [x0]
   85870:	d63f0020 	blr	x1
   85874:	52800000 	mov	w0, #0x0                   	// #0
   85878:	14000004 	b	85888 <CEcoVFB1_AF252188Factory_QueryInterface+0x4c8>
   8587c:	f9400fa0 	ldr	x0, [x29, #24]
   85880:	f900001f 	str	xzr, [x0]
   85884:	12800000 	mov	w0, #0xffffffff            	// #-1
   85888:	a8c37bfd 	ldp	x29, x30, [sp], #48
   8588c:	d65f03c0 	ret

0000000000085890 <CEcoVFB1_AF252188Factory_AddRef>:
   85890:	d10083ff 	sub	sp, sp, #0x20
   85894:	f90007e0 	str	x0, [sp, #8]
   85898:	f94007e0 	ldr	x0, [sp, #8]
   8589c:	f9000fe0 	str	x0, [sp, #24]
   858a0:	f94007e0 	ldr	x0, [sp, #8]
   858a4:	f100001f 	cmp	x0, #0x0
   858a8:	54000061 	b.ne	858b4 <CEcoVFB1_AF252188Factory_AddRef+0x24>  // b.any
   858ac:	12800000 	mov	w0, #0xffffffff            	// #-1
   858b0:	14000008 	b	858d0 <CEcoVFB1_AF252188Factory_AddRef+0x40>
   858b4:	f9400fe0 	ldr	x0, [sp, #24]
   858b8:	b9400800 	ldr	w0, [x0, #8]
   858bc:	11000401 	add	w1, w0, #0x1
   858c0:	f9400fe0 	ldr	x0, [sp, #24]
   858c4:	b9000801 	str	w1, [x0, #8]
   858c8:	f9400fe0 	ldr	x0, [sp, #24]
   858cc:	b9400800 	ldr	w0, [x0, #8]
   858d0:	910083ff 	add	sp, sp, #0x20
   858d4:	d65f03c0 	ret

00000000000858d8 <CEcoVFB1_AF252188Factory_Release>:
   858d8:	d10083ff 	sub	sp, sp, #0x20
   858dc:	f90007e0 	str	x0, [sp, #8]
   858e0:	f94007e0 	ldr	x0, [sp, #8]
   858e4:	f9000fe0 	str	x0, [sp, #24]
   858e8:	f94007e0 	ldr	x0, [sp, #8]
   858ec:	f100001f 	cmp	x0, #0x0
   858f0:	54000061 	b.ne	858fc <CEcoVFB1_AF252188Factory_Release+0x24>  // b.any
   858f4:	12800000 	mov	w0, #0xffffffff            	// #-1
   858f8:	1400000e 	b	85930 <CEcoVFB1_AF252188Factory_Release+0x58>
   858fc:	f9400fe0 	ldr	x0, [sp, #24]
   85900:	b9400800 	ldr	w0, [x0, #8]
   85904:	51000401 	sub	w1, w0, #0x1
   85908:	f9400fe0 	ldr	x0, [sp, #24]
   8590c:	b9000801 	str	w1, [x0, #8]
   85910:	f9400fe0 	ldr	x0, [sp, #24]
   85914:	b9400800 	ldr	w0, [x0, #8]
   85918:	7100001f 	cmp	w0, #0x0
   8591c:	54000061 	b.ne	85928 <CEcoVFB1_AF252188Factory_Release+0x50>  // b.any
   85920:	52800000 	mov	w0, #0x0                   	// #0
   85924:	14000003 	b	85930 <CEcoVFB1_AF252188Factory_Release+0x58>
   85928:	f9400fe0 	ldr	x0, [sp, #24]
   8592c:	b9400800 	ldr	w0, [x0, #8]
   85930:	910083ff 	add	sp, sp, #0x20
   85934:	d65f03c0 	ret

0000000000085938 <CEcoVFB1_AF252188Factory_Init>:
   85938:	a9bc7bfd 	stp	x29, x30, [sp, #-64]!
   8593c:	910003fd 	mov	x29, sp
   85940:	f90017a0 	str	x0, [x29, #40]
   85944:	f90013a1 	str	x1, [x29, #32]
   85948:	f9000fa2 	str	x2, [x29, #24]
   8594c:	f94017a0 	ldr	x0, [x29, #40]
   85950:	f9001fa0 	str	x0, [x29, #56]
   85954:	12800000 	mov	w0, #0xffffffff            	// #-1
   85958:	79006fa0 	strh	w0, [x29, #54]
   8595c:	f94017a0 	ldr	x0, [x29, #40]
   85960:	f100001f 	cmp	x0, #0x0
   85964:	54000061 	b.ne	85970 <CEcoVFB1_AF252188Factory_Init+0x38>  // b.any
   85968:	12800000 	mov	w0, #0xffffffff            	// #-1
   8596c:	14000008 	b	8598c <CEcoVFB1_AF252188Factory_Init+0x54>
   85970:	f9401fa0 	ldr	x0, [x29, #56]
   85974:	f9400c02 	ldr	x2, [x0, #24]
   85978:	f94013a1 	ldr	x1, [x29, #32]
   8597c:	f9400fa0 	ldr	x0, [x29, #24]
   85980:	d63f0040 	blr	x2
   85984:	79006fa0 	strh	w0, [x29, #54]
   85988:	79c06fa0 	ldrsh	w0, [x29, #54]
   8598c:	a8c47bfd 	ldp	x29, x30, [sp], #64
   85990:	d65f03c0 	ret

0000000000085994 <CEcoVFB1_AF252188Factory_Alloc>:
   85994:	a9ba7bfd 	stp	x29, x30, [sp, #-96]!
   85998:	910003fd 	mov	x29, sp
   8599c:	f9001fa0 	str	x0, [x29, #56]
   859a0:	f9001ba1 	str	x1, [x29, #48]
   859a4:	f90017a2 	str	x2, [x29, #40]
   859a8:	f90013a3 	str	x3, [x29, #32]
   859ac:	f9000fa4 	str	x4, [x29, #24]
   859b0:	f9401fa0 	ldr	x0, [x29, #56]
   859b4:	f9002fa0 	str	x0, [x29, #88]
   859b8:	f90027bf 	str	xzr, [x29, #72]
   859bc:	12800000 	mov	w0, #0xffffffff            	// #-1
   859c0:	7900afa0 	strh	w0, [x29, #86]
   859c4:	f9401fa0 	ldr	x0, [x29, #56]
   859c8:	f100001f 	cmp	x0, #0x0
   859cc:	54000061 	b.ne	859d8 <CEcoVFB1_AF252188Factory_Alloc+0x44>  // b.any
   859d0:	12800000 	mov	w0, #0xffffffff            	// #-1
   859d4:	140000bc 	b	85cc4 <CEcoVFB1_AF252188Factory_Alloc+0x330>
   859d8:	f94017a0 	ldr	x0, [x29, #40]
   859dc:	f100001f 	cmp	x0, #0x0
   859e0:	54001240 	b.eq	85c28 <CEcoVFB1_AF252188Factory_Alloc+0x294>  // b.none
   859e4:	f94013a0 	ldr	x0, [x29, #32]
   859e8:	39400001 	ldrb	w1, [x0]
   859ec:	b0000440 	adrp	x0, 10e000 <ECO_CGI_1_PIXEL_VALIDITY_FLAG_e>
   859f0:	91170000 	add	x0, x0, #0x5c0
   859f4:	39400000 	ldrb	w0, [x0]
   859f8:	6b00003f 	cmp	w1, w0
   859fc:	54001121 	b.ne	85c20 <CEcoVFB1_AF252188Factory_Alloc+0x28c>  // b.any
   85a00:	f94013a0 	ldr	x0, [x29, #32]
   85a04:	91000400 	add	x0, x0, #0x1
   85a08:	39400001 	ldrb	w1, [x0]
   85a0c:	b0000440 	adrp	x0, 10e000 <ECO_CGI_1_PIXEL_VALIDITY_FLAG_e>
   85a10:	91170400 	add	x0, x0, #0x5c1
   85a14:	39400000 	ldrb	w0, [x0]
   85a18:	6b00003f 	cmp	w1, w0
   85a1c:	54001021 	b.ne	85c20 <CEcoVFB1_AF252188Factory_Alloc+0x28c>  // b.any
   85a20:	f94013a0 	ldr	x0, [x29, #32]
   85a24:	91000800 	add	x0, x0, #0x2
   85a28:	39400001 	ldrb	w1, [x0]
   85a2c:	b0000440 	adrp	x0, 10e000 <ECO_CGI_1_PIXEL_VALIDITY_FLAG_e>
   85a30:	91170800 	add	x0, x0, #0x5c2
   85a34:	39400000 	ldrb	w0, [x0]
   85a38:	6b00003f 	cmp	w1, w0
   85a3c:	54000f21 	b.ne	85c20 <CEcoVFB1_AF252188Factory_Alloc+0x28c>  // b.any
   85a40:	f94013a0 	ldr	x0, [x29, #32]
   85a44:	91000c00 	add	x0, x0, #0x3
   85a48:	39400001 	ldrb	w1, [x0]
   85a4c:	b0000440 	adrp	x0, 10e000 <ECO_CGI_1_PIXEL_VALIDITY_FLAG_e>
   85a50:	91170c00 	add	x0, x0, #0x5c3
   85a54:	39400000 	ldrb	w0, [x0]
   85a58:	6b00003f 	cmp	w1, w0
   85a5c:	54000e21 	b.ne	85c20 <CEcoVFB1_AF252188Factory_Alloc+0x28c>  // b.any
   85a60:	f94013a0 	ldr	x0, [x29, #32]
   85a64:	91001000 	add	x0, x0, #0x4
   85a68:	39400001 	ldrb	w1, [x0]
   85a6c:	b0000440 	adrp	x0, 10e000 <ECO_CGI_1_PIXEL_VALIDITY_FLAG_e>
   85a70:	91171000 	add	x0, x0, #0x5c4
   85a74:	39400000 	ldrb	w0, [x0]
   85a78:	6b00003f 	cmp	w1, w0
   85a7c:	54000d21 	b.ne	85c20 <CEcoVFB1_AF252188Factory_Alloc+0x28c>  // b.any
   85a80:	f94013a0 	ldr	x0, [x29, #32]
   85a84:	91001400 	add	x0, x0, #0x5
   85a88:	39400001 	ldrb	w1, [x0]
   85a8c:	b0000440 	adrp	x0, 10e000 <ECO_CGI_1_PIXEL_VALIDITY_FLAG_e>
   85a90:	91171400 	add	x0, x0, #0x5c5
   85a94:	39400000 	ldrb	w0, [x0]
   85a98:	6b00003f 	cmp	w1, w0
   85a9c:	54000c21 	b.ne	85c20 <CEcoVFB1_AF252188Factory_Alloc+0x28c>  // b.any
   85aa0:	f94013a0 	ldr	x0, [x29, #32]
   85aa4:	91001800 	add	x0, x0, #0x6
   85aa8:	39400001 	ldrb	w1, [x0]
   85aac:	b0000440 	adrp	x0, 10e000 <ECO_CGI_1_PIXEL_VALIDITY_FLAG_e>
   85ab0:	91171800 	add	x0, x0, #0x5c6
   85ab4:	39400000 	ldrb	w0, [x0]
   85ab8:	6b00003f 	cmp	w1, w0
   85abc:	54000b21 	b.ne	85c20 <CEcoVFB1_AF252188Factory_Alloc+0x28c>  // b.any
   85ac0:	f94013a0 	ldr	x0, [x29, #32]
   85ac4:	91001c00 	add	x0, x0, #0x7
   85ac8:	39400001 	ldrb	w1, [x0]
   85acc:	b0000440 	adrp	x0, 10e000 <ECO_CGI_1_PIXEL_VALIDITY_FLAG_e>
   85ad0:	91171c00 	add	x0, x0, #0x5c7
   85ad4:	39400000 	ldrb	w0, [x0]
   85ad8:	6b00003f 	cmp	w1, w0
   85adc:	54000a21 	b.ne	85c20 <CEcoVFB1_AF252188Factory_Alloc+0x28c>  // b.any
   85ae0:	f94013a0 	ldr	x0, [x29, #32]
   85ae4:	91002000 	add	x0, x0, #0x8
   85ae8:	39400001 	ldrb	w1, [x0]
   85aec:	b0000440 	adrp	x0, 10e000 <ECO_CGI_1_PIXEL_VALIDITY_FLAG_e>
   85af0:	91172000 	add	x0, x0, #0x5c8
   85af4:	39400000 	ldrb	w0, [x0]
   85af8:	6b00003f 	cmp	w1, w0
   85afc:	54000921 	b.ne	85c20 <CEcoVFB1_AF252188Factory_Alloc+0x28c>  // b.any
   85b00:	f94013a0 	ldr	x0, [x29, #32]
   85b04:	91002400 	add	x0, x0, #0x9
   85b08:	39400001 	ldrb	w1, [x0]
   85b0c:	b0000440 	adrp	x0, 10e000 <ECO_CGI_1_PIXEL_VALIDITY_FLAG_e>
   85b10:	91172400 	add	x0, x0, #0x5c9
   85b14:	39400000 	ldrb	w0, [x0]
   85b18:	6b00003f 	cmp	w1, w0
   85b1c:	54000821 	b.ne	85c20 <CEcoVFB1_AF252188Factory_Alloc+0x28c>  // b.any
   85b20:	f94013a0 	ldr	x0, [x29, #32]
   85b24:	91002800 	add	x0, x0, #0xa
   85b28:	39400001 	ldrb	w1, [x0]
   85b2c:	b0000440 	adrp	x0, 10e000 <ECO_CGI_1_PIXEL_VALIDITY_FLAG_e>
   85b30:	91172800 	add	x0, x0, #0x5ca
   85b34:	39400000 	ldrb	w0, [x0]
   85b38:	6b00003f 	cmp	w1, w0
   85b3c:	54000721 	b.ne	85c20 <CEcoVFB1_AF252188Factory_Alloc+0x28c>  // b.any
   85b40:	f94013a0 	ldr	x0, [x29, #32]
   85b44:	91002c00 	add	x0, x0, #0xb
   85b48:	39400001 	ldrb	w1, [x0]
   85b4c:	b0000440 	adrp	x0, 10e000 <ECO_CGI_1_PIXEL_VALIDITY_FLAG_e>
   85b50:	91172c00 	add	x0, x0, #0x5cb
   85b54:	39400000 	ldrb	w0, [x0]
   85b58:	6b00003f 	cmp	w1, w0
   85b5c:	54000621 	b.ne	85c20 <CEcoVFB1_AF252188Factory_Alloc+0x28c>  // b.any
   85b60:	f94013a0 	ldr	x0, [x29, #32]
   85b64:	91003000 	add	x0, x0, #0xc
   85b68:	39400001 	ldrb	w1, [x0]
   85b6c:	b0000440 	adrp	x0, 10e000 <ECO_CGI_1_PIXEL_VALIDITY_FLAG_e>
   85b70:	91173000 	add	x0, x0, #0x5cc
   85b74:	39400000 	ldrb	w0, [x0]
   85b78:	6b00003f 	cmp	w1, w0
   85b7c:	54000521 	b.ne	85c20 <CEcoVFB1_AF252188Factory_Alloc+0x28c>  // b.any
   85b80:	f94013a0 	ldr	x0, [x29, #32]
   85b84:	91003400 	add	x0, x0, #0xd
   85b88:	39400001 	ldrb	w1, [x0]
   85b8c:	b0000440 	adrp	x0, 10e000 <ECO_CGI_1_PIXEL_VALIDITY_FLAG_e>
   85b90:	91173400 	add	x0, x0, #0x5cd
   85b94:	39400000 	ldrb	w0, [x0]
   85b98:	6b00003f 	cmp	w1, w0
   85b9c:	54000421 	b.ne	85c20 <CEcoVFB1_AF252188Factory_Alloc+0x28c>  // b.any
   85ba0:	f94013a0 	ldr	x0, [x29, #32]
   85ba4:	91003800 	add	x0, x0, #0xe
   85ba8:	39400001 	ldrb	w1, [x0]
   85bac:	b0000440 	adrp	x0, 10e000 <ECO_CGI_1_PIXEL_VALIDITY_FLAG_e>
   85bb0:	91173800 	add	x0, x0, #0x5ce
   85bb4:	39400000 	ldrb	w0, [x0]
   85bb8:	6b00003f 	cmp	w1, w0
   85bbc:	54000321 	b.ne	85c20 <CEcoVFB1_AF252188Factory_Alloc+0x28c>  // b.any
   85bc0:	f94013a0 	ldr	x0, [x29, #32]
   85bc4:	91003c00 	add	x0, x0, #0xf
   85bc8:	39400001 	ldrb	w1, [x0]
   85bcc:	b0000440 	adrp	x0, 10e000 <ECO_CGI_1_PIXEL_VALIDITY_FLAG_e>
   85bd0:	91173c00 	add	x0, x0, #0x5cf
   85bd4:	39400000 	ldrb	w0, [x0]
   85bd8:	6b00003f 	cmp	w1, w0
   85bdc:	54000221 	b.ne	85c20 <CEcoVFB1_AF252188Factory_Alloc+0x28c>  // b.any
   85be0:	f94013a0 	ldr	x0, [x29, #32]
   85be4:	91004000 	add	x0, x0, #0x10
   85be8:	39400001 	ldrb	w1, [x0]
   85bec:	b0000440 	adrp	x0, 10e000 <ECO_CGI_1_PIXEL_VALIDITY_FLAG_e>
   85bf0:	91174000 	add	x0, x0, #0x5d0
   85bf4:	39400000 	ldrb	w0, [x0]
   85bf8:	6b00003f 	cmp	w1, w0
   85bfc:	54000121 	b.ne	85c20 <CEcoVFB1_AF252188Factory_Alloc+0x28c>  // b.any
   85c00:	f94013a0 	ldr	x0, [x29, #32]
   85c04:	91004400 	add	x0, x0, #0x11
   85c08:	39400001 	ldrb	w1, [x0]
   85c0c:	b0000440 	adrp	x0, 10e000 <ECO_CGI_1_PIXEL_VALIDITY_FLAG_e>
   85c10:	91174400 	add	x0, x0, #0x5d1
   85c14:	39400000 	ldrb	w0, [x0]
   85c18:	6b00003f 	cmp	w1, w0
   85c1c:	54000060 	b.eq	85c28 <CEcoVFB1_AF252188Factory_Alloc+0x294>  // b.none
   85c20:	12800000 	mov	w0, #0xffffffff            	// #-1
   85c24:	14000028 	b	85cc4 <CEcoVFB1_AF252188Factory_Alloc+0x330>
   85c28:	f9402fa0 	ldr	x0, [x29, #88]
   85c2c:	f9400803 	ldr	x3, [x0, #16]
   85c30:	910123a0 	add	x0, x29, #0x48
   85c34:	aa0003e2 	mov	x2, x0
   85c38:	f94017a1 	ldr	x1, [x29, #40]
   85c3c:	f9401ba0 	ldr	x0, [x29, #48]
   85c40:	d63f0060 	blr	x3
   85c44:	7900afa0 	strh	w0, [x29, #86]
   85c48:	79c0afa0 	ldrsh	w0, [x29, #86]
   85c4c:	7100001f 	cmp	w0, #0x0
   85c50:	54000081 	b.ne	85c60 <CEcoVFB1_AF252188Factory_Alloc+0x2cc>  // b.any
   85c54:	f94027a0 	ldr	x0, [x29, #72]
   85c58:	f100001f 	cmp	x0, #0x0
   85c5c:	54000061 	b.ne	85c68 <CEcoVFB1_AF252188Factory_Alloc+0x2d4>  // b.any
   85c60:	12800000 	mov	w0, #0xffffffff            	// #-1
   85c64:	14000018 	b	85cc4 <CEcoVFB1_AF252188Factory_Alloc+0x330>
   85c68:	f9401fa0 	ldr	x0, [x29, #56]
   85c6c:	f9400000 	ldr	x0, [x0]
   85c70:	f9401003 	ldr	x3, [x0, #32]
   85c74:	f94027a0 	ldr	x0, [x29, #72]
   85c78:	aa0003e2 	mov	x2, x0
   85c7c:	f9401ba1 	ldr	x1, [x29, #48]
   85c80:	f9401fa0 	ldr	x0, [x29, #56]
   85c84:	d63f0060 	blr	x3
   85c88:	7900afa0 	strh	w0, [x29, #86]
   85c8c:	f94027a0 	ldr	x0, [x29, #72]
   85c90:	f9400000 	ldr	x0, [x0]
   85c94:	f9400003 	ldr	x3, [x0]
   85c98:	f94027a0 	ldr	x0, [x29, #72]
   85c9c:	f9400fa2 	ldr	x2, [x29, #24]
   85ca0:	f94013a1 	ldr	x1, [x29, #32]
   85ca4:	d63f0060 	blr	x3
   85ca8:	7900afa0 	strh	w0, [x29, #86]
   85cac:	f94027a0 	ldr	x0, [x29, #72]
   85cb0:	f9400000 	ldr	x0, [x0]
   85cb4:	f9400801 	ldr	x1, [x0, #16]
   85cb8:	f94027a0 	ldr	x0, [x29, #72]
   85cbc:	d63f0020 	blr	x1
   85cc0:	79c0afa0 	ldrsh	w0, [x29, #86]
   85cc4:	a8c67bfd 	ldp	x29, x30, [sp], #96
   85cc8:	d65f03c0 	ret

0000000000085ccc <CEcoVFB1_AF252188Factory_get_Name>:
   85ccc:	d10083ff 	sub	sp, sp, #0x20
   85cd0:	f90007e0 	str	x0, [sp, #8]
   85cd4:	f94007e0 	ldr	x0, [sp, #8]
   85cd8:	f9000fe0 	str	x0, [sp, #24]
   85cdc:	f94007e0 	ldr	x0, [sp, #8]
   85ce0:	f100001f 	cmp	x0, #0x0
   85ce4:	54000061 	b.ne	85cf0 <CEcoVFB1_AF252188Factory_get_Name+0x24>  // b.any
   85ce8:	d2800000 	mov	x0, #0x0                   	// #0
   85cec:	14000003 	b	85cf8 <CEcoVFB1_AF252188Factory_get_Name+0x2c>
   85cf0:	f9400fe0 	ldr	x0, [sp, #24]
   85cf4:	91008000 	add	x0, x0, #0x20
   85cf8:	910083ff 	add	sp, sp, #0x20
   85cfc:	d65f03c0 	ret

0000000000085d00 <CEcoVFB1_AF252188Factory_get_Version>:
   85d00:	d10083ff 	sub	sp, sp, #0x20
   85d04:	f90007e0 	str	x0, [sp, #8]
   85d08:	f94007e0 	ldr	x0, [sp, #8]
   85d0c:	f9000fe0 	str	x0, [sp, #24]
   85d10:	f94007e0 	ldr	x0, [sp, #8]
   85d14:	f100001f 	cmp	x0, #0x0
   85d18:	54000061 	b.ne	85d24 <CEcoVFB1_AF252188Factory_get_Version+0x24>  // b.any
   85d1c:	d2800000 	mov	x0, #0x0                   	// #0
   85d20:	14000003 	b	85d2c <CEcoVFB1_AF252188Factory_get_Version+0x2c>
   85d24:	f9400fe0 	ldr	x0, [sp, #24]
   85d28:	91018000 	add	x0, x0, #0x60
   85d2c:	910083ff 	add	sp, sp, #0x20
   85d30:	d65f03c0 	ret

0000000000085d34 <CEcoVFB1_AF252188Factory_get_Manufacturer>:
   85d34:	d10083ff 	sub	sp, sp, #0x20
   85d38:	f90007e0 	str	x0, [sp, #8]
   85d3c:	f94007e0 	ldr	x0, [sp, #8]
   85d40:	f9000fe0 	str	x0, [sp, #24]
   85d44:	f94007e0 	ldr	x0, [sp, #8]
   85d48:	f100001f 	cmp	x0, #0x0
   85d4c:	54000061 	b.ne	85d58 <CEcoVFB1_AF252188Factory_get_Manufacturer+0x24>  // b.any
   85d50:	d2800000 	mov	x0, #0x0                   	// #0
   85d54:	14000003 	b	85d60 <CEcoVFB1_AF252188Factory_get_Manufacturer+0x2c>
   85d58:	f9400fe0 	ldr	x0, [sp, #24]
   85d5c:	9101c000 	add	x0, x0, #0x70
   85d60:	910083ff 	add	sp, sp, #0x20
   85d64:	d65f03c0 	ret

0000000000085d68 <CEcoVFB1_AF252188_QueryInterface>:
   85d68:	a9bc7bfd 	stp	x29, x30, [sp, #-64]!
   85d6c:	910003fd 	mov	x29, sp
   85d70:	f90017a0 	str	x0, [x29, #40]
   85d74:	f90013a1 	str	x1, [x29, #32]
   85d78:	f9000fa2 	str	x2, [x29, #24]
   85d7c:	f94017a0 	ldr	x0, [x29, #40]
   85d80:	f9001fa0 	str	x0, [x29, #56]
   85d84:	f94017a0 	ldr	x0, [x29, #40]
   85d88:	f100001f 	cmp	x0, #0x0
   85d8c:	54000080 	b.eq	85d9c <CEcoVFB1_AF252188_QueryInterface+0x34>  // b.none
   85d90:	f9400fa0 	ldr	x0, [x29, #24]
   85d94:	f100001f 	cmp	x0, #0x0
   85d98:	54000061 	b.ne	85da4 <CEcoVFB1_AF252188_QueryInterface+0x3c>  // b.any
   85d9c:	12800000 	mov	w0, #0xffffffff            	// #-1
   85da0:	140001cf 	b	864dc <CEcoVFB1_AF252188_QueryInterface+0x774>
   85da4:	f94013a0 	ldr	x0, [x29, #32]
   85da8:	39400001 	ldrb	w1, [x0]
   85dac:	b0000440 	adrp	x0, 10e000 <ECO_CGI_1_PIXEL_VALIDITY_FLAG_e>
   85db0:	911ca000 	add	x0, x0, #0x728
   85db4:	39400000 	ldrb	w0, [x0]
   85db8:	6b00003f 	cmp	w1, w0
   85dbc:	54001241 	b.ne	86004 <CEcoVFB1_AF252188_QueryInterface+0x29c>  // b.any
   85dc0:	f94013a0 	ldr	x0, [x29, #32]
   85dc4:	91000400 	add	x0, x0, #0x1
   85dc8:	39400001 	ldrb	w1, [x0]
   85dcc:	b0000440 	adrp	x0, 10e000 <ECO_CGI_1_PIXEL_VALIDITY_FLAG_e>
   85dd0:	911ca400 	add	x0, x0, #0x729
   85dd4:	39400000 	ldrb	w0, [x0]
   85dd8:	6b00003f 	cmp	w1, w0
   85ddc:	54001141 	b.ne	86004 <CEcoVFB1_AF252188_QueryInterface+0x29c>  // b.any
   85de0:	f94013a0 	ldr	x0, [x29, #32]
   85de4:	91000800 	add	x0, x0, #0x2
   85de8:	39400001 	ldrb	w1, [x0]
   85dec:	b0000440 	adrp	x0, 10e000 <ECO_CGI_1_PIXEL_VALIDITY_FLAG_e>
   85df0:	911ca800 	add	x0, x0, #0x72a
   85df4:	39400000 	ldrb	w0, [x0]
   85df8:	6b00003f 	cmp	w1, w0
   85dfc:	54001041 	b.ne	86004 <CEcoVFB1_AF252188_QueryInterface+0x29c>  // b.any
   85e00:	f94013a0 	ldr	x0, [x29, #32]
   85e04:	91000c00 	add	x0, x0, #0x3
   85e08:	39400001 	ldrb	w1, [x0]
   85e0c:	b0000440 	adrp	x0, 10e000 <ECO_CGI_1_PIXEL_VALIDITY_FLAG_e>
   85e10:	911cac00 	add	x0, x0, #0x72b
   85e14:	39400000 	ldrb	w0, [x0]
   85e18:	6b00003f 	cmp	w1, w0
   85e1c:	54000f41 	b.ne	86004 <CEcoVFB1_AF252188_QueryInterface+0x29c>  // b.any
   85e20:	f94013a0 	ldr	x0, [x29, #32]
   85e24:	91001000 	add	x0, x0, #0x4
   85e28:	39400001 	ldrb	w1, [x0]
   85e2c:	b0000440 	adrp	x0, 10e000 <ECO_CGI_1_PIXEL_VALIDITY_FLAG_e>
   85e30:	911cb000 	add	x0, x0, #0x72c
   85e34:	39400000 	ldrb	w0, [x0]
   85e38:	6b00003f 	cmp	w1, w0
   85e3c:	54000e41 	b.ne	86004 <CEcoVFB1_AF252188_QueryInterface+0x29c>  // b.any
   85e40:	f94013a0 	ldr	x0, [x29, #32]
   85e44:	91001400 	add	x0, x0, #0x5
   85e48:	39400001 	ldrb	w1, [x0]
   85e4c:	b0000440 	adrp	x0, 10e000 <ECO_CGI_1_PIXEL_VALIDITY_FLAG_e>
   85e50:	911cb400 	add	x0, x0, #0x72d
   85e54:	39400000 	ldrb	w0, [x0]
   85e58:	6b00003f 	cmp	w1, w0
   85e5c:	54000d41 	b.ne	86004 <CEcoVFB1_AF252188_QueryInterface+0x29c>  // b.any
   85e60:	f94013a0 	ldr	x0, [x29, #32]
   85e64:	91001800 	add	x0, x0, #0x6
   85e68:	39400001 	ldrb	w1, [x0]
   85e6c:	b0000440 	adrp	x0, 10e000 <ECO_CGI_1_PIXEL_VALIDITY_FLAG_e>
   85e70:	911cb800 	add	x0, x0, #0x72e
   85e74:	39400000 	ldrb	w0, [x0]
   85e78:	6b00003f 	cmp	w1, w0
   85e7c:	54000c41 	b.ne	86004 <CEcoVFB1_AF252188_QueryInterface+0x29c>  // b.any
   85e80:	f94013a0 	ldr	x0, [x29, #32]
   85e84:	91001c00 	add	x0, x0, #0x7
   85e88:	39400001 	ldrb	w1, [x0]
   85e8c:	b0000440 	adrp	x0, 10e000 <ECO_CGI_1_PIXEL_VALIDITY_FLAG_e>
   85e90:	911cbc00 	add	x0, x0, #0x72f
   85e94:	39400000 	ldrb	w0, [x0]
   85e98:	6b00003f 	cmp	w1, w0
   85e9c:	54000b41 	b.ne	86004 <CEcoVFB1_AF252188_QueryInterface+0x29c>  // b.any
   85ea0:	f94013a0 	ldr	x0, [x29, #32]
   85ea4:	91002000 	add	x0, x0, #0x8
   85ea8:	39400001 	ldrb	w1, [x0]
   85eac:	b0000440 	adrp	x0, 10e000 <ECO_CGI_1_PIXEL_VALIDITY_FLAG_e>
   85eb0:	911cc000 	add	x0, x0, #0x730
   85eb4:	39400000 	ldrb	w0, [x0]
   85eb8:	6b00003f 	cmp	w1, w0
   85ebc:	54000a41 	b.ne	86004 <CEcoVFB1_AF252188_QueryInterface+0x29c>  // b.any
   85ec0:	f94013a0 	ldr	x0, [x29, #32]
   85ec4:	91002400 	add	x0, x0, #0x9
   85ec8:	39400001 	ldrb	w1, [x0]
   85ecc:	b0000440 	adrp	x0, 10e000 <ECO_CGI_1_PIXEL_VALIDITY_FLAG_e>
   85ed0:	911cc400 	add	x0, x0, #0x731
   85ed4:	39400000 	ldrb	w0, [x0]
   85ed8:	6b00003f 	cmp	w1, w0
   85edc:	54000941 	b.ne	86004 <CEcoVFB1_AF252188_QueryInterface+0x29c>  // b.any
   85ee0:	f94013a0 	ldr	x0, [x29, #32]
   85ee4:	91002800 	add	x0, x0, #0xa
   85ee8:	39400001 	ldrb	w1, [x0]
   85eec:	b0000440 	adrp	x0, 10e000 <ECO_CGI_1_PIXEL_VALIDITY_FLAG_e>
   85ef0:	911cc800 	add	x0, x0, #0x732
   85ef4:	39400000 	ldrb	w0, [x0]
   85ef8:	6b00003f 	cmp	w1, w0
   85efc:	54000841 	b.ne	86004 <CEcoVFB1_AF252188_QueryInterface+0x29c>  // b.any
   85f00:	f94013a0 	ldr	x0, [x29, #32]
   85f04:	91002c00 	add	x0, x0, #0xb
   85f08:	39400001 	ldrb	w1, [x0]
   85f0c:	b0000440 	adrp	x0, 10e000 <ECO_CGI_1_PIXEL_VALIDITY_FLAG_e>
   85f10:	911ccc00 	add	x0, x0, #0x733
   85f14:	39400000 	ldrb	w0, [x0]
   85f18:	6b00003f 	cmp	w1, w0
   85f1c:	54000741 	b.ne	86004 <CEcoVFB1_AF252188_QueryInterface+0x29c>  // b.any
   85f20:	f94013a0 	ldr	x0, [x29, #32]
   85f24:	91003000 	add	x0, x0, #0xc
   85f28:	39400001 	ldrb	w1, [x0]
   85f2c:	b0000440 	adrp	x0, 10e000 <ECO_CGI_1_PIXEL_VALIDITY_FLAG_e>
   85f30:	911cd000 	add	x0, x0, #0x734
   85f34:	39400000 	ldrb	w0, [x0]
   85f38:	6b00003f 	cmp	w1, w0
   85f3c:	54000641 	b.ne	86004 <CEcoVFB1_AF252188_QueryInterface+0x29c>  // b.any
   85f40:	f94013a0 	ldr	x0, [x29, #32]
   85f44:	91003400 	add	x0, x0, #0xd
   85f48:	39400001 	ldrb	w1, [x0]
   85f4c:	b0000440 	adrp	x0, 10e000 <ECO_CGI_1_PIXEL_VALIDITY_FLAG_e>
   85f50:	911cd400 	add	x0, x0, #0x735
   85f54:	39400000 	ldrb	w0, [x0]
   85f58:	6b00003f 	cmp	w1, w0
   85f5c:	54000541 	b.ne	86004 <CEcoVFB1_AF252188_QueryInterface+0x29c>  // b.any
   85f60:	f94013a0 	ldr	x0, [x29, #32]
   85f64:	91003800 	add	x0, x0, #0xe
   85f68:	39400001 	ldrb	w1, [x0]
   85f6c:	b0000440 	adrp	x0, 10e000 <ECO_CGI_1_PIXEL_VALIDITY_FLAG_e>
   85f70:	911cd800 	add	x0, x0, #0x736
   85f74:	39400000 	ldrb	w0, [x0]
   85f78:	6b00003f 	cmp	w1, w0
   85f7c:	54000441 	b.ne	86004 <CEcoVFB1_AF252188_QueryInterface+0x29c>  // b.any
   85f80:	f94013a0 	ldr	x0, [x29, #32]
   85f84:	91003c00 	add	x0, x0, #0xf
   85f88:	39400001 	ldrb	w1, [x0]
   85f8c:	b0000440 	adrp	x0, 10e000 <ECO_CGI_1_PIXEL_VALIDITY_FLAG_e>
   85f90:	911cdc00 	add	x0, x0, #0x737
   85f94:	39400000 	ldrb	w0, [x0]
   85f98:	6b00003f 	cmp	w1, w0
   85f9c:	54000341 	b.ne	86004 <CEcoVFB1_AF252188_QueryInterface+0x29c>  // b.any
   85fa0:	f94013a0 	ldr	x0, [x29, #32]
   85fa4:	91004000 	add	x0, x0, #0x10
   85fa8:	39400001 	ldrb	w1, [x0]
   85fac:	b0000440 	adrp	x0, 10e000 <ECO_CGI_1_PIXEL_VALIDITY_FLAG_e>
   85fb0:	911ce000 	add	x0, x0, #0x738
   85fb4:	39400000 	ldrb	w0, [x0]
   85fb8:	6b00003f 	cmp	w1, w0
   85fbc:	54000241 	b.ne	86004 <CEcoVFB1_AF252188_QueryInterface+0x29c>  // b.any
   85fc0:	f94013a0 	ldr	x0, [x29, #32]
   85fc4:	91004400 	add	x0, x0, #0x11
   85fc8:	39400001 	ldrb	w1, [x0]
   85fcc:	b0000440 	adrp	x0, 10e000 <ECO_CGI_1_PIXEL_VALIDITY_FLAG_e>
   85fd0:	911ce400 	add	x0, x0, #0x739
   85fd4:	39400000 	ldrb	w0, [x0]
   85fd8:	6b00003f 	cmp	w1, w0
   85fdc:	54000141 	b.ne	86004 <CEcoVFB1_AF252188_QueryInterface+0x29c>  // b.any
   85fe0:	f9401fa1 	ldr	x1, [x29, #56]
   85fe4:	f9400fa0 	ldr	x0, [x29, #24]
   85fe8:	f9000001 	str	x1, [x0]
   85fec:	f9401fa0 	ldr	x0, [x29, #56]
   85ff0:	f9400000 	ldr	x0, [x0]
   85ff4:	f9400401 	ldr	x1, [x0, #8]
   85ff8:	f9401fa0 	ldr	x0, [x29, #56]
   85ffc:	d63f0020 	blr	x1
   86000:	14000136 	b	864d8 <CEcoVFB1_AF252188_QueryInterface+0x770>
   86004:	f94013a0 	ldr	x0, [x29, #32]
   86008:	39400001 	ldrb	w1, [x0]
   8600c:	90000440 	adrp	x0, 10e000 <ECO_CGI_1_PIXEL_VALIDITY_FLAG_e>
   86010:	911e2000 	add	x0, x0, #0x788
   86014:	39400000 	ldrb	w0, [x0]
   86018:	6b00003f 	cmp	w1, w0
   8601c:	54001261 	b.ne	86268 <CEcoVFB1_AF252188_QueryInterface+0x500>  // b.any
   86020:	f94013a0 	ldr	x0, [x29, #32]
   86024:	91000400 	add	x0, x0, #0x1
   86028:	39400001 	ldrb	w1, [x0]
   8602c:	90000440 	adrp	x0, 10e000 <ECO_CGI_1_PIXEL_VALIDITY_FLAG_e>
   86030:	911e2400 	add	x0, x0, #0x789
   86034:	39400000 	ldrb	w0, [x0]
   86038:	6b00003f 	cmp	w1, w0
   8603c:	54001161 	b.ne	86268 <CEcoVFB1_AF252188_QueryInterface+0x500>  // b.any
   86040:	f94013a0 	ldr	x0, [x29, #32]
   86044:	91000800 	add	x0, x0, #0x2
   86048:	39400001 	ldrb	w1, [x0]
   8604c:	90000440 	adrp	x0, 10e000 <ECO_CGI_1_PIXEL_VALIDITY_FLAG_e>
   86050:	911e2800 	add	x0, x0, #0x78a
   86054:	39400000 	ldrb	w0, [x0]
   86058:	6b00003f 	cmp	w1, w0
   8605c:	54001061 	b.ne	86268 <CEcoVFB1_AF252188_QueryInterface+0x500>  // b.any
   86060:	f94013a0 	ldr	x0, [x29, #32]
   86064:	91000c00 	add	x0, x0, #0x3
   86068:	39400001 	ldrb	w1, [x0]
   8606c:	90000440 	adrp	x0, 10e000 <ECO_CGI_1_PIXEL_VALIDITY_FLAG_e>
   86070:	911e2c00 	add	x0, x0, #0x78b
   86074:	39400000 	ldrb	w0, [x0]
   86078:	6b00003f 	cmp	w1, w0
   8607c:	54000f61 	b.ne	86268 <CEcoVFB1_AF252188_QueryInterface+0x500>  // b.any
   86080:	f94013a0 	ldr	x0, [x29, #32]
   86084:	91001000 	add	x0, x0, #0x4
   86088:	39400001 	ldrb	w1, [x0]
   8608c:	90000440 	adrp	x0, 10e000 <ECO_CGI_1_PIXEL_VALIDITY_FLAG_e>
   86090:	911e3000 	add	x0, x0, #0x78c
   86094:	39400000 	ldrb	w0, [x0]
   86098:	6b00003f 	cmp	w1, w0
   8609c:	54000e61 	b.ne	86268 <CEcoVFB1_AF252188_QueryInterface+0x500>  // b.any
   860a0:	f94013a0 	ldr	x0, [x29, #32]
   860a4:	91001400 	add	x0, x0, #0x5
   860a8:	39400001 	ldrb	w1, [x0]
   860ac:	90000440 	adrp	x0, 10e000 <ECO_CGI_1_PIXEL_VALIDITY_FLAG_e>
   860b0:	911e3400 	add	x0, x0, #0x78d
   860b4:	39400000 	ldrb	w0, [x0]
   860b8:	6b00003f 	cmp	w1, w0
   860bc:	54000d61 	b.ne	86268 <CEcoVFB1_AF252188_QueryInterface+0x500>  // b.any
   860c0:	f94013a0 	ldr	x0, [x29, #32]
   860c4:	91001800 	add	x0, x0, #0x6
   860c8:	39400001 	ldrb	w1, [x0]
   860cc:	90000440 	adrp	x0, 10e000 <ECO_CGI_1_PIXEL_VALIDITY_FLAG_e>
   860d0:	911e3800 	add	x0, x0, #0x78e
   860d4:	39400000 	ldrb	w0, [x0]
   860d8:	6b00003f 	cmp	w1, w0
   860dc:	54000c61 	b.ne	86268 <CEcoVFB1_AF252188_QueryInterface+0x500>  // b.any
   860e0:	f94013a0 	ldr	x0, [x29, #32]
   860e4:	91001c00 	add	x0, x0, #0x7
   860e8:	39400001 	ldrb	w1, [x0]
   860ec:	90000440 	adrp	x0, 10e000 <ECO_CGI_1_PIXEL_VALIDITY_FLAG_e>
   860f0:	911e3c00 	add	x0, x0, #0x78f
   860f4:	39400000 	ldrb	w0, [x0]
   860f8:	6b00003f 	cmp	w1, w0
   860fc:	54000b61 	b.ne	86268 <CEcoVFB1_AF252188_QueryInterface+0x500>  // b.any
   86100:	f94013a0 	ldr	x0, [x29, #32]
   86104:	91002000 	add	x0, x0, #0x8
   86108:	39400001 	ldrb	w1, [x0]
   8610c:	90000440 	adrp	x0, 10e000 <ECO_CGI_1_PIXEL_VALIDITY_FLAG_e>
   86110:	911e4000 	add	x0, x0, #0x790
   86114:	39400000 	ldrb	w0, [x0]
   86118:	6b00003f 	cmp	w1, w0
   8611c:	54000a61 	b.ne	86268 <CEcoVFB1_AF252188_QueryInterface+0x500>  // b.any
   86120:	f94013a0 	ldr	x0, [x29, #32]
   86124:	91002400 	add	x0, x0, #0x9
   86128:	39400001 	ldrb	w1, [x0]
   8612c:	90000440 	adrp	x0, 10e000 <ECO_CGI_1_PIXEL_VALIDITY_FLAG_e>
   86130:	911e4400 	add	x0, x0, #0x791
   86134:	39400000 	ldrb	w0, [x0]
   86138:	6b00003f 	cmp	w1, w0
   8613c:	54000961 	b.ne	86268 <CEcoVFB1_AF252188_QueryInterface+0x500>  // b.any
   86140:	f94013a0 	ldr	x0, [x29, #32]
   86144:	91002800 	add	x0, x0, #0xa
   86148:	39400001 	ldrb	w1, [x0]
   8614c:	90000440 	adrp	x0, 10e000 <ECO_CGI_1_PIXEL_VALIDITY_FLAG_e>
   86150:	911e4800 	add	x0, x0, #0x792
   86154:	39400000 	ldrb	w0, [x0]
   86158:	6b00003f 	cmp	w1, w0
   8615c:	54000861 	b.ne	86268 <CEcoVFB1_AF252188_QueryInterface+0x500>  // b.any
   86160:	f94013a0 	ldr	x0, [x29, #32]
   86164:	91002c00 	add	x0, x0, #0xb
   86168:	39400001 	ldrb	w1, [x0]
   8616c:	90000440 	adrp	x0, 10e000 <ECO_CGI_1_PIXEL_VALIDITY_FLAG_e>
   86170:	911e4c00 	add	x0, x0, #0x793
   86174:	39400000 	ldrb	w0, [x0]
   86178:	6b00003f 	cmp	w1, w0
   8617c:	54000761 	b.ne	86268 <CEcoVFB1_AF252188_QueryInterface+0x500>  // b.any
   86180:	f94013a0 	ldr	x0, [x29, #32]
   86184:	91003000 	add	x0, x0, #0xc
   86188:	39400001 	ldrb	w1, [x0]
   8618c:	90000440 	adrp	x0, 10e000 <ECO_CGI_1_PIXEL_VALIDITY_FLAG_e>
   86190:	911e5000 	add	x0, x0, #0x794
   86194:	39400000 	ldrb	w0, [x0]
   86198:	6b00003f 	cmp	w1, w0
   8619c:	54000661 	b.ne	86268 <CEcoVFB1_AF252188_QueryInterface+0x500>  // b.any
   861a0:	f94013a0 	ldr	x0, [x29, #32]
   861a4:	91003400 	add	x0, x0, #0xd
   861a8:	39400001 	ldrb	w1, [x0]
   861ac:	90000440 	adrp	x0, 10e000 <ECO_CGI_1_PIXEL_VALIDITY_FLAG_e>
   861b0:	911e5400 	add	x0, x0, #0x795
   861b4:	39400000 	ldrb	w0, [x0]
   861b8:	6b00003f 	cmp	w1, w0
   861bc:	54000561 	b.ne	86268 <CEcoVFB1_AF252188_QueryInterface+0x500>  // b.any
   861c0:	f94013a0 	ldr	x0, [x29, #32]
   861c4:	91003800 	add	x0, x0, #0xe
   861c8:	39400001 	ldrb	w1, [x0]
   861cc:	90000440 	adrp	x0, 10e000 <ECO_CGI_1_PIXEL_VALIDITY_FLAG_e>
   861d0:	911e5800 	add	x0, x0, #0x796
   861d4:	39400000 	ldrb	w0, [x0]
   861d8:	6b00003f 	cmp	w1, w0
   861dc:	54000461 	b.ne	86268 <CEcoVFB1_AF252188_QueryInterface+0x500>  // b.any
   861e0:	f94013a0 	ldr	x0, [x29, #32]
   861e4:	91003c00 	add	x0, x0, #0xf
   861e8:	39400001 	ldrb	w1, [x0]
   861ec:	90000440 	adrp	x0, 10e000 <ECO_CGI_1_PIXEL_VALIDITY_FLAG_e>
   861f0:	911e5c00 	add	x0, x0, #0x797
   861f4:	39400000 	ldrb	w0, [x0]
   861f8:	6b00003f 	cmp	w1, w0
   861fc:	54000361 	b.ne	86268 <CEcoVFB1_AF252188_QueryInterface+0x500>  // b.any
   86200:	f94013a0 	ldr	x0, [x29, #32]
   86204:	91004000 	add	x0, x0, #0x10
   86208:	39400001 	ldrb	w1, [x0]
   8620c:	90000440 	adrp	x0, 10e000 <ECO_CGI_1_PIXEL_VALIDITY_FLAG_e>
   86210:	911e6000 	add	x0, x0, #0x798
   86214:	39400000 	ldrb	w0, [x0]
   86218:	6b00003f 	cmp	w1, w0
   8621c:	54000261 	b.ne	86268 <CEcoVFB1_AF252188_QueryInterface+0x500>  // b.any
   86220:	f94013a0 	ldr	x0, [x29, #32]
   86224:	91004400 	add	x0, x0, #0x11
   86228:	39400001 	ldrb	w1, [x0]
   8622c:	90000440 	adrp	x0, 10e000 <ECO_CGI_1_PIXEL_VALIDITY_FLAG_e>
   86230:	911e6400 	add	x0, x0, #0x799
   86234:	39400000 	ldrb	w0, [x0]
   86238:	6b00003f 	cmp	w1, w0
   8623c:	54000161 	b.ne	86268 <CEcoVFB1_AF252188_QueryInterface+0x500>  // b.any
   86240:	f9401fa0 	ldr	x0, [x29, #56]
   86244:	91002001 	add	x1, x0, #0x8
   86248:	f9400fa0 	ldr	x0, [x29, #24]
   8624c:	f9000001 	str	x1, [x0]
   86250:	f9401fa0 	ldr	x0, [x29, #56]
   86254:	f9400000 	ldr	x0, [x0]
   86258:	f9400401 	ldr	x1, [x0, #8]
   8625c:	f9401fa0 	ldr	x0, [x29, #56]
   86260:	d63f0020 	blr	x1
   86264:	1400009d 	b	864d8 <CEcoVFB1_AF252188_QueryInterface+0x770>
   86268:	f94013a0 	ldr	x0, [x29, #32]
   8626c:	39400001 	ldrb	w1, [x0]
   86270:	90000440 	adrp	x0, 10e000 <ECO_CGI_1_PIXEL_VALIDITY_FLAG_e>
   86274:	911ac000 	add	x0, x0, #0x6b0
   86278:	39400000 	ldrb	w0, [x0]
   8627c:	6b00003f 	cmp	w1, w0
   86280:	54001241 	b.ne	864c8 <CEcoVFB1_AF252188_QueryInterface+0x760>  // b.any
   86284:	f94013a0 	ldr	x0, [x29, #32]
   86288:	91000400 	add	x0, x0, #0x1
   8628c:	39400001 	ldrb	w1, [x0]
   86290:	90000440 	adrp	x0, 10e000 <ECO_CGI_1_PIXEL_VALIDITY_FLAG_e>
   86294:	911ac400 	add	x0, x0, #0x6b1
   86298:	39400000 	ldrb	w0, [x0]
   8629c:	6b00003f 	cmp	w1, w0
   862a0:	54001141 	b.ne	864c8 <CEcoVFB1_AF252188_QueryInterface+0x760>  // b.any
   862a4:	f94013a0 	ldr	x0, [x29, #32]
   862a8:	91000800 	add	x0, x0, #0x2
   862ac:	39400001 	ldrb	w1, [x0]
   862b0:	90000440 	adrp	x0, 10e000 <ECO_CGI_1_PIXEL_VALIDITY_FLAG_e>
   862b4:	911ac800 	add	x0, x0, #0x6b2
   862b8:	39400000 	ldrb	w0, [x0]
   862bc:	6b00003f 	cmp	w1, w0
   862c0:	54001041 	b.ne	864c8 <CEcoVFB1_AF252188_QueryInterface+0x760>  // b.any
   862c4:	f94013a0 	ldr	x0, [x29, #32]
   862c8:	91000c00 	add	x0, x0, #0x3
   862cc:	39400001 	ldrb	w1, [x0]
   862d0:	90000440 	adrp	x0, 10e000 <ECO_CGI_1_PIXEL_VALIDITY_FLAG_e>
   862d4:	911acc00 	add	x0, x0, #0x6b3
   862d8:	39400000 	ldrb	w0, [x0]
   862dc:	6b00003f 	cmp	w1, w0
   862e0:	54000f41 	b.ne	864c8 <CEcoVFB1_AF252188_QueryInterface+0x760>  // b.any
   862e4:	f94013a0 	ldr	x0, [x29, #32]
   862e8:	91001000 	add	x0, x0, #0x4
   862ec:	39400001 	ldrb	w1, [x0]
   862f0:	90000440 	adrp	x0, 10e000 <ECO_CGI_1_PIXEL_VALIDITY_FLAG_e>
   862f4:	911ad000 	add	x0, x0, #0x6b4
   862f8:	39400000 	ldrb	w0, [x0]
   862fc:	6b00003f 	cmp	w1, w0
   86300:	54000e41 	b.ne	864c8 <CEcoVFB1_AF252188_QueryInterface+0x760>  // b.any
   86304:	f94013a0 	ldr	x0, [x29, #32]
   86308:	91001400 	add	x0, x0, #0x5
   8630c:	39400001 	ldrb	w1, [x0]
   86310:	90000440 	adrp	x0, 10e000 <ECO_CGI_1_PIXEL_VALIDITY_FLAG_e>
   86314:	911ad400 	add	x0, x0, #0x6b5
   86318:	39400000 	ldrb	w0, [x0]
   8631c:	6b00003f 	cmp	w1, w0
   86320:	54000d41 	b.ne	864c8 <CEcoVFB1_AF252188_QueryInterface+0x760>  // b.any
   86324:	f94013a0 	ldr	x0, [x29, #32]
   86328:	91001800 	add	x0, x0, #0x6
   8632c:	39400001 	ldrb	w1, [x0]
   86330:	90000440 	adrp	x0, 10e000 <ECO_CGI_1_PIXEL_VALIDITY_FLAG_e>
   86334:	911ad800 	add	x0, x0, #0x6b6
   86338:	39400000 	ldrb	w0, [x0]
   8633c:	6b00003f 	cmp	w1, w0
   86340:	54000c41 	b.ne	864c8 <CEcoVFB1_AF252188_QueryInterface+0x760>  // b.any
   86344:	f94013a0 	ldr	x0, [x29, #32]
   86348:	91001c00 	add	x0, x0, #0x7
   8634c:	39400001 	ldrb	w1, [x0]
   86350:	90000440 	adrp	x0, 10e000 <ECO_CGI_1_PIXEL_VALIDITY_FLAG_e>
   86354:	911adc00 	add	x0, x0, #0x6b7
   86358:	39400000 	ldrb	w0, [x0]
   8635c:	6b00003f 	cmp	w1, w0
   86360:	54000b41 	b.ne	864c8 <CEcoVFB1_AF252188_QueryInterface+0x760>  // b.any
   86364:	f94013a0 	ldr	x0, [x29, #32]
   86368:	91002000 	add	x0, x0, #0x8
   8636c:	39400001 	ldrb	w1, [x0]
   86370:	90000440 	adrp	x0, 10e000 <ECO_CGI_1_PIXEL_VALIDITY_FLAG_e>
   86374:	911ae000 	add	x0, x0, #0x6b8
   86378:	39400000 	ldrb	w0, [x0]
   8637c:	6b00003f 	cmp	w1, w0
   86380:	54000a41 	b.ne	864c8 <CEcoVFB1_AF252188_QueryInterface+0x760>  // b.any
   86384:	f94013a0 	ldr	x0, [x29, #32]
   86388:	91002400 	add	x0, x0, #0x9
   8638c:	39400001 	ldrb	w1, [x0]
   86390:	90000440 	adrp	x0, 10e000 <ECO_CGI_1_PIXEL_VALIDITY_FLAG_e>
   86394:	911ae400 	add	x0, x0, #0x6b9
   86398:	39400000 	ldrb	w0, [x0]
   8639c:	6b00003f 	cmp	w1, w0
   863a0:	54000941 	b.ne	864c8 <CEcoVFB1_AF252188_QueryInterface+0x760>  // b.any
   863a4:	f94013a0 	ldr	x0, [x29, #32]
   863a8:	91002800 	add	x0, x0, #0xa
   863ac:	39400001 	ldrb	w1, [x0]
   863b0:	90000440 	adrp	x0, 10e000 <ECO_CGI_1_PIXEL_VALIDITY_FLAG_e>
   863b4:	911ae800 	add	x0, x0, #0x6ba
   863b8:	39400000 	ldrb	w0, [x0]
   863bc:	6b00003f 	cmp	w1, w0
   863c0:	54000841 	b.ne	864c8 <CEcoVFB1_AF252188_QueryInterface+0x760>  // b.any
   863c4:	f94013a0 	ldr	x0, [x29, #32]
   863c8:	91002c00 	add	x0, x0, #0xb
   863cc:	39400001 	ldrb	w1, [x0]
   863d0:	90000440 	adrp	x0, 10e000 <ECO_CGI_1_PIXEL_VALIDITY_FLAG_e>
   863d4:	911aec00 	add	x0, x0, #0x6bb
   863d8:	39400000 	ldrb	w0, [x0]
   863dc:	6b00003f 	cmp	w1, w0
   863e0:	54000741 	b.ne	864c8 <CEcoVFB1_AF252188_QueryInterface+0x760>  // b.any
   863e4:	f94013a0 	ldr	x0, [x29, #32]
   863e8:	91003000 	add	x0, x0, #0xc
   863ec:	39400001 	ldrb	w1, [x0]
   863f0:	90000440 	adrp	x0, 10e000 <ECO_CGI_1_PIXEL_VALIDITY_FLAG_e>
   863f4:	911af000 	add	x0, x0, #0x6bc
   863f8:	39400000 	ldrb	w0, [x0]
   863fc:	6b00003f 	cmp	w1, w0
   86400:	54000641 	b.ne	864c8 <CEcoVFB1_AF252188_QueryInterface+0x760>  // b.any
   86404:	f94013a0 	ldr	x0, [x29, #32]
   86408:	91003400 	add	x0, x0, #0xd
   8640c:	39400001 	ldrb	w1, [x0]
   86410:	90000440 	adrp	x0, 10e000 <ECO_CGI_1_PIXEL_VALIDITY_FLAG_e>
   86414:	911af400 	add	x0, x0, #0x6bd
   86418:	39400000 	ldrb	w0, [x0]
   8641c:	6b00003f 	cmp	w1, w0
   86420:	54000541 	b.ne	864c8 <CEcoVFB1_AF252188_QueryInterface+0x760>  // b.any
   86424:	f94013a0 	ldr	x0, [x29, #32]
   86428:	91003800 	add	x0, x0, #0xe
   8642c:	39400001 	ldrb	w1, [x0]
   86430:	90000440 	adrp	x0, 10e000 <ECO_CGI_1_PIXEL_VALIDITY_FLAG_e>
   86434:	911af800 	add	x0, x0, #0x6be
   86438:	39400000 	ldrb	w0, [x0]
   8643c:	6b00003f 	cmp	w1, w0
   86440:	54000441 	b.ne	864c8 <CEcoVFB1_AF252188_QueryInterface+0x760>  // b.any
   86444:	f94013a0 	ldr	x0, [x29, #32]
   86448:	91003c00 	add	x0, x0, #0xf
   8644c:	39400001 	ldrb	w1, [x0]
   86450:	90000440 	adrp	x0, 10e000 <ECO_CGI_1_PIXEL_VALIDITY_FLAG_e>
   86454:	911afc00 	add	x0, x0, #0x6bf
   86458:	39400000 	ldrb	w0, [x0]
   8645c:	6b00003f 	cmp	w1, w0
   86460:	54000341 	b.ne	864c8 <CEcoVFB1_AF252188_QueryInterface+0x760>  // b.any
   86464:	f94013a0 	ldr	x0, [x29, #32]
   86468:	91004000 	add	x0, x0, #0x10
   8646c:	39400001 	ldrb	w1, [x0]
   86470:	90000440 	adrp	x0, 10e000 <ECO_CGI_1_PIXEL_VALIDITY_FLAG_e>
   86474:	911b0000 	add	x0, x0, #0x6c0
   86478:	39400000 	ldrb	w0, [x0]
   8647c:	6b00003f 	cmp	w1, w0
   86480:	54000241 	b.ne	864c8 <CEcoVFB1_AF252188_QueryInterface+0x760>  // b.any
   86484:	f94013a0 	ldr	x0, [x29, #32]
   86488:	91004400 	add	x0, x0, #0x11
   8648c:	39400001 	ldrb	w1, [x0]
   86490:	90000440 	adrp	x0, 10e000 <ECO_CGI_1_PIXEL_VALIDITY_FLAG_e>
   86494:	911b0400 	add	x0, x0, #0x6c1
   86498:	39400000 	ldrb	w0, [x0]
   8649c:	6b00003f 	cmp	w1, w0
   864a0:	54000141 	b.ne	864c8 <CEcoVFB1_AF252188_QueryInterface+0x760>  // b.any
   864a4:	f9401fa1 	ldr	x1, [x29, #56]
   864a8:	f9400fa0 	ldr	x0, [x29, #24]
   864ac:	f9000001 	str	x1, [x0]
   864b0:	f9401fa0 	ldr	x0, [x29, #56]
   864b4:	f9400000 	ldr	x0, [x0]
   864b8:	f9400401 	ldr	x1, [x0, #8]
   864bc:	f9401fa0 	ldr	x0, [x29, #56]
   864c0:	d63f0020 	blr	x1
   864c4:	14000005 	b	864d8 <CEcoVFB1_AF252188_QueryInterface+0x770>
   864c8:	f9400fa0 	ldr	x0, [x29, #24]
   864cc:	f900001f 	str	xzr, [x0]
   864d0:	12800000 	mov	w0, #0xffffffff            	// #-1
   864d4:	14000002 	b	864dc <CEcoVFB1_AF252188_QueryInterface+0x774>
   864d8:	52800000 	mov	w0, #0x0                   	// #0
   864dc:	a8c47bfd 	ldp	x29, x30, [sp], #64
   864e0:	d65f03c0 	ret

00000000000864e4 <CEcoVFB1_AF252188_AddRef>:
   864e4:	d10083ff 	sub	sp, sp, #0x20
   864e8:	f90007e0 	str	x0, [sp, #8]
   864ec:	f94007e0 	ldr	x0, [sp, #8]
   864f0:	f9000fe0 	str	x0, [sp, #24]
   864f4:	f94007e0 	ldr	x0, [sp, #8]
   864f8:	f100001f 	cmp	x0, #0x0
   864fc:	54000061 	b.ne	86508 <CEcoVFB1_AF252188_AddRef+0x24>  // b.any
   86500:	12800000 	mov	w0, #0xffffffff            	// #-1
   86504:	14000008 	b	86524 <CEcoVFB1_AF252188_AddRef+0x40>
   86508:	f9400fe0 	ldr	x0, [sp, #24]
   8650c:	b9401000 	ldr	w0, [x0, #16]
   86510:	11000401 	add	w1, w0, #0x1
   86514:	f9400fe0 	ldr	x0, [sp, #24]
   86518:	b9001001 	str	w1, [x0, #16]
   8651c:	f9400fe0 	ldr	x0, [sp, #24]
   86520:	b9401000 	ldr	w0, [x0, #16]
   86524:	910083ff 	add	sp, sp, #0x20
   86528:	d65f03c0 	ret

000000000008652c <CEcoVFB1_AF252188_Release>:
   8652c:	a9bd7bfd 	stp	x29, x30, [sp, #-48]!
   86530:	910003fd 	mov	x29, sp
   86534:	f9000fa0 	str	x0, [x29, #24]
   86538:	f9400fa0 	ldr	x0, [x29, #24]
   8653c:	f90017a0 	str	x0, [x29, #40]
   86540:	f9400fa0 	ldr	x0, [x29, #24]
   86544:	f100001f 	cmp	x0, #0x0
   86548:	54000061 	b.ne	86554 <CEcoVFB1_AF252188_Release+0x28>  // b.any
   8654c:	12800000 	mov	w0, #0xffffffff            	// #-1
   86550:	14000010 	b	86590 <CEcoVFB1_AF252188_Release+0x64>
   86554:	f94017a0 	ldr	x0, [x29, #40]
   86558:	b9401000 	ldr	w0, [x0, #16]
   8655c:	51000401 	sub	w1, w0, #0x1
   86560:	f94017a0 	ldr	x0, [x29, #40]
   86564:	b9001001 	str	w1, [x0, #16]
   86568:	f94017a0 	ldr	x0, [x29, #40]
   8656c:	b9401000 	ldr	w0, [x0, #16]
   86570:	7100001f 	cmp	w0, #0x0
   86574:	540000a1 	b.ne	86588 <CEcoVFB1_AF252188_Release+0x5c>  // b.any
   86578:	f94017a0 	ldr	x0, [x29, #40]
   8657c:	940005b3 	bl	87c48 <deleteCEcoVFB1_AF252188>
   86580:	52800000 	mov	w0, #0x0                   	// #0
   86584:	14000003 	b	86590 <CEcoVFB1_AF252188_Release+0x64>
   86588:	f94017a0 	ldr	x0, [x29, #40]
   8658c:	b9401000 	ldr	w0, [x0, #16]
   86590:	a8c37bfd 	ldp	x29, x30, [sp], #48
   86594:	d65f03c0 	ret

0000000000086598 <CEcoVFB1_AF252188_set_VideoMode>:
   86598:	d10083ff 	sub	sp, sp, #0x20
   8659c:	f90007e0 	str	x0, [sp, #8]
   865a0:	39001fe1 	strb	w1, [sp, #7]
   865a4:	f94007e0 	ldr	x0, [sp, #8]
   865a8:	f9000fe0 	str	x0, [sp, #24]
   865ac:	f94007e0 	ldr	x0, [sp, #8]
   865b0:	f100001f 	cmp	x0, #0x0
   865b4:	54000061 	b.ne	865c0 <CEcoVFB1_AF252188_set_VideoMode+0x28>  // b.any
   865b8:	12800000 	mov	w0, #0xffffffff            	// #-1
   865bc:	14000002 	b	865c4 <CEcoVFB1_AF252188_set_VideoMode+0x2c>
   865c0:	52800000 	mov	w0, #0x0                   	// #0
   865c4:	910083ff 	add	sp, sp, #0x20
   865c8:	d65f03c0 	ret

00000000000865cc <CEcoVFB1_AF252188_set_CursorShape>:
   865cc:	d100c3ff 	sub	sp, sp, #0x30
   865d0:	f9000fe0 	str	x0, [sp, #24]
   865d4:	f9000be1 	str	x1, [sp, #16]
   865d8:	39003fe2 	strb	w2, [sp, #15]
   865dc:	f9400fe0 	ldr	x0, [sp, #24]
   865e0:	f90017e0 	str	x0, [sp, #40]
   865e4:	f9400fe0 	ldr	x0, [sp, #24]
   865e8:	f100001f 	cmp	x0, #0x0
   865ec:	54000061 	b.ne	865f8 <CEcoVFB1_AF252188_set_CursorShape+0x2c>  // b.any
   865f0:	12800000 	mov	w0, #0xffffffff            	// #-1
   865f4:	14000002 	b	865fc <CEcoVFB1_AF252188_set_CursorShape+0x30>
   865f8:	52800000 	mov	w0, #0x0                   	// #0
   865fc:	9100c3ff 	add	sp, sp, #0x30
   86600:	d65f03c0 	ret

0000000000086604 <CEcoVFB1_AF252188_set_CursorPosition>:
   86604:	d10083ff 	sub	sp, sp, #0x20
   86608:	f90007e0 	str	x0, [sp, #8]
   8660c:	39001fe1 	strb	w1, [sp, #7]
   86610:	79000be2 	strh	w2, [sp, #4]
   86614:	790007e3 	strh	w3, [sp, #2]
   86618:	f94007e0 	ldr	x0, [sp, #8]
   8661c:	f9000fe0 	str	x0, [sp, #24]
   86620:	f94007e0 	ldr	x0, [sp, #8]
   86624:	f100001f 	cmp	x0, #0x0
   86628:	54000061 	b.ne	86634 <CEcoVFB1_AF252188_set_CursorPosition+0x30>  // b.any
   8662c:	12800000 	mov	w0, #0xffffffff            	// #-1
   86630:	14000008 	b	86650 <CEcoVFB1_AF252188_set_CursorPosition+0x4c>
   86634:	79400be1 	ldrh	w1, [sp, #4]
   86638:	f9400fe0 	ldr	x0, [sp, #24]
   8663c:	b9004c01 	str	w1, [x0, #76]
   86640:	794007e1 	ldrh	w1, [sp, #2]
   86644:	f9400fe0 	ldr	x0, [sp, #24]
   86648:	b9005001 	str	w1, [x0, #80]
   8664c:	52800000 	mov	w0, #0x0                   	// #0
   86650:	910083ff 	add	sp, sp, #0x20
   86654:	d65f03c0 	ret

0000000000086658 <CEcoVFB1_AF252188_get_CursorPosition>:
   86658:	d10103ff 	sub	sp, sp, #0x40
   8665c:	f90017e0 	str	x0, [sp, #40]
   86660:	39009fe1 	strb	w1, [sp, #39]
   86664:	f9000fe2 	str	x2, [sp, #24]
   86668:	f9000be3 	str	x3, [sp, #16]
   8666c:	f90007e4 	str	x4, [sp, #8]
   86670:	f90003e5 	str	x5, [sp]
   86674:	f94017e0 	ldr	x0, [sp, #40]
   86678:	f9001fe0 	str	x0, [sp, #56]
   8667c:	f94017e0 	ldr	x0, [sp, #40]
   86680:	f100001f 	cmp	x0, #0x0
   86684:	54000061 	b.ne	86690 <CEcoVFB1_AF252188_get_CursorPosition+0x38>  // b.any
   86688:	12800000 	mov	w0, #0xffffffff            	// #-1
   8668c:	14000002 	b	86694 <CEcoVFB1_AF252188_get_CursorPosition+0x3c>
   86690:	52800000 	mov	w0, #0x0                   	// #0
   86694:	910103ff 	add	sp, sp, #0x40
   86698:	d65f03c0 	ret

000000000008669c <CEcoVFB1_AF252188_SelectActiveVideoPage>:
   8669c:	d10083ff 	sub	sp, sp, #0x20
   866a0:	f90007e0 	str	x0, [sp, #8]
   866a4:	39001fe1 	strb	w1, [sp, #7]
   866a8:	f94007e0 	ldr	x0, [sp, #8]
   866ac:	f9000fe0 	str	x0, [sp, #24]
   866b0:	f94007e0 	ldr	x0, [sp, #8]
   866b4:	f100001f 	cmp	x0, #0x0
   866b8:	54000061 	b.ne	866c4 <CEcoVFB1_AF252188_SelectActiveVideoPage+0x28>  // b.any
   866bc:	12800000 	mov	w0, #0xffffffff            	// #-1
   866c0:	14000002 	b	866c8 <CEcoVFB1_AF252188_SelectActiveVideoPage+0x2c>
   866c4:	52800000 	mov	w0, #0x0                   	// #0
   866c8:	910083ff 	add	sp, sp, #0x20
   866cc:	d65f03c0 	ret

00000000000866d0 <CEcoVFB1_AF252188_ScrollUpWindow>:
   866d0:	d10083ff 	sub	sp, sp, #0x20
   866d4:	f90007e0 	str	x0, [sp, #8]
   866d8:	39001fe1 	strb	w1, [sp, #7]
   866dc:	39001be2 	strb	w2, [sp, #6]
   866e0:	390017e3 	strb	w3, [sp, #5]
   866e4:	390013e4 	strb	w4, [sp, #4]
   866e8:	39000fe5 	strb	w5, [sp, #3]
   866ec:	39000be6 	strb	w6, [sp, #2]
   866f0:	f94007e0 	ldr	x0, [sp, #8]
   866f4:	f9000fe0 	str	x0, [sp, #24]
   866f8:	f94007e0 	ldr	x0, [sp, #8]
   866fc:	f100001f 	cmp	x0, #0x0
   86700:	54000061 	b.ne	8670c <CEcoVFB1_AF252188_ScrollUpWindow+0x3c>  // b.any
   86704:	12800000 	mov	w0, #0xffffffff            	// #-1
   86708:	14000002 	b	86710 <CEcoVFB1_AF252188_ScrollUpWindow+0x40>
   8670c:	52800000 	mov	w0, #0x0                   	// #0
   86710:	910083ff 	add	sp, sp, #0x20
   86714:	d65f03c0 	ret

0000000000086718 <CEcoVFB1_AF252188_ScrollDownWindow>:
   86718:	d10083ff 	sub	sp, sp, #0x20
   8671c:	f90007e0 	str	x0, [sp, #8]
   86720:	39001fe1 	strb	w1, [sp, #7]
   86724:	39001be2 	strb	w2, [sp, #6]
   86728:	390017e3 	strb	w3, [sp, #5]
   8672c:	390013e4 	strb	w4, [sp, #4]
   86730:	39000fe5 	strb	w5, [sp, #3]
   86734:	39000be6 	strb	w6, [sp, #2]
   86738:	f94007e0 	ldr	x0, [sp, #8]
   8673c:	f9000fe0 	str	x0, [sp, #24]
   86740:	f94007e0 	ldr	x0, [sp, #8]
   86744:	f100001f 	cmp	x0, #0x0
   86748:	54000061 	b.ne	86754 <CEcoVFB1_AF252188_ScrollDownWindow+0x3c>  // b.any
   8674c:	12800000 	mov	w0, #0xffffffff            	// #-1
   86750:	14000002 	b	86758 <CEcoVFB1_AF252188_ScrollDownWindow+0x40>
   86754:	52800000 	mov	w0, #0x0                   	// #0
   86758:	910083ff 	add	sp, sp, #0x20
   8675c:	d65f03c0 	ret

0000000000086760 <CEcoVFB1_AF252188_ReadCharacterAtCursorPosition>:
   86760:	d100c3ff 	sub	sp, sp, #0x30
   86764:	f9000fe0 	str	x0, [sp, #24]
   86768:	39005fe1 	strb	w1, [sp, #23]
   8676c:	f90007e2 	str	x2, [sp, #8]
   86770:	f90003e3 	str	x3, [sp]
   86774:	f9400fe0 	ldr	x0, [sp, #24]
   86778:	f90017e0 	str	x0, [sp, #40]
   8677c:	f9400fe0 	ldr	x0, [sp, #24]
   86780:	f100001f 	cmp	x0, #0x0
   86784:	54000061 	b.ne	86790 <CEcoVFB1_AF252188_ReadCharacterAtCursorPosition+0x30>  // b.any
   86788:	12800000 	mov	w0, #0xffffffff            	// #-1
   8678c:	14000002 	b	86794 <CEcoVFB1_AF252188_ReadCharacterAtCursorPosition+0x34>
   86790:	52800000 	mov	w0, #0x0                   	// #0
   86794:	9100c3ff 	add	sp, sp, #0x30
   86798:	d65f03c0 	ret

000000000008679c <CEcoVFB1_AF252188_WriteCharacterAtCursorPosition>:
   8679c:	d10103ff 	sub	sp, sp, #0x40
   867a0:	f90007e0 	str	x0, [sp, #8]
   867a4:	39001fe1 	strb	w1, [sp, #7]
   867a8:	39001be2 	strb	w2, [sp, #6]
   867ac:	390017e3 	strb	w3, [sp, #5]
   867b0:	390013e4 	strb	w4, [sp, #4]
   867b4:	f94007e0 	ldr	x0, [sp, #8]
   867b8:	f90013e0 	str	x0, [sp, #32]
   867bc:	f9001fff 	str	xzr, [sp, #56]
   867c0:	b90037ff 	str	wzr, [sp, #52]
   867c4:	b90033ff 	str	wzr, [sp, #48]
   867c8:	79005fff 	strh	wzr, [sp, #46]
   867cc:	79005bff 	strh	wzr, [sp, #44]
   867d0:	79405fe0 	ldrh	w0, [sp, #46]
   867d4:	79003fe0 	strh	w0, [sp, #30]
   867d8:	39401be1 	ldrb	w1, [sp, #6]
   867dc:	b0000040 	adrp	x0, 8f000 <g_x939B1DCDB6404F7D9C072291AF252188Factory+0xa0>
   867e0:	91006000 	add	x0, x0, #0x18
   867e4:	93407c21 	sxtw	x1, w1
   867e8:	78617800 	ldrh	w0, [x0, x1, lsl #1]
   867ec:	79003be0 	strh	w0, [sp, #28]
   867f0:	790037ff 	strh	wzr, [sp, #26]
   867f4:	f94007e0 	ldr	x0, [sp, #8]
   867f8:	f100001f 	cmp	x0, #0x0
   867fc:	54000061 	b.ne	86808 <CEcoVFB1_AF252188_WriteCharacterAtCursorPosition+0x6c>  // b.any
   86800:	12800000 	mov	w0, #0xffffffff            	// #-1
   86804:	1400004d 	b	86938 <CEcoVFB1_AF252188_WriteCharacterAtCursorPosition+0x19c>
   86808:	f94013e0 	ldr	x0, [sp, #32]
   8680c:	f9401801 	ldr	x1, [x0, #48]
   86810:	f94013e0 	ldr	x0, [sp, #32]
   86814:	b9405000 	ldr	w0, [x0, #80]
   86818:	2a0003e2 	mov	w2, w0
   8681c:	f94013e0 	ldr	x0, [sp, #32]
   86820:	b9404400 	ldr	w0, [x0, #68]
   86824:	1b007c40 	mul	w0, w2, w0
   86828:	2a0003e2 	mov	w2, w0
   8682c:	f94013e0 	ldr	x0, [sp, #32]
   86830:	b9404c00 	ldr	w0, [x0, #76]
   86834:	93407c00 	sxtw	x0, w0
   86838:	8b000040 	add	x0, x2, x0
   8683c:	d37ef400 	lsl	x0, x0, #2
   86840:	8b000020 	add	x0, x1, x0
   86844:	f9001fe0 	str	x0, [sp, #56]
   86848:	b90037ff 	str	wzr, [sp, #52]
   8684c:	14000037 	b	86928 <CEcoVFB1_AF252188_WriteCharacterAtCursorPosition+0x18c>
   86850:	394017e0 	ldrb	w0, [sp, #5]
   86854:	531e7400 	lsl	w0, w0, #2
   86858:	2a0003e1 	mov	w1, w0
   8685c:	b94037e0 	ldr	w0, [sp, #52]
   86860:	0b000021 	add	w1, w1, w0
   86864:	90000440 	adrp	x0, 10e000 <ECO_CGI_1_PIXEL_VALIDITY_FLAG_e>
   86868:	9121e000 	add	x0, x0, #0x878
   8686c:	2a0103e1 	mov	w1, w1
   86870:	b8617800 	ldr	w0, [x0, x1, lsl #2]
   86874:	b90033e0 	str	w0, [sp, #48]
   86878:	79005fff 	strh	wzr, [sp, #46]
   8687c:	14000025 	b	86910 <CEcoVFB1_AF252188_WriteCharacterAtCursorPosition+0x174>
   86880:	794037e0 	ldrh	w0, [sp, #26]
   86884:	79005be0 	strh	w0, [sp, #44]
   86888:	79405fe0 	ldrh	w0, [sp, #46]
   8688c:	12000800 	and	w0, w0, #0x7
   86890:	79003fe0 	strh	w0, [sp, #30]
   86894:	b94033e0 	ldr	w0, [sp, #48]
   86898:	7100001f 	cmp	w0, #0x0
   8689c:	5400006a 	b.ge	868a8 <CEcoVFB1_AF252188_WriteCharacterAtCursorPosition+0x10c>  // b.tcont
   868a0:	79403be0 	ldrh	w0, [sp, #28]
   868a4:	79005be0 	strh	w0, [sp, #44]
   868a8:	79403fe0 	ldrh	w0, [sp, #30]
   868ac:	8b000000 	add	x0, x0, x0
   868b0:	aa0003e1 	mov	x1, x0
   868b4:	f9401fe0 	ldr	x0, [sp, #56]
   868b8:	8b010000 	add	x0, x0, x1
   868bc:	79405be1 	ldrh	w1, [sp, #44]
   868c0:	79000001 	strh	w1, [x0]
   868c4:	d5033f9f 	dsb	sy
   868c8:	d5033fdf 	isb
   868cc:	b94033e0 	ldr	w0, [sp, #48]
   868d0:	0b000000 	add	w0, w0, w0
   868d4:	b90033e0 	str	w0, [sp, #48]
   868d8:	79403fe0 	ldrh	w0, [sp, #30]
   868dc:	71001c1f 	cmp	w0, #0x7
   868e0:	54000121 	b.ne	86904 <CEcoVFB1_AF252188_WriteCharacterAtCursorPosition+0x168>  // b.any
   868e4:	f94013e0 	ldr	x0, [sp, #32]
   868e8:	b9404400 	ldr	w0, [x0, #68]
   868ec:	2a0003e0 	mov	w0, w0
   868f0:	8b000000 	add	x0, x0, x0
   868f4:	aa0003e1 	mov	x1, x0
   868f8:	f9401fe0 	ldr	x0, [sp, #56]
   868fc:	8b010000 	add	x0, x0, x1
   86900:	f9001fe0 	str	x0, [sp, #56]
   86904:	79405fe0 	ldrh	w0, [sp, #46]
   86908:	11000400 	add	w0, w0, #0x1
   8690c:	79005fe0 	strh	w0, [sp, #46]
   86910:	79405fe0 	ldrh	w0, [sp, #46]
   86914:	71007c1f 	cmp	w0, #0x1f
   86918:	54fffb49 	b.ls	86880 <CEcoVFB1_AF252188_WriteCharacterAtCursorPosition+0xe4>  // b.plast
   8691c:	b94037e0 	ldr	w0, [sp, #52]
   86920:	11000400 	add	w0, w0, #0x1
   86924:	b90037e0 	str	w0, [sp, #52]
   86928:	b94037e0 	ldr	w0, [sp, #52]
   8692c:	71000c1f 	cmp	w0, #0x3
   86930:	54fff909 	b.ls	86850 <CEcoVFB1_AF252188_WriteCharacterAtCursorPosition+0xb4>  // b.plast
   86934:	52800000 	mov	w0, #0x0                   	// #0
   86938:	910103ff 	add	sp, sp, #0x40
   8693c:	d65f03c0 	ret

0000000000086940 <CEcoVFB1_AF252188_set_ColorPixel>:
   86940:	d100c3ff 	sub	sp, sp, #0x30
   86944:	f90007e0 	str	x0, [sp, #8]
   86948:	39001fe1 	strb	w1, [sp, #7]
   8694c:	79000be2 	strh	w2, [sp, #4]
   86950:	790007e3 	strh	w3, [sp, #2]
   86954:	f94007e0 	ldr	x0, [sp, #8]
   86958:	f90017e0 	str	x0, [sp, #40]
   8695c:	f90013ff 	str	xzr, [sp, #32]
   86960:	79003fff 	strh	wzr, [sp, #30]
   86964:	79003bff 	strh	wzr, [sp, #28]
   86968:	790037ff 	strh	wzr, [sp, #26]
   8696c:	f94007e0 	ldr	x0, [sp, #8]
   86970:	f100001f 	cmp	x0, #0x0
   86974:	54000061 	b.ne	86980 <CEcoVFB1_AF252188_set_ColorPixel+0x40>  // b.any
   86978:	12800000 	mov	w0, #0xffffffff            	// #-1
   8697c:	14000028 	b	86a1c <CEcoVFB1_AF252188_set_ColorPixel+0xdc>
   86980:	39401fe0 	ldrb	w0, [sp, #7]
   86984:	12003c00 	and	w0, w0, #0xffff
   86988:	2a0003e1 	mov	w1, w0
   8698c:	2a0103e0 	mov	w0, w1
   86990:	53181c00 	ubfiz	w0, w0, #8, #8
   86994:	0b010000 	add	w0, w0, w1
   86998:	79003fe0 	strh	w0, [sp, #30]
   8699c:	794007e0 	ldrh	w0, [sp, #2]
   869a0:	12000000 	and	w0, w0, #0x1
   869a4:	790037e0 	strh	w0, [sp, #26]
   869a8:	f94017e0 	ldr	x0, [sp, #40]
   869ac:	f9401801 	ldr	x1, [x0, #48]
   869b0:	794007e2 	ldrh	w2, [sp, #2]
   869b4:	f94017e0 	ldr	x0, [sp, #40]
   869b8:	b9404400 	ldr	w0, [x0, #68]
   869bc:	1b007c40 	mul	w0, w2, w0
   869c0:	53017c00 	lsr	w0, w0, #1
   869c4:	2a0003e2 	mov	w2, w0
   869c8:	79400be0 	ldrh	w0, [sp, #4]
   869cc:	53017c00 	lsr	w0, w0, #1
   869d0:	12003c00 	and	w0, w0, #0xffff
   869d4:	92403c00 	and	x0, x0, #0xffff
   869d8:	8b000040 	add	x0, x2, x0
   869dc:	d37ef400 	lsl	x0, x0, #2
   869e0:	8b000020 	add	x0, x1, x0
   869e4:	f90013e0 	str	x0, [sp, #32]
   869e8:	79400be0 	ldrh	w0, [sp, #4]
   869ec:	12000000 	and	w0, w0, #0x1
   869f0:	79003be0 	strh	w0, [sp, #28]
   869f4:	79403be0 	ldrh	w0, [sp, #28]
   869f8:	8b000000 	add	x0, x0, x0
   869fc:	aa0003e1 	mov	x1, x0
   86a00:	f94013e0 	ldr	x0, [sp, #32]
   86a04:	8b010000 	add	x0, x0, x1
   86a08:	79403fe1 	ldrh	w1, [sp, #30]
   86a0c:	79000001 	strh	w1, [x0]
   86a10:	d5033f9f 	dsb	sy
   86a14:	d5033fdf 	isb
   86a18:	52800000 	mov	w0, #0x0                   	// #0
   86a1c:	9100c3ff 	add	sp, sp, #0x30
   86a20:	d65f03c0 	ret

0000000000086a24 <CEcoVFB1_AF252188_get_ColorPixel>:
   86a24:	d100c3ff 	sub	sp, sp, #0x30
   86a28:	f9000fe0 	str	x0, [sp, #24]
   86a2c:	f9000be1 	str	x1, [sp, #16]
   86a30:	79001fe2 	strh	w2, [sp, #14]
   86a34:	79001be3 	strh	w3, [sp, #12]
   86a38:	f9400fe0 	ldr	x0, [sp, #24]
   86a3c:	f90017e0 	str	x0, [sp, #40]
   86a40:	f9400fe0 	ldr	x0, [sp, #24]
   86a44:	f100001f 	cmp	x0, #0x0
   86a48:	54000061 	b.ne	86a54 <CEcoVFB1_AF252188_get_ColorPixel+0x30>  // b.any
   86a4c:	12800000 	mov	w0, #0xffffffff            	// #-1
   86a50:	14000002 	b	86a58 <CEcoVFB1_AF252188_get_ColorPixel+0x34>
   86a54:	52800000 	mov	w0, #0x0                   	// #0
   86a58:	9100c3ff 	add	sp, sp, #0x30
   86a5c:	d65f03c0 	ret

0000000000086a60 <CEcoVFB1_AF252188_TeletypeOutput>:
   86a60:	d10083ff 	sub	sp, sp, #0x20
   86a64:	f90007e0 	str	x0, [sp, #8]
   86a68:	39001fe1 	strb	w1, [sp, #7]
   86a6c:	f94007e0 	ldr	x0, [sp, #8]
   86a70:	f9000fe0 	str	x0, [sp, #24]
   86a74:	f94007e0 	ldr	x0, [sp, #8]
   86a78:	f100001f 	cmp	x0, #0x0
   86a7c:	54000061 	b.ne	86a88 <CEcoVFB1_AF252188_TeletypeOutput+0x28>  // b.any
   86a80:	12800000 	mov	w0, #0xffffffff            	// #-1
   86a84:	14000002 	b	86a8c <CEcoVFB1_AF252188_TeletypeOutput+0x2c>
   86a88:	52800000 	mov	w0, #0x0                   	// #0
   86a8c:	910083ff 	add	sp, sp, #0x20
   86a90:	d65f03c0 	ret

0000000000086a94 <CEcoVFB1_AF252188_WriteString>:
   86a94:	a9bc7bfd 	stp	x29, x30, [sp, #-64]!
   86a98:	910003fd 	mov	x29, sp
   86a9c:	f90017a0 	str	x0, [x29, #40]
   86aa0:	39009fa1 	strb	w1, [x29, #39]
   86aa4:	39009ba2 	strb	w2, [x29, #38]
   86aa8:	390097a3 	strb	w3, [x29, #37]
   86aac:	390093a4 	strb	w4, [x29, #36]
   86ab0:	39008fa5 	strb	w5, [x29, #35]
   86ab4:	f9000fa6 	str	x6, [x29, #24]
   86ab8:	790043a7 	strh	w7, [x29, #32]
   86abc:	f94017a0 	ldr	x0, [x29, #40]
   86ac0:	f9001ba0 	str	x0, [x29, #48]
   86ac4:	b9003fbf 	str	wzr, [x29, #60]
   86ac8:	f94017a0 	ldr	x0, [x29, #40]
   86acc:	f100001f 	cmp	x0, #0x0
   86ad0:	540000e0 	b.eq	86aec <CEcoVFB1_AF252188_WriteString+0x58>  // b.none
   86ad4:	794043a0 	ldrh	w0, [x29, #32]
   86ad8:	7100001f 	cmp	w0, #0x0
   86adc:	54000080 	b.eq	86aec <CEcoVFB1_AF252188_WriteString+0x58>  // b.none
   86ae0:	f9400fa0 	ldr	x0, [x29, #24]
   86ae4:	f100001f 	cmp	x0, #0x0
   86ae8:	54000061 	b.ne	86af4 <CEcoVFB1_AF252188_WriteString+0x60>  // b.any
   86aec:	12800000 	mov	w0, #0xffffffff            	// #-1
   86af0:	14000023 	b	86b7c <CEcoVFB1_AF252188_WriteString+0xe8>
   86af4:	b9003fbf 	str	wzr, [x29, #60]
   86af8:	1400001c 	b	86b68 <CEcoVFB1_AF252188_WriteString+0xd4>
   86afc:	394097a0 	ldrb	w0, [x29, #37]
   86b00:	531e7401 	lsl	w1, w0, #2
   86b04:	f9401ba0 	ldr	x0, [x29, #48]
   86b08:	b9004c01 	str	w1, [x0, #76]
   86b0c:	394093a0 	ldrb	w0, [x29, #36]
   86b10:	531d7001 	lsl	w1, w0, #3
   86b14:	f9401ba0 	ldr	x0, [x29, #48]
   86b18:	b9005001 	str	w1, [x0, #80]
   86b1c:	f94017a0 	ldr	x0, [x29, #40]
   86b20:	f9400000 	ldr	x0, [x0]
   86b24:	f9402c05 	ldr	x5, [x0, #88]
   86b28:	b9803fa0 	ldrsw	x0, [x29, #60]
   86b2c:	f9400fa1 	ldr	x1, [x29, #24]
   86b30:	8b000020 	add	x0, x1, x0
   86b34:	39400000 	ldrb	w0, [x0]
   86b38:	52800024 	mov	w4, #0x1                   	// #1
   86b3c:	2a0003e3 	mov	w3, w0
   86b40:	39408fa2 	ldrb	w2, [x29, #35]
   86b44:	39409ba1 	ldrb	w1, [x29, #38]
   86b48:	f94017a0 	ldr	x0, [x29, #40]
   86b4c:	d63f00a0 	blr	x5
   86b50:	394097a0 	ldrb	w0, [x29, #37]
   86b54:	11000400 	add	w0, w0, #0x1
   86b58:	390097a0 	strb	w0, [x29, #37]
   86b5c:	b9403fa0 	ldr	w0, [x29, #60]
   86b60:	11000400 	add	w0, w0, #0x1
   86b64:	b9003fa0 	str	w0, [x29, #60]
   86b68:	794043a0 	ldrh	w0, [x29, #32]
   86b6c:	b9403fa1 	ldr	w1, [x29, #60]
   86b70:	6b00003f 	cmp	w1, w0
   86b74:	54fffc4b 	b.lt	86afc <CEcoVFB1_AF252188_WriteString+0x68>  // b.tstop
   86b78:	52800000 	mov	w0, #0x0                   	// #0
   86b7c:	a8c47bfd 	ldp	x29, x30, [sp], #64
   86b80:	d65f03c0 	ret

0000000000086b84 <CEcoVFB1_AF252188_get_Width>:
   86b84:	d10083ff 	sub	sp, sp, #0x20
   86b88:	f90007e0 	str	x0, [sp, #8]
   86b8c:	f94007e0 	ldr	x0, [sp, #8]
   86b90:	f9000fe0 	str	x0, [sp, #24]
   86b94:	f94007e0 	ldr	x0, [sp, #8]
   86b98:	f100001f 	cmp	x0, #0x0
   86b9c:	54000061 	b.ne	86ba8 <CEcoVFB1_AF252188_get_Width+0x24>  // b.any
   86ba0:	52800000 	mov	w0, #0x0                   	// #0
   86ba4:	14000003 	b	86bb0 <CEcoVFB1_AF252188_get_Width+0x2c>
   86ba8:	f9400fe0 	ldr	x0, [sp, #24]
   86bac:	b9403800 	ldr	w0, [x0, #56]
   86bb0:	910083ff 	add	sp, sp, #0x20
   86bb4:	d65f03c0 	ret

0000000000086bb8 <CEcoVFB1_AF252188_get_Height>:
   86bb8:	d10083ff 	sub	sp, sp, #0x20
   86bbc:	f90007e0 	str	x0, [sp, #8]
   86bc0:	f94007e0 	ldr	x0, [sp, #8]
   86bc4:	f9000fe0 	str	x0, [sp, #24]
   86bc8:	f94007e0 	ldr	x0, [sp, #8]
   86bcc:	f100001f 	cmp	x0, #0x0
   86bd0:	54000061 	b.ne	86bdc <CEcoVFB1_AF252188_get_Height+0x24>  // b.any
   86bd4:	52800000 	mov	w0, #0x0                   	// #0
   86bd8:	14000003 	b	86be4 <CEcoVFB1_AF252188_get_Height+0x2c>
   86bdc:	f9400fe0 	ldr	x0, [sp, #24]
   86be0:	b9403c00 	ldr	w0, [x0, #60]
   86be4:	910083ff 	add	sp, sp, #0x20
   86be8:	d65f03c0 	ret

0000000000086bec <CEcoVFB1_AF252188_get_Depth>:
   86bec:	d10083ff 	sub	sp, sp, #0x20
   86bf0:	f90007e0 	str	x0, [sp, #8]
   86bf4:	f94007e0 	ldr	x0, [sp, #8]
   86bf8:	f9000fe0 	str	x0, [sp, #24]
   86bfc:	f94007e0 	ldr	x0, [sp, #8]
   86c00:	f100001f 	cmp	x0, #0x0
   86c04:	54000061 	b.ne	86c10 <CEcoVFB1_AF252188_get_Depth+0x24>  // b.any
   86c08:	52800000 	mov	w0, #0x0                   	// #0
   86c0c:	14000003 	b	86c18 <CEcoVFB1_AF252188_get_Depth+0x2c>
   86c10:	f9400fe0 	ldr	x0, [sp, #24]
   86c14:	b9404000 	ldr	w0, [x0, #64]
   86c18:	910083ff 	add	sp, sp, #0x20
   86c1c:	d65f03c0 	ret

0000000000086c20 <CEcoVFB1_AF252188_IEcoCGI1_QueryInterface>:
   86c20:	a9bc7bfd 	stp	x29, x30, [sp, #-64]!
   86c24:	910003fd 	mov	x29, sp
   86c28:	f90017a0 	str	x0, [x29, #40]
   86c2c:	f90013a1 	str	x1, [x29, #32]
   86c30:	f9000fa2 	str	x2, [x29, #24]
   86c34:	f94017a0 	ldr	x0, [x29, #40]
   86c38:	d1002000 	sub	x0, x0, #0x8
   86c3c:	f9001fa0 	str	x0, [x29, #56]
   86c40:	12800000 	mov	w0, #0xffffffff            	// #-1
   86c44:	79006fa0 	strh	w0, [x29, #54]
   86c48:	f94017a0 	ldr	x0, [x29, #40]
   86c4c:	f100001f 	cmp	x0, #0x0
   86c50:	54000080 	b.eq	86c60 <CEcoVFB1_AF252188_IEcoCGI1_QueryInterface+0x40>  // b.none
   86c54:	f9400fa0 	ldr	x0, [x29, #24]
   86c58:	f100001f 	cmp	x0, #0x0
   86c5c:	54000061 	b.ne	86c68 <CEcoVFB1_AF252188_IEcoCGI1_QueryInterface+0x48>  // b.any
   86c60:	79c06fa0 	ldrsh	w0, [x29, #54]
   86c64:	140001cf 	b	873a0 <CEcoVFB1_AF252188_IEcoCGI1_QueryInterface+0x780>
   86c68:	f94013a0 	ldr	x0, [x29, #32]
   86c6c:	39400001 	ldrb	w1, [x0]
   86c70:	90000440 	adrp	x0, 10e000 <ECO_CGI_1_PIXEL_VALIDITY_FLAG_e>
   86c74:	911ca000 	add	x0, x0, #0x728
   86c78:	39400000 	ldrb	w0, [x0]
   86c7c:	6b00003f 	cmp	w1, w0
   86c80:	54001241 	b.ne	86ec8 <CEcoVFB1_AF252188_IEcoCGI1_QueryInterface+0x2a8>  // b.any
   86c84:	f94013a0 	ldr	x0, [x29, #32]
   86c88:	91000400 	add	x0, x0, #0x1
   86c8c:	39400001 	ldrb	w1, [x0]
   86c90:	90000440 	adrp	x0, 10e000 <ECO_CGI_1_PIXEL_VALIDITY_FLAG_e>
   86c94:	911ca400 	add	x0, x0, #0x729
   86c98:	39400000 	ldrb	w0, [x0]
   86c9c:	6b00003f 	cmp	w1, w0
   86ca0:	54001141 	b.ne	86ec8 <CEcoVFB1_AF252188_IEcoCGI1_QueryInterface+0x2a8>  // b.any
   86ca4:	f94013a0 	ldr	x0, [x29, #32]
   86ca8:	91000800 	add	x0, x0, #0x2
   86cac:	39400001 	ldrb	w1, [x0]
   86cb0:	90000440 	adrp	x0, 10e000 <ECO_CGI_1_PIXEL_VALIDITY_FLAG_e>
   86cb4:	911ca800 	add	x0, x0, #0x72a
   86cb8:	39400000 	ldrb	w0, [x0]
   86cbc:	6b00003f 	cmp	w1, w0
   86cc0:	54001041 	b.ne	86ec8 <CEcoVFB1_AF252188_IEcoCGI1_QueryInterface+0x2a8>  // b.any
   86cc4:	f94013a0 	ldr	x0, [x29, #32]
   86cc8:	91000c00 	add	x0, x0, #0x3
   86ccc:	39400001 	ldrb	w1, [x0]
   86cd0:	90000440 	adrp	x0, 10e000 <ECO_CGI_1_PIXEL_VALIDITY_FLAG_e>
   86cd4:	911cac00 	add	x0, x0, #0x72b
   86cd8:	39400000 	ldrb	w0, [x0]
   86cdc:	6b00003f 	cmp	w1, w0
   86ce0:	54000f41 	b.ne	86ec8 <CEcoVFB1_AF252188_IEcoCGI1_QueryInterface+0x2a8>  // b.any
   86ce4:	f94013a0 	ldr	x0, [x29, #32]
   86ce8:	91001000 	add	x0, x0, #0x4
   86cec:	39400001 	ldrb	w1, [x0]
   86cf0:	90000440 	adrp	x0, 10e000 <ECO_CGI_1_PIXEL_VALIDITY_FLAG_e>
   86cf4:	911cb000 	add	x0, x0, #0x72c
   86cf8:	39400000 	ldrb	w0, [x0]
   86cfc:	6b00003f 	cmp	w1, w0
   86d00:	54000e41 	b.ne	86ec8 <CEcoVFB1_AF252188_IEcoCGI1_QueryInterface+0x2a8>  // b.any
   86d04:	f94013a0 	ldr	x0, [x29, #32]
   86d08:	91001400 	add	x0, x0, #0x5
   86d0c:	39400001 	ldrb	w1, [x0]
   86d10:	90000440 	adrp	x0, 10e000 <ECO_CGI_1_PIXEL_VALIDITY_FLAG_e>
   86d14:	911cb400 	add	x0, x0, #0x72d
   86d18:	39400000 	ldrb	w0, [x0]
   86d1c:	6b00003f 	cmp	w1, w0
   86d20:	54000d41 	b.ne	86ec8 <CEcoVFB1_AF252188_IEcoCGI1_QueryInterface+0x2a8>  // b.any
   86d24:	f94013a0 	ldr	x0, [x29, #32]
   86d28:	91001800 	add	x0, x0, #0x6
   86d2c:	39400001 	ldrb	w1, [x0]
   86d30:	90000440 	adrp	x0, 10e000 <ECO_CGI_1_PIXEL_VALIDITY_FLAG_e>
   86d34:	911cb800 	add	x0, x0, #0x72e
   86d38:	39400000 	ldrb	w0, [x0]
   86d3c:	6b00003f 	cmp	w1, w0
   86d40:	54000c41 	b.ne	86ec8 <CEcoVFB1_AF252188_IEcoCGI1_QueryInterface+0x2a8>  // b.any
   86d44:	f94013a0 	ldr	x0, [x29, #32]
   86d48:	91001c00 	add	x0, x0, #0x7
   86d4c:	39400001 	ldrb	w1, [x0]
   86d50:	90000440 	adrp	x0, 10e000 <ECO_CGI_1_PIXEL_VALIDITY_FLAG_e>
   86d54:	911cbc00 	add	x0, x0, #0x72f
   86d58:	39400000 	ldrb	w0, [x0]
   86d5c:	6b00003f 	cmp	w1, w0
   86d60:	54000b41 	b.ne	86ec8 <CEcoVFB1_AF252188_IEcoCGI1_QueryInterface+0x2a8>  // b.any
   86d64:	f94013a0 	ldr	x0, [x29, #32]
   86d68:	91002000 	add	x0, x0, #0x8
   86d6c:	39400001 	ldrb	w1, [x0]
   86d70:	90000440 	adrp	x0, 10e000 <ECO_CGI_1_PIXEL_VALIDITY_FLAG_e>
   86d74:	911cc000 	add	x0, x0, #0x730
   86d78:	39400000 	ldrb	w0, [x0]
   86d7c:	6b00003f 	cmp	w1, w0
   86d80:	54000a41 	b.ne	86ec8 <CEcoVFB1_AF252188_IEcoCGI1_QueryInterface+0x2a8>  // b.any
   86d84:	f94013a0 	ldr	x0, [x29, #32]
   86d88:	91002400 	add	x0, x0, #0x9
   86d8c:	39400001 	ldrb	w1, [x0]
   86d90:	90000440 	adrp	x0, 10e000 <ECO_CGI_1_PIXEL_VALIDITY_FLAG_e>
   86d94:	911cc400 	add	x0, x0, #0x731
   86d98:	39400000 	ldrb	w0, [x0]
   86d9c:	6b00003f 	cmp	w1, w0
   86da0:	54000941 	b.ne	86ec8 <CEcoVFB1_AF252188_IEcoCGI1_QueryInterface+0x2a8>  // b.any
   86da4:	f94013a0 	ldr	x0, [x29, #32]
   86da8:	91002800 	add	x0, x0, #0xa
   86dac:	39400001 	ldrb	w1, [x0]
   86db0:	90000440 	adrp	x0, 10e000 <ECO_CGI_1_PIXEL_VALIDITY_FLAG_e>
   86db4:	911cc800 	add	x0, x0, #0x732
   86db8:	39400000 	ldrb	w0, [x0]
   86dbc:	6b00003f 	cmp	w1, w0
   86dc0:	54000841 	b.ne	86ec8 <CEcoVFB1_AF252188_IEcoCGI1_QueryInterface+0x2a8>  // b.any
   86dc4:	f94013a0 	ldr	x0, [x29, #32]
   86dc8:	91002c00 	add	x0, x0, #0xb
   86dcc:	39400001 	ldrb	w1, [x0]
   86dd0:	90000440 	adrp	x0, 10e000 <ECO_CGI_1_PIXEL_VALIDITY_FLAG_e>
   86dd4:	911ccc00 	add	x0, x0, #0x733
   86dd8:	39400000 	ldrb	w0, [x0]
   86ddc:	6b00003f 	cmp	w1, w0
   86de0:	54000741 	b.ne	86ec8 <CEcoVFB1_AF252188_IEcoCGI1_QueryInterface+0x2a8>  // b.any
   86de4:	f94013a0 	ldr	x0, [x29, #32]
   86de8:	91003000 	add	x0, x0, #0xc
   86dec:	39400001 	ldrb	w1, [x0]
   86df0:	90000440 	adrp	x0, 10e000 <ECO_CGI_1_PIXEL_VALIDITY_FLAG_e>
   86df4:	911cd000 	add	x0, x0, #0x734
   86df8:	39400000 	ldrb	w0, [x0]
   86dfc:	6b00003f 	cmp	w1, w0
   86e00:	54000641 	b.ne	86ec8 <CEcoVFB1_AF252188_IEcoCGI1_QueryInterface+0x2a8>  // b.any
   86e04:	f94013a0 	ldr	x0, [x29, #32]
   86e08:	91003400 	add	x0, x0, #0xd
   86e0c:	39400001 	ldrb	w1, [x0]
   86e10:	90000440 	adrp	x0, 10e000 <ECO_CGI_1_PIXEL_VALIDITY_FLAG_e>
   86e14:	911cd400 	add	x0, x0, #0x735
   86e18:	39400000 	ldrb	w0, [x0]
   86e1c:	6b00003f 	cmp	w1, w0
   86e20:	54000541 	b.ne	86ec8 <CEcoVFB1_AF252188_IEcoCGI1_QueryInterface+0x2a8>  // b.any
   86e24:	f94013a0 	ldr	x0, [x29, #32]
   86e28:	91003800 	add	x0, x0, #0xe
   86e2c:	39400001 	ldrb	w1, [x0]
   86e30:	90000440 	adrp	x0, 10e000 <ECO_CGI_1_PIXEL_VALIDITY_FLAG_e>
   86e34:	911cd800 	add	x0, x0, #0x736
   86e38:	39400000 	ldrb	w0, [x0]
   86e3c:	6b00003f 	cmp	w1, w0
   86e40:	54000441 	b.ne	86ec8 <CEcoVFB1_AF252188_IEcoCGI1_QueryInterface+0x2a8>  // b.any
   86e44:	f94013a0 	ldr	x0, [x29, #32]
   86e48:	91003c00 	add	x0, x0, #0xf
   86e4c:	39400001 	ldrb	w1, [x0]
   86e50:	90000440 	adrp	x0, 10e000 <ECO_CGI_1_PIXEL_VALIDITY_FLAG_e>
   86e54:	911cdc00 	add	x0, x0, #0x737
   86e58:	39400000 	ldrb	w0, [x0]
   86e5c:	6b00003f 	cmp	w1, w0
   86e60:	54000341 	b.ne	86ec8 <CEcoVFB1_AF252188_IEcoCGI1_QueryInterface+0x2a8>  // b.any
   86e64:	f94013a0 	ldr	x0, [x29, #32]
   86e68:	91004000 	add	x0, x0, #0x10
   86e6c:	39400001 	ldrb	w1, [x0]
   86e70:	90000440 	adrp	x0, 10e000 <ECO_CGI_1_PIXEL_VALIDITY_FLAG_e>
   86e74:	911ce000 	add	x0, x0, #0x738
   86e78:	39400000 	ldrb	w0, [x0]
   86e7c:	6b00003f 	cmp	w1, w0
   86e80:	54000241 	b.ne	86ec8 <CEcoVFB1_AF252188_IEcoCGI1_QueryInterface+0x2a8>  // b.any
   86e84:	f94013a0 	ldr	x0, [x29, #32]
   86e88:	91004400 	add	x0, x0, #0x11
   86e8c:	39400001 	ldrb	w1, [x0]
   86e90:	90000440 	adrp	x0, 10e000 <ECO_CGI_1_PIXEL_VALIDITY_FLAG_e>
   86e94:	911ce400 	add	x0, x0, #0x739
   86e98:	39400000 	ldrb	w0, [x0]
   86e9c:	6b00003f 	cmp	w1, w0
   86ea0:	54000141 	b.ne	86ec8 <CEcoVFB1_AF252188_IEcoCGI1_QueryInterface+0x2a8>  // b.any
   86ea4:	f9401fa1 	ldr	x1, [x29, #56]
   86ea8:	f9400fa0 	ldr	x0, [x29, #24]
   86eac:	f9000001 	str	x1, [x0]
   86eb0:	f9401fa0 	ldr	x0, [x29, #56]
   86eb4:	f9400000 	ldr	x0, [x0]
   86eb8:	f9400401 	ldr	x1, [x0, #8]
   86ebc:	f9401fa0 	ldr	x0, [x29, #56]
   86ec0:	d63f0020 	blr	x1
   86ec4:	14000136 	b	8739c <CEcoVFB1_AF252188_IEcoCGI1_QueryInterface+0x77c>
   86ec8:	f94013a0 	ldr	x0, [x29, #32]
   86ecc:	39400001 	ldrb	w1, [x0]
   86ed0:	90000440 	adrp	x0, 10e000 <ECO_CGI_1_PIXEL_VALIDITY_FLAG_e>
   86ed4:	911e2000 	add	x0, x0, #0x788
   86ed8:	39400000 	ldrb	w0, [x0]
   86edc:	6b00003f 	cmp	w1, w0
   86ee0:	54001261 	b.ne	8712c <CEcoVFB1_AF252188_IEcoCGI1_QueryInterface+0x50c>  // b.any
   86ee4:	f94013a0 	ldr	x0, [x29, #32]
   86ee8:	91000400 	add	x0, x0, #0x1
   86eec:	39400001 	ldrb	w1, [x0]
   86ef0:	90000440 	adrp	x0, 10e000 <ECO_CGI_1_PIXEL_VALIDITY_FLAG_e>
   86ef4:	911e2400 	add	x0, x0, #0x789
   86ef8:	39400000 	ldrb	w0, [x0]
   86efc:	6b00003f 	cmp	w1, w0
   86f00:	54001161 	b.ne	8712c <CEcoVFB1_AF252188_IEcoCGI1_QueryInterface+0x50c>  // b.any
   86f04:	f94013a0 	ldr	x0, [x29, #32]
   86f08:	91000800 	add	x0, x0, #0x2
   86f0c:	39400001 	ldrb	w1, [x0]
   86f10:	90000440 	adrp	x0, 10e000 <ECO_CGI_1_PIXEL_VALIDITY_FLAG_e>
   86f14:	911e2800 	add	x0, x0, #0x78a
   86f18:	39400000 	ldrb	w0, [x0]
   86f1c:	6b00003f 	cmp	w1, w0
   86f20:	54001061 	b.ne	8712c <CEcoVFB1_AF252188_IEcoCGI1_QueryInterface+0x50c>  // b.any
   86f24:	f94013a0 	ldr	x0, [x29, #32]
   86f28:	91000c00 	add	x0, x0, #0x3
   86f2c:	39400001 	ldrb	w1, [x0]
   86f30:	90000440 	adrp	x0, 10e000 <ECO_CGI_1_PIXEL_VALIDITY_FLAG_e>
   86f34:	911e2c00 	add	x0, x0, #0x78b
   86f38:	39400000 	ldrb	w0, [x0]
   86f3c:	6b00003f 	cmp	w1, w0
   86f40:	54000f61 	b.ne	8712c <CEcoVFB1_AF252188_IEcoCGI1_QueryInterface+0x50c>  // b.any
   86f44:	f94013a0 	ldr	x0, [x29, #32]
   86f48:	91001000 	add	x0, x0, #0x4
   86f4c:	39400001 	ldrb	w1, [x0]
   86f50:	90000440 	adrp	x0, 10e000 <ECO_CGI_1_PIXEL_VALIDITY_FLAG_e>
   86f54:	911e3000 	add	x0, x0, #0x78c
   86f58:	39400000 	ldrb	w0, [x0]
   86f5c:	6b00003f 	cmp	w1, w0
   86f60:	54000e61 	b.ne	8712c <CEcoVFB1_AF252188_IEcoCGI1_QueryInterface+0x50c>  // b.any
   86f64:	f94013a0 	ldr	x0, [x29, #32]
   86f68:	91001400 	add	x0, x0, #0x5
   86f6c:	39400001 	ldrb	w1, [x0]
   86f70:	90000440 	adrp	x0, 10e000 <ECO_CGI_1_PIXEL_VALIDITY_FLAG_e>
   86f74:	911e3400 	add	x0, x0, #0x78d
   86f78:	39400000 	ldrb	w0, [x0]
   86f7c:	6b00003f 	cmp	w1, w0
   86f80:	54000d61 	b.ne	8712c <CEcoVFB1_AF252188_IEcoCGI1_QueryInterface+0x50c>  // b.any
   86f84:	f94013a0 	ldr	x0, [x29, #32]
   86f88:	91001800 	add	x0, x0, #0x6
   86f8c:	39400001 	ldrb	w1, [x0]
   86f90:	90000440 	adrp	x0, 10e000 <ECO_CGI_1_PIXEL_VALIDITY_FLAG_e>
   86f94:	911e3800 	add	x0, x0, #0x78e
   86f98:	39400000 	ldrb	w0, [x0]
   86f9c:	6b00003f 	cmp	w1, w0
   86fa0:	54000c61 	b.ne	8712c <CEcoVFB1_AF252188_IEcoCGI1_QueryInterface+0x50c>  // b.any
   86fa4:	f94013a0 	ldr	x0, [x29, #32]
   86fa8:	91001c00 	add	x0, x0, #0x7
   86fac:	39400001 	ldrb	w1, [x0]
   86fb0:	90000440 	adrp	x0, 10e000 <ECO_CGI_1_PIXEL_VALIDITY_FLAG_e>
   86fb4:	911e3c00 	add	x0, x0, #0x78f
   86fb8:	39400000 	ldrb	w0, [x0]
   86fbc:	6b00003f 	cmp	w1, w0
   86fc0:	54000b61 	b.ne	8712c <CEcoVFB1_AF252188_IEcoCGI1_QueryInterface+0x50c>  // b.any
   86fc4:	f94013a0 	ldr	x0, [x29, #32]
   86fc8:	91002000 	add	x0, x0, #0x8
   86fcc:	39400001 	ldrb	w1, [x0]
   86fd0:	90000440 	adrp	x0, 10e000 <ECO_CGI_1_PIXEL_VALIDITY_FLAG_e>
   86fd4:	911e4000 	add	x0, x0, #0x790
   86fd8:	39400000 	ldrb	w0, [x0]
   86fdc:	6b00003f 	cmp	w1, w0
   86fe0:	54000a61 	b.ne	8712c <CEcoVFB1_AF252188_IEcoCGI1_QueryInterface+0x50c>  // b.any
   86fe4:	f94013a0 	ldr	x0, [x29, #32]
   86fe8:	91002400 	add	x0, x0, #0x9
   86fec:	39400001 	ldrb	w1, [x0]
   86ff0:	90000440 	adrp	x0, 10e000 <ECO_CGI_1_PIXEL_VALIDITY_FLAG_e>
   86ff4:	911e4400 	add	x0, x0, #0x791
   86ff8:	39400000 	ldrb	w0, [x0]
   86ffc:	6b00003f 	cmp	w1, w0
   87000:	54000961 	b.ne	8712c <CEcoVFB1_AF252188_IEcoCGI1_QueryInterface+0x50c>  // b.any
   87004:	f94013a0 	ldr	x0, [x29, #32]
   87008:	91002800 	add	x0, x0, #0xa
   8700c:	39400001 	ldrb	w1, [x0]
   87010:	f0000420 	adrp	x0, 10e000 <ECO_CGI_1_PIXEL_VALIDITY_FLAG_e>
   87014:	911e4800 	add	x0, x0, #0x792
   87018:	39400000 	ldrb	w0, [x0]
   8701c:	6b00003f 	cmp	w1, w0
   87020:	54000861 	b.ne	8712c <CEcoVFB1_AF252188_IEcoCGI1_QueryInterface+0x50c>  // b.any
   87024:	f94013a0 	ldr	x0, [x29, #32]
   87028:	91002c00 	add	x0, x0, #0xb
   8702c:	39400001 	ldrb	w1, [x0]
   87030:	f0000420 	adrp	x0, 10e000 <ECO_CGI_1_PIXEL_VALIDITY_FLAG_e>
   87034:	911e4c00 	add	x0, x0, #0x793
   87038:	39400000 	ldrb	w0, [x0]
   8703c:	6b00003f 	cmp	w1, w0
   87040:	54000761 	b.ne	8712c <CEcoVFB1_AF252188_IEcoCGI1_QueryInterface+0x50c>  // b.any
   87044:	f94013a0 	ldr	x0, [x29, #32]
   87048:	91003000 	add	x0, x0, #0xc
   8704c:	39400001 	ldrb	w1, [x0]
   87050:	f0000420 	adrp	x0, 10e000 <ECO_CGI_1_PIXEL_VALIDITY_FLAG_e>
   87054:	911e5000 	add	x0, x0, #0x794
   87058:	39400000 	ldrb	w0, [x0]
   8705c:	6b00003f 	cmp	w1, w0
   87060:	54000661 	b.ne	8712c <CEcoVFB1_AF252188_IEcoCGI1_QueryInterface+0x50c>  // b.any
   87064:	f94013a0 	ldr	x0, [x29, #32]
   87068:	91003400 	add	x0, x0, #0xd
   8706c:	39400001 	ldrb	w1, [x0]
   87070:	f0000420 	adrp	x0, 10e000 <ECO_CGI_1_PIXEL_VALIDITY_FLAG_e>
   87074:	911e5400 	add	x0, x0, #0x795
   87078:	39400000 	ldrb	w0, [x0]
   8707c:	6b00003f 	cmp	w1, w0
   87080:	54000561 	b.ne	8712c <CEcoVFB1_AF252188_IEcoCGI1_QueryInterface+0x50c>  // b.any
   87084:	f94013a0 	ldr	x0, [x29, #32]
   87088:	91003800 	add	x0, x0, #0xe
   8708c:	39400001 	ldrb	w1, [x0]
   87090:	f0000420 	adrp	x0, 10e000 <ECO_CGI_1_PIXEL_VALIDITY_FLAG_e>
   87094:	911e5800 	add	x0, x0, #0x796
   87098:	39400000 	ldrb	w0, [x0]
   8709c:	6b00003f 	cmp	w1, w0
   870a0:	54000461 	b.ne	8712c <CEcoVFB1_AF252188_IEcoCGI1_QueryInterface+0x50c>  // b.any
   870a4:	f94013a0 	ldr	x0, [x29, #32]
   870a8:	91003c00 	add	x0, x0, #0xf
   870ac:	39400001 	ldrb	w1, [x0]
   870b0:	f0000420 	adrp	x0, 10e000 <ECO_CGI_1_PIXEL_VALIDITY_FLAG_e>
   870b4:	911e5c00 	add	x0, x0, #0x797
   870b8:	39400000 	ldrb	w0, [x0]
   870bc:	6b00003f 	cmp	w1, w0
   870c0:	54000361 	b.ne	8712c <CEcoVFB1_AF252188_IEcoCGI1_QueryInterface+0x50c>  // b.any
   870c4:	f94013a0 	ldr	x0, [x29, #32]
   870c8:	91004000 	add	x0, x0, #0x10
   870cc:	39400001 	ldrb	w1, [x0]
   870d0:	f0000420 	adrp	x0, 10e000 <ECO_CGI_1_PIXEL_VALIDITY_FLAG_e>
   870d4:	911e6000 	add	x0, x0, #0x798
   870d8:	39400000 	ldrb	w0, [x0]
   870dc:	6b00003f 	cmp	w1, w0
   870e0:	54000261 	b.ne	8712c <CEcoVFB1_AF252188_IEcoCGI1_QueryInterface+0x50c>  // b.any
   870e4:	f94013a0 	ldr	x0, [x29, #32]
   870e8:	91004400 	add	x0, x0, #0x11
   870ec:	39400001 	ldrb	w1, [x0]
   870f0:	f0000420 	adrp	x0, 10e000 <ECO_CGI_1_PIXEL_VALIDITY_FLAG_e>
   870f4:	911e6400 	add	x0, x0, #0x799
   870f8:	39400000 	ldrb	w0, [x0]
   870fc:	6b00003f 	cmp	w1, w0
   87100:	54000161 	b.ne	8712c <CEcoVFB1_AF252188_IEcoCGI1_QueryInterface+0x50c>  // b.any
   87104:	f9401fa0 	ldr	x0, [x29, #56]
   87108:	91002001 	add	x1, x0, #0x8
   8710c:	f9400fa0 	ldr	x0, [x29, #24]
   87110:	f9000001 	str	x1, [x0]
   87114:	f9401fa0 	ldr	x0, [x29, #56]
   87118:	f9400000 	ldr	x0, [x0]
   8711c:	f9400401 	ldr	x1, [x0, #8]
   87120:	f9401fa0 	ldr	x0, [x29, #56]
   87124:	d63f0020 	blr	x1
   87128:	1400009d 	b	8739c <CEcoVFB1_AF252188_IEcoCGI1_QueryInterface+0x77c>
   8712c:	f94013a0 	ldr	x0, [x29, #32]
   87130:	39400001 	ldrb	w1, [x0]
   87134:	f0000420 	adrp	x0, 10e000 <ECO_CGI_1_PIXEL_VALIDITY_FLAG_e>
   87138:	911ac000 	add	x0, x0, #0x6b0
   8713c:	39400000 	ldrb	w0, [x0]
   87140:	6b00003f 	cmp	w1, w0
   87144:	54001241 	b.ne	8738c <CEcoVFB1_AF252188_IEcoCGI1_QueryInterface+0x76c>  // b.any
   87148:	f94013a0 	ldr	x0, [x29, #32]
   8714c:	91000400 	add	x0, x0, #0x1
   87150:	39400001 	ldrb	w1, [x0]
   87154:	f0000420 	adrp	x0, 10e000 <ECO_CGI_1_PIXEL_VALIDITY_FLAG_e>
   87158:	911ac400 	add	x0, x0, #0x6b1
   8715c:	39400000 	ldrb	w0, [x0]
   87160:	6b00003f 	cmp	w1, w0
   87164:	54001141 	b.ne	8738c <CEcoVFB1_AF252188_IEcoCGI1_QueryInterface+0x76c>  // b.any
   87168:	f94013a0 	ldr	x0, [x29, #32]
   8716c:	91000800 	add	x0, x0, #0x2
   87170:	39400001 	ldrb	w1, [x0]
   87174:	f0000420 	adrp	x0, 10e000 <ECO_CGI_1_PIXEL_VALIDITY_FLAG_e>
   87178:	911ac800 	add	x0, x0, #0x6b2
   8717c:	39400000 	ldrb	w0, [x0]
   87180:	6b00003f 	cmp	w1, w0
   87184:	54001041 	b.ne	8738c <CEcoVFB1_AF252188_IEcoCGI1_QueryInterface+0x76c>  // b.any
   87188:	f94013a0 	ldr	x0, [x29, #32]
   8718c:	91000c00 	add	x0, x0, #0x3
   87190:	39400001 	ldrb	w1, [x0]
   87194:	f0000420 	adrp	x0, 10e000 <ECO_CGI_1_PIXEL_VALIDITY_FLAG_e>
   87198:	911acc00 	add	x0, x0, #0x6b3
   8719c:	39400000 	ldrb	w0, [x0]
   871a0:	6b00003f 	cmp	w1, w0
   871a4:	54000f41 	b.ne	8738c <CEcoVFB1_AF252188_IEcoCGI1_QueryInterface+0x76c>  // b.any
   871a8:	f94013a0 	ldr	x0, [x29, #32]
   871ac:	91001000 	add	x0, x0, #0x4
   871b0:	39400001 	ldrb	w1, [x0]
   871b4:	f0000420 	adrp	x0, 10e000 <ECO_CGI_1_PIXEL_VALIDITY_FLAG_e>
   871b8:	911ad000 	add	x0, x0, #0x6b4
   871bc:	39400000 	ldrb	w0, [x0]
   871c0:	6b00003f 	cmp	w1, w0
   871c4:	54000e41 	b.ne	8738c <CEcoVFB1_AF252188_IEcoCGI1_QueryInterface+0x76c>  // b.any
   871c8:	f94013a0 	ldr	x0, [x29, #32]
   871cc:	91001400 	add	x0, x0, #0x5
   871d0:	39400001 	ldrb	w1, [x0]
   871d4:	f0000420 	adrp	x0, 10e000 <ECO_CGI_1_PIXEL_VALIDITY_FLAG_e>
   871d8:	911ad400 	add	x0, x0, #0x6b5
   871dc:	39400000 	ldrb	w0, [x0]
   871e0:	6b00003f 	cmp	w1, w0
   871e4:	54000d41 	b.ne	8738c <CEcoVFB1_AF252188_IEcoCGI1_QueryInterface+0x76c>  // b.any
   871e8:	f94013a0 	ldr	x0, [x29, #32]
   871ec:	91001800 	add	x0, x0, #0x6
   871f0:	39400001 	ldrb	w1, [x0]
   871f4:	f0000420 	adrp	x0, 10e000 <ECO_CGI_1_PIXEL_VALIDITY_FLAG_e>
   871f8:	911ad800 	add	x0, x0, #0x6b6
   871fc:	39400000 	ldrb	w0, [x0]
   87200:	6b00003f 	cmp	w1, w0
   87204:	54000c41 	b.ne	8738c <CEcoVFB1_AF252188_IEcoCGI1_QueryInterface+0x76c>  // b.any
   87208:	f94013a0 	ldr	x0, [x29, #32]
   8720c:	91001c00 	add	x0, x0, #0x7
   87210:	39400001 	ldrb	w1, [x0]
   87214:	f0000420 	adrp	x0, 10e000 <ECO_CGI_1_PIXEL_VALIDITY_FLAG_e>
   87218:	911adc00 	add	x0, x0, #0x6b7
   8721c:	39400000 	ldrb	w0, [x0]
   87220:	6b00003f 	cmp	w1, w0
   87224:	54000b41 	b.ne	8738c <CEcoVFB1_AF252188_IEcoCGI1_QueryInterface+0x76c>  // b.any
   87228:	f94013a0 	ldr	x0, [x29, #32]
   8722c:	91002000 	add	x0, x0, #0x8
   87230:	39400001 	ldrb	w1, [x0]
   87234:	f0000420 	adrp	x0, 10e000 <ECO_CGI_1_PIXEL_VALIDITY_FLAG_e>
   87238:	911ae000 	add	x0, x0, #0x6b8
   8723c:	39400000 	ldrb	w0, [x0]
   87240:	6b00003f 	cmp	w1, w0
   87244:	54000a41 	b.ne	8738c <CEcoVFB1_AF252188_IEcoCGI1_QueryInterface+0x76c>  // b.any
   87248:	f94013a0 	ldr	x0, [x29, #32]
   8724c:	91002400 	add	x0, x0, #0x9
   87250:	39400001 	ldrb	w1, [x0]
   87254:	f0000420 	adrp	x0, 10e000 <ECO_CGI_1_PIXEL_VALIDITY_FLAG_e>
   87258:	911ae400 	add	x0, x0, #0x6b9
   8725c:	39400000 	ldrb	w0, [x0]
   87260:	6b00003f 	cmp	w1, w0
   87264:	54000941 	b.ne	8738c <CEcoVFB1_AF252188_IEcoCGI1_QueryInterface+0x76c>  // b.any
   87268:	f94013a0 	ldr	x0, [x29, #32]
   8726c:	91002800 	add	x0, x0, #0xa
   87270:	39400001 	ldrb	w1, [x0]
   87274:	f0000420 	adrp	x0, 10e000 <ECO_CGI_1_PIXEL_VALIDITY_FLAG_e>
   87278:	911ae800 	add	x0, x0, #0x6ba
   8727c:	39400000 	ldrb	w0, [x0]
   87280:	6b00003f 	cmp	w1, w0
   87284:	54000841 	b.ne	8738c <CEcoVFB1_AF252188_IEcoCGI1_QueryInterface+0x76c>  // b.any
   87288:	f94013a0 	ldr	x0, [x29, #32]
   8728c:	91002c00 	add	x0, x0, #0xb
   87290:	39400001 	ldrb	w1, [x0]
   87294:	f0000420 	adrp	x0, 10e000 <ECO_CGI_1_PIXEL_VALIDITY_FLAG_e>
   87298:	911aec00 	add	x0, x0, #0x6bb
   8729c:	39400000 	ldrb	w0, [x0]
   872a0:	6b00003f 	cmp	w1, w0
   872a4:	54000741 	b.ne	8738c <CEcoVFB1_AF252188_IEcoCGI1_QueryInterface+0x76c>  // b.any
   872a8:	f94013a0 	ldr	x0, [x29, #32]
   872ac:	91003000 	add	x0, x0, #0xc
   872b0:	39400001 	ldrb	w1, [x0]
   872b4:	f0000420 	adrp	x0, 10e000 <ECO_CGI_1_PIXEL_VALIDITY_FLAG_e>
   872b8:	911af000 	add	x0, x0, #0x6bc
   872bc:	39400000 	ldrb	w0, [x0]
   872c0:	6b00003f 	cmp	w1, w0
   872c4:	54000641 	b.ne	8738c <CEcoVFB1_AF252188_IEcoCGI1_QueryInterface+0x76c>  // b.any
   872c8:	f94013a0 	ldr	x0, [x29, #32]
   872cc:	91003400 	add	x0, x0, #0xd
   872d0:	39400001 	ldrb	w1, [x0]
   872d4:	f0000420 	adrp	x0, 10e000 <ECO_CGI_1_PIXEL_VALIDITY_FLAG_e>
   872d8:	911af400 	add	x0, x0, #0x6bd
   872dc:	39400000 	ldrb	w0, [x0]
   872e0:	6b00003f 	cmp	w1, w0
   872e4:	54000541 	b.ne	8738c <CEcoVFB1_AF252188_IEcoCGI1_QueryInterface+0x76c>  // b.any
   872e8:	f94013a0 	ldr	x0, [x29, #32]
   872ec:	91003800 	add	x0, x0, #0xe
   872f0:	39400001 	ldrb	w1, [x0]
   872f4:	f0000420 	adrp	x0, 10e000 <ECO_CGI_1_PIXEL_VALIDITY_FLAG_e>
   872f8:	911af800 	add	x0, x0, #0x6be
   872fc:	39400000 	ldrb	w0, [x0]
   87300:	6b00003f 	cmp	w1, w0
   87304:	54000441 	b.ne	8738c <CEcoVFB1_AF252188_IEcoCGI1_QueryInterface+0x76c>  // b.any
   87308:	f94013a0 	ldr	x0, [x29, #32]
   8730c:	91003c00 	add	x0, x0, #0xf
   87310:	39400001 	ldrb	w1, [x0]
   87314:	f0000420 	adrp	x0, 10e000 <ECO_CGI_1_PIXEL_VALIDITY_FLAG_e>
   87318:	911afc00 	add	x0, x0, #0x6bf
   8731c:	39400000 	ldrb	w0, [x0]
   87320:	6b00003f 	cmp	w1, w0
   87324:	54000341 	b.ne	8738c <CEcoVFB1_AF252188_IEcoCGI1_QueryInterface+0x76c>  // b.any
   87328:	f94013a0 	ldr	x0, [x29, #32]
   8732c:	91004000 	add	x0, x0, #0x10
   87330:	39400001 	ldrb	w1, [x0]
   87334:	f0000420 	adrp	x0, 10e000 <ECO_CGI_1_PIXEL_VALIDITY_FLAG_e>
   87338:	911b0000 	add	x0, x0, #0x6c0
   8733c:	39400000 	ldrb	w0, [x0]
   87340:	6b00003f 	cmp	w1, w0
   87344:	54000241 	b.ne	8738c <CEcoVFB1_AF252188_IEcoCGI1_QueryInterface+0x76c>  // b.any
   87348:	f94013a0 	ldr	x0, [x29, #32]
   8734c:	91004400 	add	x0, x0, #0x11
   87350:	39400001 	ldrb	w1, [x0]
   87354:	f0000420 	adrp	x0, 10e000 <ECO_CGI_1_PIXEL_VALIDITY_FLAG_e>
   87358:	911b0400 	add	x0, x0, #0x6c1
   8735c:	39400000 	ldrb	w0, [x0]
   87360:	6b00003f 	cmp	w1, w0
   87364:	54000141 	b.ne	8738c <CEcoVFB1_AF252188_IEcoCGI1_QueryInterface+0x76c>  // b.any
   87368:	f9401fa1 	ldr	x1, [x29, #56]
   8736c:	f9400fa0 	ldr	x0, [x29, #24]
   87370:	f9000001 	str	x1, [x0]
   87374:	f9401fa0 	ldr	x0, [x29, #56]
   87378:	f9400000 	ldr	x0, [x0]
   8737c:	f9400401 	ldr	x1, [x0, #8]
   87380:	f9401fa0 	ldr	x0, [x29, #56]
   87384:	d63f0020 	blr	x1
   87388:	14000005 	b	8739c <CEcoVFB1_AF252188_IEcoCGI1_QueryInterface+0x77c>
   8738c:	f9400fa0 	ldr	x0, [x29, #24]
   87390:	f900001f 	str	xzr, [x0]
   87394:	12800000 	mov	w0, #0xffffffff            	// #-1
   87398:	14000002 	b	873a0 <CEcoVFB1_AF252188_IEcoCGI1_QueryInterface+0x780>
   8739c:	52800000 	mov	w0, #0x0                   	// #0
   873a0:	a8c47bfd 	ldp	x29, x30, [sp], #64
   873a4:	d65f03c0 	ret

00000000000873a8 <CEcoVFB1_AF252188_IEcoCGI1_AddRef>:
   873a8:	d10083ff 	sub	sp, sp, #0x20
   873ac:	f90007e0 	str	x0, [sp, #8]
   873b0:	f94007e0 	ldr	x0, [sp, #8]
   873b4:	d1002000 	sub	x0, x0, #0x8
   873b8:	f9000fe0 	str	x0, [sp, #24]
   873bc:	f94007e0 	ldr	x0, [sp, #8]
   873c0:	f100001f 	cmp	x0, #0x0
   873c4:	54000061 	b.ne	873d0 <CEcoVFB1_AF252188_IEcoCGI1_AddRef+0x28>  // b.any
   873c8:	12800000 	mov	w0, #0xffffffff            	// #-1
   873cc:	14000008 	b	873ec <CEcoVFB1_AF252188_IEcoCGI1_AddRef+0x44>
   873d0:	f9400fe0 	ldr	x0, [sp, #24]
   873d4:	b9401000 	ldr	w0, [x0, #16]
   873d8:	11000401 	add	w1, w0, #0x1
   873dc:	f9400fe0 	ldr	x0, [sp, #24]
   873e0:	b9001001 	str	w1, [x0, #16]
   873e4:	f9400fe0 	ldr	x0, [sp, #24]
   873e8:	b9401000 	ldr	w0, [x0, #16]
   873ec:	910083ff 	add	sp, sp, #0x20
   873f0:	d65f03c0 	ret

00000000000873f4 <CEcoVFB1_AF252188_IEcoCGI1_Release>:
   873f4:	a9bd7bfd 	stp	x29, x30, [sp, #-48]!
   873f8:	910003fd 	mov	x29, sp
   873fc:	f9000fa0 	str	x0, [x29, #24]
   87400:	f9400fa0 	ldr	x0, [x29, #24]
   87404:	d1002000 	sub	x0, x0, #0x8
   87408:	f90017a0 	str	x0, [x29, #40]
   8740c:	f9400fa0 	ldr	x0, [x29, #24]
   87410:	f100001f 	cmp	x0, #0x0
   87414:	54000061 	b.ne	87420 <CEcoVFB1_AF252188_IEcoCGI1_Release+0x2c>  // b.any
   87418:	12800000 	mov	w0, #0xffffffff            	// #-1
   8741c:	14000010 	b	8745c <CEcoVFB1_AF252188_IEcoCGI1_Release+0x68>
   87420:	f94017a0 	ldr	x0, [x29, #40]
   87424:	b9401000 	ldr	w0, [x0, #16]
   87428:	51000401 	sub	w1, w0, #0x1
   8742c:	f94017a0 	ldr	x0, [x29, #40]
   87430:	b9001001 	str	w1, [x0, #16]
   87434:	f94017a0 	ldr	x0, [x29, #40]
   87438:	b9401000 	ldr	w0, [x0, #16]
   8743c:	7100001f 	cmp	w0, #0x0
   87440:	540000a1 	b.ne	87454 <CEcoVFB1_AF252188_IEcoCGI1_Release+0x60>  // b.any
   87444:	f94017a0 	ldr	x0, [x29, #40]
   87448:	94000200 	bl	87c48 <deleteCEcoVFB1_AF252188>
   8744c:	52800000 	mov	w0, #0x0                   	// #0
   87450:	14000003 	b	8745c <CEcoVFB1_AF252188_IEcoCGI1_Release+0x68>
   87454:	f94017a0 	ldr	x0, [x29, #40]
   87458:	b9401000 	ldr	w0, [x0, #16]
   8745c:	a8c37bfd 	ldp	x29, x30, [sp], #48
   87460:	d65f03c0 	ret

0000000000087464 <CEcoVFB1_AF252188_IEcoCGI1_CreateVirtualDevice>:
   87464:	a9bc7bfd 	stp	x29, x30, [sp, #-64]!
   87468:	910003fd 	mov	x29, sp
   8746c:	f9000fa0 	str	x0, [x29, #24]
   87470:	f9400fa0 	ldr	x0, [x29, #24]
   87474:	d1002000 	sub	x0, x0, #0x8
   87478:	f9001fa0 	str	x0, [x29, #56]
   8747c:	f90017bf 	str	xzr, [x29, #40]
   87480:	79006fbf 	strh	wzr, [x29, #54]
   87484:	f9400fa0 	ldr	x0, [x29, #24]
   87488:	f100001f 	cmp	x0, #0x0
   8748c:	54000061 	b.ne	87498 <CEcoVFB1_AF252188_IEcoCGI1_CreateVirtualDevice+0x34>  // b.any
   87490:	92800000 	mov	x0, #0xffffffffffffffff    	// #-1
   87494:	1400000a 	b	874bc <CEcoVFB1_AF252188_IEcoCGI1_CreateVirtualDevice+0x58>
   87498:	f9401fa0 	ldr	x0, [x29, #56]
   8749c:	f9401000 	ldr	x0, [x0, #32]
   874a0:	9100a3a1 	add	x1, x29, #0x28
   874a4:	aa0103e3 	mov	x3, x1
   874a8:	f9401fa2 	ldr	x2, [x29, #56]
   874ac:	d2800001 	mov	x1, #0x0                   	// #0
   874b0:	94000724 	bl	89140 <createCEcoVFB1VirtualDevice_AF252188>
   874b4:	79006fa0 	strh	w0, [x29, #54]
   874b8:	f94017a0 	ldr	x0, [x29, #40]
   874bc:	a8c47bfd 	ldp	x29, x30, [sp], #64
   874c0:	d65f03c0 	ret

00000000000874c4 <initCEcoVFB1_AF252188>:
   874c4:	d10543ff 	sub	sp, sp, #0x150
   874c8:	a90a7bfd 	stp	x29, x30, [sp, #160]
   874cc:	910283fd 	add	x29, sp, #0xa0
   874d0:	f9000fa0 	str	x0, [x29, #24]
   874d4:	f9000ba1 	str	x1, [x29, #16]
   874d8:	f9400fa0 	ldr	x0, [x29, #24]
   874dc:	f90057a0 	str	x0, [x29, #168]
   874e0:	12800000 	mov	w0, #0xffffffff            	// #-1
   874e4:	79014fa0 	strh	w0, [x29, #166]
   874e8:	f90047bf 	str	xzr, [x29, #136]
   874ec:	f90043bf 	str	xzr, [x29, #128]
   874f0:	f9004fbf 	str	xzr, [x29, #152]
   874f4:	b90097bf 	str	wzr, [x29, #148]
   874f8:	b90093bf 	str	wzr, [x29, #144]
   874fc:	a9027fbf 	stp	xzr, xzr, [x29, #32]
   87500:	a9037fbf 	stp	xzr, xzr, [x29, #48]
   87504:	a9047fbf 	stp	xzr, xzr, [x29, #64]
   87508:	a9057fbf 	stp	xzr, xzr, [x29, #80]
   8750c:	a9067fbf 	stp	xzr, xzr, [x29, #96]
   87510:	f9003bbf 	str	xzr, [x29, #112]
   87514:	b9007bbf 	str	wzr, [x29, #120]
   87518:	f9400fa0 	ldr	x0, [x29, #24]
   8751c:	f100001f 	cmp	x0, #0x0
   87520:	54000061 	b.ne	8752c <initCEcoVFB1_AF252188+0x68>  // b.any
   87524:	79c14fa0 	ldrsh	w0, [x29, #166]
   87528:	140000b7 	b	87804 <initCEcoVFB1_AF252188+0x340>
   8752c:	f9400ba0 	ldr	x0, [x29, #16]
   87530:	f9400000 	ldr	x0, [x0]
   87534:	f9400003 	ldr	x3, [x0]
   87538:	910223a1 	add	x1, x29, #0x88
   8753c:	f0000420 	adrp	x0, 10e000 <ECO_CGI_1_PIXEL_VALIDITY_FLAG_e>
   87540:	911b8000 	add	x0, x0, #0x6e0
   87544:	aa0103e2 	mov	x2, x1
   87548:	aa0003e1 	mov	x1, x0
   8754c:	f9400ba0 	ldr	x0, [x29, #16]
   87550:	d63f0060 	blr	x3
   87554:	79014fa0 	strh	w0, [x29, #166]
   87558:	79c14fa0 	ldrsh	w0, [x29, #166]
   8755c:	7100001f 	cmp	w0, #0x0
   87560:	540000c0 	b.eq	87578 <initCEcoVFB1_AF252188+0xb4>  // b.none
   87564:	f94047a0 	ldr	x0, [x29, #136]
   87568:	f100001f 	cmp	x0, #0x0
   8756c:	54000061 	b.ne	87578 <initCEcoVFB1_AF252188+0xb4>  // b.any
   87570:	79c14fa0 	ldrsh	w0, [x29, #166]
   87574:	140000a4 	b	87804 <initCEcoVFB1_AF252188+0x340>
   87578:	f94057a0 	ldr	x0, [x29, #168]
   8757c:	f9400ba1 	ldr	x1, [x29, #16]
   87580:	f9001001 	str	x1, [x0, #32]
   87584:	f94047a0 	ldr	x0, [x29, #136]
   87588:	f9400000 	ldr	x0, [x0]
   8758c:	f9400003 	ldr	x3, [x0]
   87590:	f94047a4 	ldr	x4, [x29, #136]
   87594:	910203a1 	add	x1, x29, #0x80
   87598:	f0000420 	adrp	x0, 10e000 <ECO_CGI_1_PIXEL_VALIDITY_FLAG_e>
   8759c:	911be000 	add	x0, x0, #0x6f8
   875a0:	aa0103e2 	mov	x2, x1
   875a4:	aa0003e1 	mov	x1, x0
   875a8:	aa0403e0 	mov	x0, x4
   875ac:	d63f0060 	blr	x3
   875b0:	79014fa0 	strh	w0, [x29, #166]
   875b4:	f94043a0 	ldr	x0, [x29, #128]
   875b8:	f9400000 	ldr	x0, [x0]
   875bc:	f9401c05 	ldr	x5, [x0, #56]
   875c0:	f94043a6 	ldr	x6, [x29, #128]
   875c4:	f94057a0 	ldr	x0, [x29, #168]
   875c8:	9100a002 	add	x2, x0, #0x28
   875cc:	f0000420 	adrp	x0, 10e000 <ECO_CGI_1_PIXEL_VALIDITY_FLAG_e>
   875d0:	911e8001 	add	x1, x0, #0x7a0
   875d4:	f0000420 	adrp	x0, 10e000 <ECO_CGI_1_PIXEL_VALIDITY_FLAG_e>
   875d8:	911ee000 	add	x0, x0, #0x7b8
   875dc:	aa0203e4 	mov	x4, x2
   875e0:	aa0103e3 	mov	x3, x1
   875e4:	d2800002 	mov	x2, #0x0                   	// #0
   875e8:	aa0003e1 	mov	x1, x0
   875ec:	aa0603e0 	mov	x0, x6
   875f0:	d63f00a0 	blr	x5
   875f4:	79c14fa0 	ldrsh	w0, [x29, #166]
   875f8:	7100001f 	cmp	w0, #0x0
   875fc:	540000e0 	b.eq	87618 <initCEcoVFB1_AF252188+0x154>  // b.none
   87600:	f94057a0 	ldr	x0, [x29, #168]
   87604:	f9401400 	ldr	x0, [x0, #40]
   87608:	f100001f 	cmp	x0, #0x0
   8760c:	54000061 	b.ne	87618 <initCEcoVFB1_AF252188+0x154>  // b.any
   87610:	79c14fa0 	ldrsh	w0, [x29, #166]
   87614:	1400007c 	b	87804 <initCEcoVFB1_AF252188+0x340>
   87618:	f94057a0 	ldr	x0, [x29, #168]
   8761c:	f9401400 	ldr	x0, [x0, #40]
   87620:	f9400000 	ldr	x0, [x0]
   87624:	f9401c08 	ldr	x8, [x0, #56]
   87628:	f94057a0 	ldr	x0, [x29, #168]
   8762c:	f9401400 	ldr	x0, [x0, #40]
   87630:	910083a1 	add	x1, x29, #0x20
   87634:	b90003ff 	str	wzr, [sp]
   87638:	52800007 	mov	w7, #0x0                   	// #0
   8763c:	52800006 	mov	w6, #0x0                   	// #0
   87640:	52800105 	mov	w5, #0x8                   	// #8
   87644:	52800064 	mov	w4, #0x3                   	// #3
   87648:	72a00084 	movk	w4, #0x4, lsl #16
   8764c:	528000a3 	mov	w3, #0x5                   	// #5
   87650:	aa0103e2 	mov	x2, x1
   87654:	52800101 	mov	w1, #0x8                   	// #8
   87658:	d63f0100 	blr	x8
   8765c:	13003c00 	sxth	w0, w0
   87660:	3100041f 	cmn	w0, #0x1
   87664:	540000e0 	b.eq	87680 <initCEcoVFB1_AF252188+0x1bc>  // b.none
   87668:	b9402fa1 	ldr	w1, [x29, #44]
   8766c:	f94057a0 	ldr	x0, [x29, #168]
   87670:	b9003801 	str	w1, [x0, #56]
   87674:	b94033a1 	ldr	w1, [x29, #48]
   87678:	f94057a0 	ldr	x0, [x29, #168]
   8767c:	b9003c01 	str	w1, [x0, #60]
   87680:	f94057a0 	ldr	x0, [x29, #168]
   87684:	f9401400 	ldr	x0, [x0, #40]
   87688:	f9400000 	ldr	x0, [x0]
   8768c:	f9401c08 	ldr	x8, [x0, #56]
   87690:	f94057a0 	ldr	x0, [x29, #168]
   87694:	f9401400 	ldr	x0, [x0, #40]
   87698:	910083a1 	add	x1, x29, #0x20
   8769c:	52800007 	mov	w7, #0x0                   	// #0
   876a0:	52800086 	mov	w6, #0x4                   	// #4
   876a4:	52800085 	mov	w5, #0x4                   	// #4
   876a8:	528000a4 	mov	w4, #0x5                   	// #5
   876ac:	72a00084 	movk	w4, #0x4, lsl #16
   876b0:	52800083 	mov	w3, #0x4                   	// #4
   876b4:	aa0103e2 	mov	x2, x1
   876b8:	52800101 	mov	w1, #0x8                   	// #8
   876bc:	d63f0100 	blr	x8
   876c0:	13003c00 	sxth	w0, w0
   876c4:	3100041f 	cmn	w0, #0x1
   876c8:	54000080 	b.eq	876d8 <initCEcoVFB1_AF252188+0x214>  // b.none
   876cc:	b9402fa1 	ldr	w1, [x29, #44]
   876d0:	f94057a0 	ldr	x0, [x29, #168]
   876d4:	b9004001 	str	w1, [x0, #64]
   876d8:	f94057a0 	ldr	x0, [x29, #168]
   876dc:	f9401400 	ldr	x0, [x0, #40]
   876e0:	f9400000 	ldr	x0, [x0]
   876e4:	f9401c08 	ldr	x8, [x0, #56]
   876e8:	f94057a0 	ldr	x0, [x29, #168]
   876ec:	f9401409 	ldr	x9, [x0, #40]
   876f0:	f94057a0 	ldr	x0, [x29, #168]
   876f4:	b9403800 	ldr	w0, [x0, #56]
   876f8:	f94057a1 	ldr	x1, [x29, #168]
   876fc:	b9403c21 	ldr	w1, [x1, #60]
   87700:	f94057a2 	ldr	x2, [x29, #168]
   87704:	b9403842 	ldr	w2, [x2, #56]
   87708:	f94057a3 	ldr	x3, [x29, #168]
   8770c:	b9403c63 	ldr	w3, [x3, #60]
   87710:	f94057a4 	ldr	x4, [x29, #168]
   87714:	b9404084 	ldr	w4, [x4, #64]
   87718:	910083aa 	add	x10, x29, #0x20
   8771c:	b90093ff 	str	wzr, [sp, #144]
   87720:	b9008bff 	str	wzr, [sp, #136]
   87724:	52800085 	mov	w5, #0x4                   	// #4
   87728:	b90083e5 	str	w5, [sp, #128]
   8772c:	52800105 	mov	w5, #0x8                   	// #8
   87730:	72a00085 	movk	w5, #0x4, lsl #16
   87734:	b9007be5 	str	w5, [sp, #120]
   87738:	b90073e4 	str	w4, [sp, #112]
   8773c:	52800084 	mov	w4, #0x4                   	// #4
   87740:	b9006be4 	str	w4, [sp, #104]
   87744:	52800084 	mov	w4, #0x4                   	// #4
   87748:	b90063e4 	str	w4, [sp, #96]
   8774c:	529000a4 	mov	w4, #0x8005                	// #32773
   87750:	72a00084 	movk	w4, #0x4, lsl #16
   87754:	b9005be4 	str	w4, [sp, #88]
   87758:	b90053e3 	str	w3, [sp, #80]
   8775c:	b9004be2 	str	w2, [sp, #72]
   87760:	52800102 	mov	w2, #0x8                   	// #8
   87764:	b90043e2 	str	w2, [sp, #64]
   87768:	52800102 	mov	w2, #0x8                   	// #8
   8776c:	b9003be2 	str	w2, [sp, #56]
   87770:	52900082 	mov	w2, #0x8004                	// #32772
   87774:	72a00082 	movk	w2, #0x4, lsl #16
   87778:	b90033e2 	str	w2, [sp, #48]
   8777c:	b9002be1 	str	w1, [sp, #40]
   87780:	b90023e0 	str	w0, [sp, #32]
   87784:	52800100 	mov	w0, #0x8                   	// #8
   87788:	b9001be0 	str	w0, [sp, #24]
   8778c:	52800100 	mov	w0, #0x8                   	// #8
   87790:	b90013e0 	str	w0, [sp, #16]
   87794:	52900060 	mov	w0, #0x8003                	// #32771
   87798:	72a00080 	movk	w0, #0x4, lsl #16
   8779c:	b9000be0 	str	w0, [sp, #8]
   877a0:	b90003ff 	str	wzr, [sp]
   877a4:	52800207 	mov	w7, #0x10                  	// #16
   877a8:	52800086 	mov	w6, #0x4                   	// #4
   877ac:	52800105 	mov	w5, #0x8                   	// #8
   877b0:	52800024 	mov	w4, #0x1                   	// #1
   877b4:	72a00084 	movk	w4, #0x4, lsl #16
   877b8:	528002e3 	mov	w3, #0x17                  	// #23
   877bc:	aa0a03e2 	mov	x2, x10
   877c0:	52800101 	mov	w1, #0x8                   	// #8
   877c4:	aa0903e0 	mov	x0, x9
   877c8:	d63f0100 	blr	x8
   877cc:	b9402fa0 	ldr	w0, [x29, #44]
   877d0:	2a0003e0 	mov	w0, w0
   877d4:	aa0003e1 	mov	x1, x0
   877d8:	f94057a0 	ldr	x0, [x29, #168]
   877dc:	f9001801 	str	x1, [x0, #48]
   877e0:	b9407ba1 	ldr	w1, [x29, #120]
   877e4:	f94057a0 	ldr	x0, [x29, #168]
   877e8:	b9004401 	str	w1, [x0, #68]
   877ec:	f94057a0 	ldr	x0, [x29, #168]
   877f0:	b9404400 	ldr	w0, [x0, #68]
   877f4:	53017c01 	lsr	w1, w0, #1
   877f8:	f94057a0 	ldr	x0, [x29, #168]
   877fc:	b9004401 	str	w1, [x0, #68]
   87800:	52800000 	mov	w0, #0x0                   	// #0
   87804:	a94a7bfd 	ldp	x29, x30, [sp, #160]
   87808:	910543ff 	add	sp, sp, #0x150
   8780c:	d65f03c0 	ret

0000000000087810 <createCEcoVFB1_AF252188>:
   87810:	d105c3ff 	sub	sp, sp, #0x170
   87814:	a90a7bfd 	stp	x29, x30, [sp, #160]
   87818:	910283fd 	add	x29, sp, #0xa0
   8781c:	f90017a0 	str	x0, [x29, #40]
   87820:	f90013a1 	str	x1, [x29, #32]
   87824:	f9000fa2 	str	x2, [x29, #24]
   87828:	12800000 	mov	w0, #0xffffffff            	// #-1
   8782c:	79019fa0 	strh	w0, [x29, #206]
   87830:	f90053bf 	str	xzr, [x29, #160]
   87834:	f9004fbf 	str	xzr, [x29, #152]
   87838:	f90063bf 	str	xzr, [x29, #192]
   8783c:	f9005fbf 	str	xzr, [x29, #184]
   87840:	f9005bbf 	str	xzr, [x29, #176]
   87844:	f0000420 	adrp	x0, 10e000 <ECO_CGI_1_PIXEL_VALIDITY_FLAG_e>
   87848:	911dc000 	add	x0, x0, #0x770
   8784c:	f90057a0 	str	x0, [x29, #168]
   87850:	f9001fbf 	str	xzr, [x29, #56]
   87854:	f90023bf 	str	xzr, [x29, #64]
   87858:	f90027bf 	str	xzr, [x29, #72]
   8785c:	f9002bbf 	str	xzr, [x29, #80]
   87860:	f9002fbf 	str	xzr, [x29, #88]
   87864:	f90033bf 	str	xzr, [x29, #96]
   87868:	f90037bf 	str	xzr, [x29, #104]
   8786c:	f9003bbf 	str	xzr, [x29, #112]
   87870:	f9003fbf 	str	xzr, [x29, #120]
   87874:	f90043bf 	str	xzr, [x29, #128]
   87878:	f90047bf 	str	xzr, [x29, #136]
   8787c:	b90093bf 	str	wzr, [x29, #144]
   87880:	f9400fa0 	ldr	x0, [x29, #24]
   87884:	f100001f 	cmp	x0, #0x0
   87888:	54000080 	b.eq	87898 <createCEcoVFB1_AF252188+0x88>  // b.none
   8788c:	f94017a0 	ldr	x0, [x29, #40]
   87890:	f100001f 	cmp	x0, #0x0
   87894:	54000061 	b.ne	878a0 <createCEcoVFB1_AF252188+0x90>  // b.any
   87898:	79c19fa0 	ldrsh	w0, [x29, #206]
   8789c:	140000e8 	b	87c3c <createCEcoVFB1_AF252188+0x42c>
   878a0:	f94017a0 	ldr	x0, [x29, #40]
   878a4:	f9400000 	ldr	x0, [x0]
   878a8:	f9400003 	ldr	x3, [x0]
   878ac:	910283a1 	add	x1, x29, #0xa0
   878b0:	f0000420 	adrp	x0, 10e000 <ECO_CGI_1_PIXEL_VALIDITY_FLAG_e>
   878b4:	911b8000 	add	x0, x0, #0x6e0
   878b8:	aa0103e2 	mov	x2, x1
   878bc:	aa0003e1 	mov	x1, x0
   878c0:	f94017a0 	ldr	x0, [x29, #40]
   878c4:	d63f0060 	blr	x3
   878c8:	79019fa0 	strh	w0, [x29, #206]
   878cc:	79c19fa0 	ldrsh	w0, [x29, #206]
   878d0:	7100001f 	cmp	w0, #0x0
   878d4:	540000c0 	b.eq	878ec <createCEcoVFB1_AF252188+0xdc>  // b.none
   878d8:	f94053a0 	ldr	x0, [x29, #160]
   878dc:	f100001f 	cmp	x0, #0x0
   878e0:	54000061 	b.ne	878ec <createCEcoVFB1_AF252188+0xdc>  // b.any
   878e4:	79c19fa0 	ldrsh	w0, [x29, #206]
   878e8:	140000d5 	b	87c3c <createCEcoVFB1_AF252188+0x42c>
   878ec:	f94053a0 	ldr	x0, [x29, #160]
   878f0:	f9400000 	ldr	x0, [x0]
   878f4:	f9400003 	ldr	x3, [x0]
   878f8:	f94053a4 	ldr	x4, [x29, #160]
   878fc:	910263a1 	add	x1, x29, #0x98
   87900:	f0000420 	adrp	x0, 10e000 <ECO_CGI_1_PIXEL_VALIDITY_FLAG_e>
   87904:	911be000 	add	x0, x0, #0x6f8
   87908:	aa0103e2 	mov	x2, x1
   8790c:	aa0003e1 	mov	x1, x0
   87910:	aa0403e0 	mov	x0, x4
   87914:	d63f0060 	blr	x3
   87918:	79019fa0 	strh	w0, [x29, #206]
   8791c:	90000040 	adrp	x0, 8f000 <g_x939B1DCDB6404F7D9C072291AF252188Factory+0xa0>
   87920:	9103c000 	add	x0, x0, #0xf0
   87924:	f9005ba0 	str	x0, [x29, #176]
   87928:	f9405ba0 	ldr	x0, [x29, #176]
   8792c:	b9401000 	ldr	w0, [x0, #16]
   87930:	7100001f 	cmp	w0, #0x0
   87934:	540017c1 	b.ne	87c2c <createCEcoVFB1_AF252188+0x41c>  // b.any
   87938:	f9405ba0 	ldr	x0, [x29, #176]
   8793c:	52800021 	mov	w1, #0x1                   	// #1
   87940:	b9001001 	str	w1, [x0, #16]
   87944:	f9404fa0 	ldr	x0, [x29, #152]
   87948:	f9400000 	ldr	x0, [x0]
   8794c:	f9401c05 	ldr	x5, [x0, #56]
   87950:	f9404fa6 	ldr	x6, [x29, #152]
   87954:	f9405ba0 	ldr	x0, [x29, #176]
   87958:	9100a002 	add	x2, x0, #0x28
   8795c:	f0000420 	adrp	x0, 10e000 <ECO_CGI_1_PIXEL_VALIDITY_FLAG_e>
   87960:	911e8001 	add	x1, x0, #0x7a0
   87964:	f0000420 	adrp	x0, 10e000 <ECO_CGI_1_PIXEL_VALIDITY_FLAG_e>
   87968:	911ee000 	add	x0, x0, #0x7b8
   8796c:	aa0203e4 	mov	x4, x2
   87970:	aa0103e3 	mov	x3, x1
   87974:	d2800002 	mov	x2, #0x0                   	// #0
   87978:	aa0003e1 	mov	x1, x0
   8797c:	aa0603e0 	mov	x0, x6
   87980:	d63f00a0 	blr	x5
   87984:	79019fa0 	strh	w0, [x29, #206]
   87988:	79c19fa0 	ldrsh	w0, [x29, #206]
   8798c:	7100001f 	cmp	w0, #0x0
   87990:	540000e0 	b.eq	879ac <createCEcoVFB1_AF252188+0x19c>  // b.none
   87994:	f9405ba0 	ldr	x0, [x29, #176]
   87998:	f9401400 	ldr	x0, [x0, #40]
   8799c:	f100001f 	cmp	x0, #0x0
   879a0:	54000061 	b.ne	879ac <createCEcoVFB1_AF252188+0x19c>  // b.any
   879a4:	79c19fa0 	ldrsh	w0, [x29, #206]
   879a8:	140000a5 	b	87c3c <createCEcoVFB1_AF252188+0x42c>
   879ac:	f9405ba0 	ldr	x0, [x29, #176]
   879b0:	f9401400 	ldr	x0, [x0, #40]
   879b4:	f9400000 	ldr	x0, [x0]
   879b8:	f9401c08 	ldr	x8, [x0, #56]
   879bc:	f9405ba0 	ldr	x0, [x29, #176]
   879c0:	f9401400 	ldr	x0, [x0, #40]
   879c4:	9100e3a1 	add	x1, x29, #0x38
   879c8:	b90003ff 	str	wzr, [sp]
   879cc:	52800007 	mov	w7, #0x0                   	// #0
   879d0:	52800006 	mov	w6, #0x0                   	// #0
   879d4:	52800105 	mov	w5, #0x8                   	// #8
   879d8:	52800064 	mov	w4, #0x3                   	// #3
   879dc:	72a00084 	movk	w4, #0x4, lsl #16
   879e0:	528000a3 	mov	w3, #0x5                   	// #5
   879e4:	aa0103e2 	mov	x2, x1
   879e8:	52800101 	mov	w1, #0x8                   	// #8
   879ec:	d63f0100 	blr	x8
   879f0:	13003c00 	sxth	w0, w0
   879f4:	3100041f 	cmn	w0, #0x1
   879f8:	540000e0 	b.eq	87a14 <createCEcoVFB1_AF252188+0x204>  // b.none
   879fc:	b94047a1 	ldr	w1, [x29, #68]
   87a00:	f9405ba0 	ldr	x0, [x29, #176]
   87a04:	b9003801 	str	w1, [x0, #56]
   87a08:	b9404ba1 	ldr	w1, [x29, #72]
   87a0c:	f9405ba0 	ldr	x0, [x29, #176]
   87a10:	b9003c01 	str	w1, [x0, #60]
   87a14:	f9405ba0 	ldr	x0, [x29, #176]
   87a18:	f9401400 	ldr	x0, [x0, #40]
   87a1c:	f9400000 	ldr	x0, [x0]
   87a20:	f9401c08 	ldr	x8, [x0, #56]
   87a24:	f9405ba0 	ldr	x0, [x29, #176]
   87a28:	f9401400 	ldr	x0, [x0, #40]
   87a2c:	9100e3a1 	add	x1, x29, #0x38
   87a30:	52800007 	mov	w7, #0x0                   	// #0
   87a34:	52800086 	mov	w6, #0x4                   	// #4
   87a38:	52800085 	mov	w5, #0x4                   	// #4
   87a3c:	528000a4 	mov	w4, #0x5                   	// #5
   87a40:	72a00084 	movk	w4, #0x4, lsl #16
   87a44:	52800083 	mov	w3, #0x4                   	// #4
   87a48:	aa0103e2 	mov	x2, x1
   87a4c:	52800101 	mov	w1, #0x8                   	// #8
   87a50:	d63f0100 	blr	x8
   87a54:	13003c00 	sxth	w0, w0
   87a58:	3100041f 	cmn	w0, #0x1
   87a5c:	54000080 	b.eq	87a6c <createCEcoVFB1_AF252188+0x25c>  // b.none
   87a60:	b94047a1 	ldr	w1, [x29, #68]
   87a64:	f9405ba0 	ldr	x0, [x29, #176]
   87a68:	b9004001 	str	w1, [x0, #64]
   87a6c:	f9405ba0 	ldr	x0, [x29, #176]
   87a70:	f9401400 	ldr	x0, [x0, #40]
   87a74:	f9400000 	ldr	x0, [x0]
   87a78:	f9401c08 	ldr	x8, [x0, #56]
   87a7c:	f9405ba0 	ldr	x0, [x29, #176]
   87a80:	f9401409 	ldr	x9, [x0, #40]
   87a84:	f9405ba0 	ldr	x0, [x29, #176]
   87a88:	b9403805 	ldr	w5, [x0, #56]
   87a8c:	f9405ba0 	ldr	x0, [x29, #176]
   87a90:	b9403c00 	ldr	w0, [x0, #60]
   87a94:	f9405ba1 	ldr	x1, [x29, #176]
   87a98:	b9403821 	ldr	w1, [x1, #56]
   87a9c:	f9405ba2 	ldr	x2, [x29, #176]
   87aa0:	b9403c42 	ldr	w2, [x2, #60]
   87aa4:	f9405ba3 	ldr	x3, [x29, #176]
   87aa8:	b9404063 	ldr	w3, [x3, #64]
   87aac:	9100e3aa 	add	x10, x29, #0x38
   87ab0:	b90093ff 	str	wzr, [sp, #144]
   87ab4:	b9008bff 	str	wzr, [sp, #136]
   87ab8:	52800084 	mov	w4, #0x4                   	// #4
   87abc:	b90083e4 	str	w4, [sp, #128]
   87ac0:	52800104 	mov	w4, #0x8                   	// #8
   87ac4:	72a00084 	movk	w4, #0x4, lsl #16
   87ac8:	b9007be4 	str	w4, [sp, #120]
   87acc:	b90073ff 	str	wzr, [sp, #112]
   87ad0:	52800204 	mov	w4, #0x10                  	// #16
   87ad4:	b9006be4 	str	w4, [sp, #104]
   87ad8:	52800084 	mov	w4, #0x4                   	// #4
   87adc:	b90063e4 	str	w4, [sp, #96]
   87ae0:	52800104 	mov	w4, #0x8                   	// #8
   87ae4:	b9005be4 	str	w4, [sp, #88]
   87ae8:	52800024 	mov	w4, #0x1                   	// #1
   87aec:	72a00084 	movk	w4, #0x4, lsl #16
   87af0:	b90053e4 	str	w4, [sp, #80]
   87af4:	b9004be3 	str	w3, [sp, #72]
   87af8:	52800083 	mov	w3, #0x4                   	// #4
   87afc:	b90043e3 	str	w3, [sp, #64]
   87b00:	52800083 	mov	w3, #0x4                   	// #4
   87b04:	b9003be3 	str	w3, [sp, #56]
   87b08:	529000a3 	mov	w3, #0x8005                	// #32773
   87b0c:	72a00083 	movk	w3, #0x4, lsl #16
   87b10:	b90033e3 	str	w3, [sp, #48]
   87b14:	b9002be2 	str	w2, [sp, #40]
   87b18:	b90023e1 	str	w1, [sp, #32]
   87b1c:	52800101 	mov	w1, #0x8                   	// #8
   87b20:	b9001be1 	str	w1, [sp, #24]
   87b24:	52800101 	mov	w1, #0x8                   	// #8
   87b28:	b90013e1 	str	w1, [sp, #16]
   87b2c:	52900081 	mov	w1, #0x8004                	// #32772
   87b30:	72a00081 	movk	w1, #0x4, lsl #16
   87b34:	b9000be1 	str	w1, [sp, #8]
   87b38:	b90003e0 	str	w0, [sp]
   87b3c:	2a0503e7 	mov	w7, w5
   87b40:	52800106 	mov	w6, #0x8                   	// #8
   87b44:	52800105 	mov	w5, #0x8                   	// #8
   87b48:	52900064 	mov	w4, #0x8003                	// #32771
   87b4c:	72a00084 	movk	w4, #0x4, lsl #16
   87b50:	528002e3 	mov	w3, #0x17                  	// #23
   87b54:	aa0a03e2 	mov	x2, x10
   87b58:	52800101 	mov	w1, #0x8                   	// #8
   87b5c:	aa0903e0 	mov	x0, x9
   87b60:	d63f0100 	blr	x8
   87b64:	b9407fa0 	ldr	w0, [x29, #124]
   87b68:	2a0003e0 	mov	w0, w0
   87b6c:	aa0003e1 	mov	x1, x0
   87b70:	f9405ba0 	ldr	x0, [x29, #176]
   87b74:	f9001801 	str	x1, [x0, #48]
   87b78:	b94093a1 	ldr	w1, [x29, #144]
   87b7c:	f9405ba0 	ldr	x0, [x29, #176]
   87b80:	b9004401 	str	w1, [x0, #68]
   87b84:	f9405ba0 	ldr	x0, [x29, #176]
   87b88:	b9404000 	ldr	w0, [x0, #64]
   87b8c:	7100801f 	cmp	w0, #0x20
   87b90:	54000141 	b.ne	87bb8 <createCEcoVFB1_AF252188+0x3a8>  // b.any
   87b94:	f9405ba0 	ldr	x0, [x29, #176]
   87b98:	b9404400 	ldr	w0, [x0, #68]
   87b9c:	53027c01 	lsr	w1, w0, #2
   87ba0:	f9405ba0 	ldr	x0, [x29, #176]
   87ba4:	b9004401 	str	w1, [x0, #68]
   87ba8:	f9405ba0 	ldr	x0, [x29, #176]
   87bac:	52800081 	mov	w1, #0x4                   	// #4
   87bb0:	b9004801 	str	w1, [x0, #72]
   87bb4:	1400001e 	b	87c2c <createCEcoVFB1_AF252188+0x41c>
   87bb8:	f9405ba0 	ldr	x0, [x29, #176]
   87bbc:	b9404000 	ldr	w0, [x0, #64]
   87bc0:	7100601f 	cmp	w0, #0x18
   87bc4:	540001c1 	b.ne	87bfc <createCEcoVFB1_AF252188+0x3ec>  // b.any
   87bc8:	f9405ba0 	ldr	x0, [x29, #176]
   87bcc:	b9404401 	ldr	w1, [x0, #68]
   87bd0:	52955560 	mov	w0, #0xaaab                	// #43691
   87bd4:	72b55540 	movk	w0, #0xaaaa, lsl #16
   87bd8:	9ba07c20 	umull	x0, w1, w0
   87bdc:	d360fc00 	lsr	x0, x0, #32
   87be0:	53017c01 	lsr	w1, w0, #1
   87be4:	f9405ba0 	ldr	x0, [x29, #176]
   87be8:	b9004401 	str	w1, [x0, #68]
   87bec:	f9405ba0 	ldr	x0, [x29, #176]
   87bf0:	52800061 	mov	w1, #0x3                   	// #3
   87bf4:	b9004801 	str	w1, [x0, #72]
   87bf8:	1400000d 	b	87c2c <createCEcoVFB1_AF252188+0x41c>
   87bfc:	f9405ba0 	ldr	x0, [x29, #176]
   87c00:	b9404000 	ldr	w0, [x0, #64]
   87c04:	7100401f 	cmp	w0, #0x10
   87c08:	54000121 	b.ne	87c2c <createCEcoVFB1_AF252188+0x41c>  // b.any
   87c0c:	f9405ba0 	ldr	x0, [x29, #176]
   87c10:	b9404400 	ldr	w0, [x0, #68]
   87c14:	53017c01 	lsr	w1, w0, #1
   87c18:	f9405ba0 	ldr	x0, [x29, #176]
   87c1c:	b9004401 	str	w1, [x0, #68]
   87c20:	f9405ba0 	ldr	x0, [x29, #176]
   87c24:	52800041 	mov	w1, #0x2                   	// #2
   87c28:	b9004801 	str	w1, [x0, #72]
   87c2c:	f9400fa0 	ldr	x0, [x29, #24]
   87c30:	f9405ba1 	ldr	x1, [x29, #176]
   87c34:	f9000001 	str	x1, [x0]
   87c38:	52800000 	mov	w0, #0x0                   	// #0
   87c3c:	a94a7bfd 	ldp	x29, x30, [sp, #160]
   87c40:	9105c3ff 	add	sp, sp, #0x170
   87c44:	d65f03c0 	ret

0000000000087c48 <deleteCEcoVFB1_AF252188>:
   87c48:	d10083ff 	sub	sp, sp, #0x20
   87c4c:	f90007e0 	str	x0, [sp, #8]
   87c50:	f94007e0 	ldr	x0, [sp, #8]
   87c54:	f9000fe0 	str	x0, [sp, #24]
   87c58:	f9000bff 	str	xzr, [sp, #16]
   87c5c:	d503201f 	nop
   87c60:	910083ff 	add	sp, sp, #0x20
   87c64:	d65f03c0 	ret

0000000000087c68 <CEcoVFB1VirtualDevice_AF252188_QueryInterface>:
   87c68:	a9bc7bfd 	stp	x29, x30, [sp, #-64]!
   87c6c:	910003fd 	mov	x29, sp
   87c70:	f90017a0 	str	x0, [x29, #40]
   87c74:	f90013a1 	str	x1, [x29, #32]
   87c78:	f9000fa2 	str	x2, [x29, #24]
   87c7c:	f94017a0 	ldr	x0, [x29, #40]
   87c80:	f9001fa0 	str	x0, [x29, #56]
   87c84:	12800000 	mov	w0, #0xffffffff            	// #-1
   87c88:	79006fa0 	strh	w0, [x29, #54]
   87c8c:	f94017a0 	ldr	x0, [x29, #40]
   87c90:	f100001f 	cmp	x0, #0x0
   87c94:	54000080 	b.eq	87ca4 <CEcoVFB1VirtualDevice_AF252188_QueryInterface+0x3c>  // b.none
   87c98:	f9400fa0 	ldr	x0, [x29, #24]
   87c9c:	f100001f 	cmp	x0, #0x0
   87ca0:	54000061 	b.ne	87cac <CEcoVFB1VirtualDevice_AF252188_QueryInterface+0x44>  // b.any
   87ca4:	79c06fa0 	ldrsh	w0, [x29, #54]
   87ca8:	140001cf 	b	883e4 <CEcoVFB1VirtualDevice_AF252188_QueryInterface+0x77c>
   87cac:	f94013a0 	ldr	x0, [x29, #32]
   87cb0:	39400001 	ldrb	w1, [x0]
   87cb4:	90000440 	adrp	x0, 10f000 <BitFont+0x788>
   87cb8:	91262000 	add	x0, x0, #0x988
   87cbc:	39400000 	ldrb	w0, [x0]
   87cc0:	6b00003f 	cmp	w1, w0
   87cc4:	54001241 	b.ne	87f0c <CEcoVFB1VirtualDevice_AF252188_QueryInterface+0x2a4>  // b.any
   87cc8:	f94013a0 	ldr	x0, [x29, #32]
   87ccc:	91000400 	add	x0, x0, #0x1
   87cd0:	39400001 	ldrb	w1, [x0]
   87cd4:	90000440 	adrp	x0, 10f000 <BitFont+0x788>
   87cd8:	91262400 	add	x0, x0, #0x989
   87cdc:	39400000 	ldrb	w0, [x0]
   87ce0:	6b00003f 	cmp	w1, w0
   87ce4:	54001141 	b.ne	87f0c <CEcoVFB1VirtualDevice_AF252188_QueryInterface+0x2a4>  // b.any
   87ce8:	f94013a0 	ldr	x0, [x29, #32]
   87cec:	91000800 	add	x0, x0, #0x2
   87cf0:	39400001 	ldrb	w1, [x0]
   87cf4:	90000440 	adrp	x0, 10f000 <BitFont+0x788>
   87cf8:	91262800 	add	x0, x0, #0x98a
   87cfc:	39400000 	ldrb	w0, [x0]
   87d00:	6b00003f 	cmp	w1, w0
   87d04:	54001041 	b.ne	87f0c <CEcoVFB1VirtualDevice_AF252188_QueryInterface+0x2a4>  // b.any
   87d08:	f94013a0 	ldr	x0, [x29, #32]
   87d0c:	91000c00 	add	x0, x0, #0x3
   87d10:	39400001 	ldrb	w1, [x0]
   87d14:	90000440 	adrp	x0, 10f000 <BitFont+0x788>
   87d18:	91262c00 	add	x0, x0, #0x98b
   87d1c:	39400000 	ldrb	w0, [x0]
   87d20:	6b00003f 	cmp	w1, w0
   87d24:	54000f41 	b.ne	87f0c <CEcoVFB1VirtualDevice_AF252188_QueryInterface+0x2a4>  // b.any
   87d28:	f94013a0 	ldr	x0, [x29, #32]
   87d2c:	91001000 	add	x0, x0, #0x4
   87d30:	39400001 	ldrb	w1, [x0]
   87d34:	90000440 	adrp	x0, 10f000 <BitFont+0x788>
   87d38:	91263000 	add	x0, x0, #0x98c
   87d3c:	39400000 	ldrb	w0, [x0]
   87d40:	6b00003f 	cmp	w1, w0
   87d44:	54000e41 	b.ne	87f0c <CEcoVFB1VirtualDevice_AF252188_QueryInterface+0x2a4>  // b.any
   87d48:	f94013a0 	ldr	x0, [x29, #32]
   87d4c:	91001400 	add	x0, x0, #0x5
   87d50:	39400001 	ldrb	w1, [x0]
   87d54:	90000440 	adrp	x0, 10f000 <BitFont+0x788>
   87d58:	91263400 	add	x0, x0, #0x98d
   87d5c:	39400000 	ldrb	w0, [x0]
   87d60:	6b00003f 	cmp	w1, w0
   87d64:	54000d41 	b.ne	87f0c <CEcoVFB1VirtualDevice_AF252188_QueryInterface+0x2a4>  // b.any
   87d68:	f94013a0 	ldr	x0, [x29, #32]
   87d6c:	91001800 	add	x0, x0, #0x6
   87d70:	39400001 	ldrb	w1, [x0]
   87d74:	90000440 	adrp	x0, 10f000 <BitFont+0x788>
   87d78:	91263800 	add	x0, x0, #0x98e
   87d7c:	39400000 	ldrb	w0, [x0]
   87d80:	6b00003f 	cmp	w1, w0
   87d84:	54000c41 	b.ne	87f0c <CEcoVFB1VirtualDevice_AF252188_QueryInterface+0x2a4>  // b.any
   87d88:	f94013a0 	ldr	x0, [x29, #32]
   87d8c:	91001c00 	add	x0, x0, #0x7
   87d90:	39400001 	ldrb	w1, [x0]
   87d94:	90000440 	adrp	x0, 10f000 <BitFont+0x788>
   87d98:	91263c00 	add	x0, x0, #0x98f
   87d9c:	39400000 	ldrb	w0, [x0]
   87da0:	6b00003f 	cmp	w1, w0
   87da4:	54000b41 	b.ne	87f0c <CEcoVFB1VirtualDevice_AF252188_QueryInterface+0x2a4>  // b.any
   87da8:	f94013a0 	ldr	x0, [x29, #32]
   87dac:	91002000 	add	x0, x0, #0x8
   87db0:	39400001 	ldrb	w1, [x0]
   87db4:	90000440 	adrp	x0, 10f000 <BitFont+0x788>
   87db8:	91264000 	add	x0, x0, #0x990
   87dbc:	39400000 	ldrb	w0, [x0]
   87dc0:	6b00003f 	cmp	w1, w0
   87dc4:	54000a41 	b.ne	87f0c <CEcoVFB1VirtualDevice_AF252188_QueryInterface+0x2a4>  // b.any
   87dc8:	f94013a0 	ldr	x0, [x29, #32]
   87dcc:	91002400 	add	x0, x0, #0x9
   87dd0:	39400001 	ldrb	w1, [x0]
   87dd4:	90000440 	adrp	x0, 10f000 <BitFont+0x788>
   87dd8:	91264400 	add	x0, x0, #0x991
   87ddc:	39400000 	ldrb	w0, [x0]
   87de0:	6b00003f 	cmp	w1, w0
   87de4:	54000941 	b.ne	87f0c <CEcoVFB1VirtualDevice_AF252188_QueryInterface+0x2a4>  // b.any
   87de8:	f94013a0 	ldr	x0, [x29, #32]
   87dec:	91002800 	add	x0, x0, #0xa
   87df0:	39400001 	ldrb	w1, [x0]
   87df4:	90000440 	adrp	x0, 10f000 <BitFont+0x788>
   87df8:	91264800 	add	x0, x0, #0x992
   87dfc:	39400000 	ldrb	w0, [x0]
   87e00:	6b00003f 	cmp	w1, w0
   87e04:	54000841 	b.ne	87f0c <CEcoVFB1VirtualDevice_AF252188_QueryInterface+0x2a4>  // b.any
   87e08:	f94013a0 	ldr	x0, [x29, #32]
   87e0c:	91002c00 	add	x0, x0, #0xb
   87e10:	39400001 	ldrb	w1, [x0]
   87e14:	90000440 	adrp	x0, 10f000 <BitFont+0x788>
   87e18:	91264c00 	add	x0, x0, #0x993
   87e1c:	39400000 	ldrb	w0, [x0]
   87e20:	6b00003f 	cmp	w1, w0
   87e24:	54000741 	b.ne	87f0c <CEcoVFB1VirtualDevice_AF252188_QueryInterface+0x2a4>  // b.any
   87e28:	f94013a0 	ldr	x0, [x29, #32]
   87e2c:	91003000 	add	x0, x0, #0xc
   87e30:	39400001 	ldrb	w1, [x0]
   87e34:	90000440 	adrp	x0, 10f000 <BitFont+0x788>
   87e38:	91265000 	add	x0, x0, #0x994
   87e3c:	39400000 	ldrb	w0, [x0]
   87e40:	6b00003f 	cmp	w1, w0
   87e44:	54000641 	b.ne	87f0c <CEcoVFB1VirtualDevice_AF252188_QueryInterface+0x2a4>  // b.any
   87e48:	f94013a0 	ldr	x0, [x29, #32]
   87e4c:	91003400 	add	x0, x0, #0xd
   87e50:	39400001 	ldrb	w1, [x0]
   87e54:	90000440 	adrp	x0, 10f000 <BitFont+0x788>
   87e58:	91265400 	add	x0, x0, #0x995
   87e5c:	39400000 	ldrb	w0, [x0]
   87e60:	6b00003f 	cmp	w1, w0
   87e64:	54000541 	b.ne	87f0c <CEcoVFB1VirtualDevice_AF252188_QueryInterface+0x2a4>  // b.any
   87e68:	f94013a0 	ldr	x0, [x29, #32]
   87e6c:	91003800 	add	x0, x0, #0xe
   87e70:	39400001 	ldrb	w1, [x0]
   87e74:	90000440 	adrp	x0, 10f000 <BitFont+0x788>
   87e78:	91265800 	add	x0, x0, #0x996
   87e7c:	39400000 	ldrb	w0, [x0]
   87e80:	6b00003f 	cmp	w1, w0
   87e84:	54000441 	b.ne	87f0c <CEcoVFB1VirtualDevice_AF252188_QueryInterface+0x2a4>  // b.any
   87e88:	f94013a0 	ldr	x0, [x29, #32]
   87e8c:	91003c00 	add	x0, x0, #0xf
   87e90:	39400001 	ldrb	w1, [x0]
   87e94:	90000440 	adrp	x0, 10f000 <BitFont+0x788>
   87e98:	91265c00 	add	x0, x0, #0x997
   87e9c:	39400000 	ldrb	w0, [x0]
   87ea0:	6b00003f 	cmp	w1, w0
   87ea4:	54000341 	b.ne	87f0c <CEcoVFB1VirtualDevice_AF252188_QueryInterface+0x2a4>  // b.any
   87ea8:	f94013a0 	ldr	x0, [x29, #32]
   87eac:	91004000 	add	x0, x0, #0x10
   87eb0:	39400001 	ldrb	w1, [x0]
   87eb4:	90000440 	adrp	x0, 10f000 <BitFont+0x788>
   87eb8:	91266000 	add	x0, x0, #0x998
   87ebc:	39400000 	ldrb	w0, [x0]
   87ec0:	6b00003f 	cmp	w1, w0
   87ec4:	54000241 	b.ne	87f0c <CEcoVFB1VirtualDevice_AF252188_QueryInterface+0x2a4>  // b.any
   87ec8:	f94013a0 	ldr	x0, [x29, #32]
   87ecc:	91004400 	add	x0, x0, #0x11
   87ed0:	39400001 	ldrb	w1, [x0]
   87ed4:	90000440 	adrp	x0, 10f000 <BitFont+0x788>
   87ed8:	91266400 	add	x0, x0, #0x999
   87edc:	39400000 	ldrb	w0, [x0]
   87ee0:	6b00003f 	cmp	w1, w0
   87ee4:	54000141 	b.ne	87f0c <CEcoVFB1VirtualDevice_AF252188_QueryInterface+0x2a4>  // b.any
   87ee8:	f9401fa1 	ldr	x1, [x29, #56]
   87eec:	f9400fa0 	ldr	x0, [x29, #24]
   87ef0:	f9000001 	str	x1, [x0]
   87ef4:	f9401fa0 	ldr	x0, [x29, #56]
   87ef8:	f9400000 	ldr	x0, [x0]
   87efc:	f9400401 	ldr	x1, [x0, #8]
   87f00:	f9401fa0 	ldr	x0, [x29, #56]
   87f04:	d63f0020 	blr	x1
   87f08:	14000136 	b	883e0 <CEcoVFB1VirtualDevice_AF252188_QueryInterface+0x778>
   87f0c:	f94013a0 	ldr	x0, [x29, #32]
   87f10:	39400001 	ldrb	w1, [x0]
   87f14:	90000440 	adrp	x0, 10f000 <BitFont+0x788>
   87f18:	91268000 	add	x0, x0, #0x9a0
   87f1c:	39400000 	ldrb	w0, [x0]
   87f20:	6b00003f 	cmp	w1, w0
   87f24:	54001261 	b.ne	88170 <CEcoVFB1VirtualDevice_AF252188_QueryInterface+0x508>  // b.any
   87f28:	f94013a0 	ldr	x0, [x29, #32]
   87f2c:	91000400 	add	x0, x0, #0x1
   87f30:	39400001 	ldrb	w1, [x0]
   87f34:	90000440 	adrp	x0, 10f000 <BitFont+0x788>
   87f38:	91268400 	add	x0, x0, #0x9a1
   87f3c:	39400000 	ldrb	w0, [x0]
   87f40:	6b00003f 	cmp	w1, w0
   87f44:	54001161 	b.ne	88170 <CEcoVFB1VirtualDevice_AF252188_QueryInterface+0x508>  // b.any
   87f48:	f94013a0 	ldr	x0, [x29, #32]
   87f4c:	91000800 	add	x0, x0, #0x2
   87f50:	39400001 	ldrb	w1, [x0]
   87f54:	90000440 	adrp	x0, 10f000 <BitFont+0x788>
   87f58:	91268800 	add	x0, x0, #0x9a2
   87f5c:	39400000 	ldrb	w0, [x0]
   87f60:	6b00003f 	cmp	w1, w0
   87f64:	54001061 	b.ne	88170 <CEcoVFB1VirtualDevice_AF252188_QueryInterface+0x508>  // b.any
   87f68:	f94013a0 	ldr	x0, [x29, #32]
   87f6c:	91000c00 	add	x0, x0, #0x3
   87f70:	39400001 	ldrb	w1, [x0]
   87f74:	90000440 	adrp	x0, 10f000 <BitFont+0x788>
   87f78:	91268c00 	add	x0, x0, #0x9a3
   87f7c:	39400000 	ldrb	w0, [x0]
   87f80:	6b00003f 	cmp	w1, w0
   87f84:	54000f61 	b.ne	88170 <CEcoVFB1VirtualDevice_AF252188_QueryInterface+0x508>  // b.any
   87f88:	f94013a0 	ldr	x0, [x29, #32]
   87f8c:	91001000 	add	x0, x0, #0x4
   87f90:	39400001 	ldrb	w1, [x0]
   87f94:	90000440 	adrp	x0, 10f000 <BitFont+0x788>
   87f98:	91269000 	add	x0, x0, #0x9a4
   87f9c:	39400000 	ldrb	w0, [x0]
   87fa0:	6b00003f 	cmp	w1, w0
   87fa4:	54000e61 	b.ne	88170 <CEcoVFB1VirtualDevice_AF252188_QueryInterface+0x508>  // b.any
   87fa8:	f94013a0 	ldr	x0, [x29, #32]
   87fac:	91001400 	add	x0, x0, #0x5
   87fb0:	39400001 	ldrb	w1, [x0]
   87fb4:	90000440 	adrp	x0, 10f000 <BitFont+0x788>
   87fb8:	91269400 	add	x0, x0, #0x9a5
   87fbc:	39400000 	ldrb	w0, [x0]
   87fc0:	6b00003f 	cmp	w1, w0
   87fc4:	54000d61 	b.ne	88170 <CEcoVFB1VirtualDevice_AF252188_QueryInterface+0x508>  // b.any
   87fc8:	f94013a0 	ldr	x0, [x29, #32]
   87fcc:	91001800 	add	x0, x0, #0x6
   87fd0:	39400001 	ldrb	w1, [x0]
   87fd4:	90000440 	adrp	x0, 10f000 <BitFont+0x788>
   87fd8:	91269800 	add	x0, x0, #0x9a6
   87fdc:	39400000 	ldrb	w0, [x0]
   87fe0:	6b00003f 	cmp	w1, w0
   87fe4:	54000c61 	b.ne	88170 <CEcoVFB1VirtualDevice_AF252188_QueryInterface+0x508>  // b.any
   87fe8:	f94013a0 	ldr	x0, [x29, #32]
   87fec:	91001c00 	add	x0, x0, #0x7
   87ff0:	39400001 	ldrb	w1, [x0]
   87ff4:	90000440 	adrp	x0, 10f000 <BitFont+0x788>
   87ff8:	91269c00 	add	x0, x0, #0x9a7
   87ffc:	39400000 	ldrb	w0, [x0]
   88000:	6b00003f 	cmp	w1, w0
   88004:	54000b61 	b.ne	88170 <CEcoVFB1VirtualDevice_AF252188_QueryInterface+0x508>  // b.any
   88008:	f94013a0 	ldr	x0, [x29, #32]
   8800c:	91002000 	add	x0, x0, #0x8
   88010:	39400001 	ldrb	w1, [x0]
   88014:	f0000420 	adrp	x0, 10f000 <BitFont+0x788>
   88018:	9126a000 	add	x0, x0, #0x9a8
   8801c:	39400000 	ldrb	w0, [x0]
   88020:	6b00003f 	cmp	w1, w0
   88024:	54000a61 	b.ne	88170 <CEcoVFB1VirtualDevice_AF252188_QueryInterface+0x508>  // b.any
   88028:	f94013a0 	ldr	x0, [x29, #32]
   8802c:	91002400 	add	x0, x0, #0x9
   88030:	39400001 	ldrb	w1, [x0]
   88034:	f0000420 	adrp	x0, 10f000 <BitFont+0x788>
   88038:	9126a400 	add	x0, x0, #0x9a9
   8803c:	39400000 	ldrb	w0, [x0]
   88040:	6b00003f 	cmp	w1, w0
   88044:	54000961 	b.ne	88170 <CEcoVFB1VirtualDevice_AF252188_QueryInterface+0x508>  // b.any
   88048:	f94013a0 	ldr	x0, [x29, #32]
   8804c:	91002800 	add	x0, x0, #0xa
   88050:	39400001 	ldrb	w1, [x0]
   88054:	f0000420 	adrp	x0, 10f000 <BitFont+0x788>
   88058:	9126a800 	add	x0, x0, #0x9aa
   8805c:	39400000 	ldrb	w0, [x0]
   88060:	6b00003f 	cmp	w1, w0
   88064:	54000861 	b.ne	88170 <CEcoVFB1VirtualDevice_AF252188_QueryInterface+0x508>  // b.any
   88068:	f94013a0 	ldr	x0, [x29, #32]
   8806c:	91002c00 	add	x0, x0, #0xb
   88070:	39400001 	ldrb	w1, [x0]
   88074:	f0000420 	adrp	x0, 10f000 <BitFont+0x788>
   88078:	9126ac00 	add	x0, x0, #0x9ab
   8807c:	39400000 	ldrb	w0, [x0]
   88080:	6b00003f 	cmp	w1, w0
   88084:	54000761 	b.ne	88170 <CEcoVFB1VirtualDevice_AF252188_QueryInterface+0x508>  // b.any
   88088:	f94013a0 	ldr	x0, [x29, #32]
   8808c:	91003000 	add	x0, x0, #0xc
   88090:	39400001 	ldrb	w1, [x0]
   88094:	f0000420 	adrp	x0, 10f000 <BitFont+0x788>
   88098:	9126b000 	add	x0, x0, #0x9ac
   8809c:	39400000 	ldrb	w0, [x0]
   880a0:	6b00003f 	cmp	w1, w0
   880a4:	54000661 	b.ne	88170 <CEcoVFB1VirtualDevice_AF252188_QueryInterface+0x508>  // b.any
   880a8:	f94013a0 	ldr	x0, [x29, #32]
   880ac:	91003400 	add	x0, x0, #0xd
   880b0:	39400001 	ldrb	w1, [x0]
   880b4:	f0000420 	adrp	x0, 10f000 <BitFont+0x788>
   880b8:	9126b400 	add	x0, x0, #0x9ad
   880bc:	39400000 	ldrb	w0, [x0]
   880c0:	6b00003f 	cmp	w1, w0
   880c4:	54000561 	b.ne	88170 <CEcoVFB1VirtualDevice_AF252188_QueryInterface+0x508>  // b.any
   880c8:	f94013a0 	ldr	x0, [x29, #32]
   880cc:	91003800 	add	x0, x0, #0xe
   880d0:	39400001 	ldrb	w1, [x0]
   880d4:	f0000420 	adrp	x0, 10f000 <BitFont+0x788>
   880d8:	9126b800 	add	x0, x0, #0x9ae
   880dc:	39400000 	ldrb	w0, [x0]
   880e0:	6b00003f 	cmp	w1, w0
   880e4:	54000461 	b.ne	88170 <CEcoVFB1VirtualDevice_AF252188_QueryInterface+0x508>  // b.any
   880e8:	f94013a0 	ldr	x0, [x29, #32]
   880ec:	91003c00 	add	x0, x0, #0xf
   880f0:	39400001 	ldrb	w1, [x0]
   880f4:	f0000420 	adrp	x0, 10f000 <BitFont+0x788>
   880f8:	9126bc00 	add	x0, x0, #0x9af
   880fc:	39400000 	ldrb	w0, [x0]
   88100:	6b00003f 	cmp	w1, w0
   88104:	54000361 	b.ne	88170 <CEcoVFB1VirtualDevice_AF252188_QueryInterface+0x508>  // b.any
   88108:	f94013a0 	ldr	x0, [x29, #32]
   8810c:	91004000 	add	x0, x0, #0x10
   88110:	39400001 	ldrb	w1, [x0]
   88114:	f0000420 	adrp	x0, 10f000 <BitFont+0x788>
   88118:	9126c000 	add	x0, x0, #0x9b0
   8811c:	39400000 	ldrb	w0, [x0]
   88120:	6b00003f 	cmp	w1, w0
   88124:	54000261 	b.ne	88170 <CEcoVFB1VirtualDevice_AF252188_QueryInterface+0x508>  // b.any
   88128:	f94013a0 	ldr	x0, [x29, #32]
   8812c:	91004400 	add	x0, x0, #0x11
   88130:	39400001 	ldrb	w1, [x0]
   88134:	f0000420 	adrp	x0, 10f000 <BitFont+0x788>
   88138:	9126c400 	add	x0, x0, #0x9b1
   8813c:	39400000 	ldrb	w0, [x0]
   88140:	6b00003f 	cmp	w1, w0
   88144:	54000161 	b.ne	88170 <CEcoVFB1VirtualDevice_AF252188_QueryInterface+0x508>  // b.any
   88148:	f9401fa0 	ldr	x0, [x29, #56]
   8814c:	91002001 	add	x1, x0, #0x8
   88150:	f9400fa0 	ldr	x0, [x29, #24]
   88154:	f9000001 	str	x1, [x0]
   88158:	f9401fa0 	ldr	x0, [x29, #56]
   8815c:	f9400000 	ldr	x0, [x0]
   88160:	f9400401 	ldr	x1, [x0, #8]
   88164:	f9401fa0 	ldr	x0, [x29, #56]
   88168:	d63f0020 	blr	x1
   8816c:	1400009d 	b	883e0 <CEcoVFB1VirtualDevice_AF252188_QueryInterface+0x778>
   88170:	f94013a0 	ldr	x0, [x29, #32]
   88174:	39400001 	ldrb	w1, [x0]
   88178:	f0000420 	adrp	x0, 10f000 <BitFont+0x788>
   8817c:	91220000 	add	x0, x0, #0x880
   88180:	39400000 	ldrb	w0, [x0]
   88184:	6b00003f 	cmp	w1, w0
   88188:	54001241 	b.ne	883d0 <CEcoVFB1VirtualDevice_AF252188_QueryInterface+0x768>  // b.any
   8818c:	f94013a0 	ldr	x0, [x29, #32]
   88190:	91000400 	add	x0, x0, #0x1
   88194:	39400001 	ldrb	w1, [x0]
   88198:	f0000420 	adrp	x0, 10f000 <BitFont+0x788>
   8819c:	91220400 	add	x0, x0, #0x881
   881a0:	39400000 	ldrb	w0, [x0]
   881a4:	6b00003f 	cmp	w1, w0
   881a8:	54001141 	b.ne	883d0 <CEcoVFB1VirtualDevice_AF252188_QueryInterface+0x768>  // b.any
   881ac:	f94013a0 	ldr	x0, [x29, #32]
   881b0:	91000800 	add	x0, x0, #0x2
   881b4:	39400001 	ldrb	w1, [x0]
   881b8:	f0000420 	adrp	x0, 10f000 <BitFont+0x788>
   881bc:	91220800 	add	x0, x0, #0x882
   881c0:	39400000 	ldrb	w0, [x0]
   881c4:	6b00003f 	cmp	w1, w0
   881c8:	54001041 	b.ne	883d0 <CEcoVFB1VirtualDevice_AF252188_QueryInterface+0x768>  // b.any
   881cc:	f94013a0 	ldr	x0, [x29, #32]
   881d0:	91000c00 	add	x0, x0, #0x3
   881d4:	39400001 	ldrb	w1, [x0]
   881d8:	f0000420 	adrp	x0, 10f000 <BitFont+0x788>
   881dc:	91220c00 	add	x0, x0, #0x883
   881e0:	39400000 	ldrb	w0, [x0]
   881e4:	6b00003f 	cmp	w1, w0
   881e8:	54000f41 	b.ne	883d0 <CEcoVFB1VirtualDevice_AF252188_QueryInterface+0x768>  // b.any
   881ec:	f94013a0 	ldr	x0, [x29, #32]
   881f0:	91001000 	add	x0, x0, #0x4
   881f4:	39400001 	ldrb	w1, [x0]
   881f8:	f0000420 	adrp	x0, 10f000 <BitFont+0x788>
   881fc:	91221000 	add	x0, x0, #0x884
   88200:	39400000 	ldrb	w0, [x0]
   88204:	6b00003f 	cmp	w1, w0
   88208:	54000e41 	b.ne	883d0 <CEcoVFB1VirtualDevice_AF252188_QueryInterface+0x768>  // b.any
   8820c:	f94013a0 	ldr	x0, [x29, #32]
   88210:	91001400 	add	x0, x0, #0x5
   88214:	39400001 	ldrb	w1, [x0]
   88218:	f0000420 	adrp	x0, 10f000 <BitFont+0x788>
   8821c:	91221400 	add	x0, x0, #0x885
   88220:	39400000 	ldrb	w0, [x0]
   88224:	6b00003f 	cmp	w1, w0
   88228:	54000d41 	b.ne	883d0 <CEcoVFB1VirtualDevice_AF252188_QueryInterface+0x768>  // b.any
   8822c:	f94013a0 	ldr	x0, [x29, #32]
   88230:	91001800 	add	x0, x0, #0x6
   88234:	39400001 	ldrb	w1, [x0]
   88238:	f0000420 	adrp	x0, 10f000 <BitFont+0x788>
   8823c:	91221800 	add	x0, x0, #0x886
   88240:	39400000 	ldrb	w0, [x0]
   88244:	6b00003f 	cmp	w1, w0
   88248:	54000c41 	b.ne	883d0 <CEcoVFB1VirtualDevice_AF252188_QueryInterface+0x768>  // b.any
   8824c:	f94013a0 	ldr	x0, [x29, #32]
   88250:	91001c00 	add	x0, x0, #0x7
   88254:	39400001 	ldrb	w1, [x0]
   88258:	f0000420 	adrp	x0, 10f000 <BitFont+0x788>
   8825c:	91221c00 	add	x0, x0, #0x887
   88260:	39400000 	ldrb	w0, [x0]
   88264:	6b00003f 	cmp	w1, w0
   88268:	54000b41 	b.ne	883d0 <CEcoVFB1VirtualDevice_AF252188_QueryInterface+0x768>  // b.any
   8826c:	f94013a0 	ldr	x0, [x29, #32]
   88270:	91002000 	add	x0, x0, #0x8
   88274:	39400001 	ldrb	w1, [x0]
   88278:	f0000420 	adrp	x0, 10f000 <BitFont+0x788>
   8827c:	91222000 	add	x0, x0, #0x888
   88280:	39400000 	ldrb	w0, [x0]
   88284:	6b00003f 	cmp	w1, w0
   88288:	54000a41 	b.ne	883d0 <CEcoVFB1VirtualDevice_AF252188_QueryInterface+0x768>  // b.any
   8828c:	f94013a0 	ldr	x0, [x29, #32]
   88290:	91002400 	add	x0, x0, #0x9
   88294:	39400001 	ldrb	w1, [x0]
   88298:	f0000420 	adrp	x0, 10f000 <BitFont+0x788>
   8829c:	91222400 	add	x0, x0, #0x889
   882a0:	39400000 	ldrb	w0, [x0]
   882a4:	6b00003f 	cmp	w1, w0
   882a8:	54000941 	b.ne	883d0 <CEcoVFB1VirtualDevice_AF252188_QueryInterface+0x768>  // b.any
   882ac:	f94013a0 	ldr	x0, [x29, #32]
   882b0:	91002800 	add	x0, x0, #0xa
   882b4:	39400001 	ldrb	w1, [x0]
   882b8:	f0000420 	adrp	x0, 10f000 <BitFont+0x788>
   882bc:	91222800 	add	x0, x0, #0x88a
   882c0:	39400000 	ldrb	w0, [x0]
   882c4:	6b00003f 	cmp	w1, w0
   882c8:	54000841 	b.ne	883d0 <CEcoVFB1VirtualDevice_AF252188_QueryInterface+0x768>  // b.any
   882cc:	f94013a0 	ldr	x0, [x29, #32]
   882d0:	91002c00 	add	x0, x0, #0xb
   882d4:	39400001 	ldrb	w1, [x0]
   882d8:	f0000420 	adrp	x0, 10f000 <BitFont+0x788>
   882dc:	91222c00 	add	x0, x0, #0x88b
   882e0:	39400000 	ldrb	w0, [x0]
   882e4:	6b00003f 	cmp	w1, w0
   882e8:	54000741 	b.ne	883d0 <CEcoVFB1VirtualDevice_AF252188_QueryInterface+0x768>  // b.any
   882ec:	f94013a0 	ldr	x0, [x29, #32]
   882f0:	91003000 	add	x0, x0, #0xc
   882f4:	39400001 	ldrb	w1, [x0]
   882f8:	f0000420 	adrp	x0, 10f000 <BitFont+0x788>
   882fc:	91223000 	add	x0, x0, #0x88c
   88300:	39400000 	ldrb	w0, [x0]
   88304:	6b00003f 	cmp	w1, w0
   88308:	54000641 	b.ne	883d0 <CEcoVFB1VirtualDevice_AF252188_QueryInterface+0x768>  // b.any
   8830c:	f94013a0 	ldr	x0, [x29, #32]
   88310:	91003400 	add	x0, x0, #0xd
   88314:	39400001 	ldrb	w1, [x0]
   88318:	f0000420 	adrp	x0, 10f000 <BitFont+0x788>
   8831c:	91223400 	add	x0, x0, #0x88d
   88320:	39400000 	ldrb	w0, [x0]
   88324:	6b00003f 	cmp	w1, w0
   88328:	54000541 	b.ne	883d0 <CEcoVFB1VirtualDevice_AF252188_QueryInterface+0x768>  // b.any
   8832c:	f94013a0 	ldr	x0, [x29, #32]
   88330:	91003800 	add	x0, x0, #0xe
   88334:	39400001 	ldrb	w1, [x0]
   88338:	f0000420 	adrp	x0, 10f000 <BitFont+0x788>
   8833c:	91223800 	add	x0, x0, #0x88e
   88340:	39400000 	ldrb	w0, [x0]
   88344:	6b00003f 	cmp	w1, w0
   88348:	54000441 	b.ne	883d0 <CEcoVFB1VirtualDevice_AF252188_QueryInterface+0x768>  // b.any
   8834c:	f94013a0 	ldr	x0, [x29, #32]
   88350:	91003c00 	add	x0, x0, #0xf
   88354:	39400001 	ldrb	w1, [x0]
   88358:	f0000420 	adrp	x0, 10f000 <BitFont+0x788>
   8835c:	91223c00 	add	x0, x0, #0x88f
   88360:	39400000 	ldrb	w0, [x0]
   88364:	6b00003f 	cmp	w1, w0
   88368:	54000341 	b.ne	883d0 <CEcoVFB1VirtualDevice_AF252188_QueryInterface+0x768>  // b.any
   8836c:	f94013a0 	ldr	x0, [x29, #32]
   88370:	91004000 	add	x0, x0, #0x10
   88374:	39400001 	ldrb	w1, [x0]
   88378:	f0000420 	adrp	x0, 10f000 <BitFont+0x788>
   8837c:	91224000 	add	x0, x0, #0x890
   88380:	39400000 	ldrb	w0, [x0]
   88384:	6b00003f 	cmp	w1, w0
   88388:	54000241 	b.ne	883d0 <CEcoVFB1VirtualDevice_AF252188_QueryInterface+0x768>  // b.any
   8838c:	f94013a0 	ldr	x0, [x29, #32]
   88390:	91004400 	add	x0, x0, #0x11
   88394:	39400001 	ldrb	w1, [x0]
   88398:	f0000420 	adrp	x0, 10f000 <BitFont+0x788>
   8839c:	91224400 	add	x0, x0, #0x891
   883a0:	39400000 	ldrb	w0, [x0]
   883a4:	6b00003f 	cmp	w1, w0
   883a8:	54000141 	b.ne	883d0 <CEcoVFB1VirtualDevice_AF252188_QueryInterface+0x768>  // b.any
   883ac:	f9401fa1 	ldr	x1, [x29, #56]
   883b0:	f9400fa0 	ldr	x0, [x29, #24]
   883b4:	f9000001 	str	x1, [x0]
   883b8:	f9401fa0 	ldr	x0, [x29, #56]
   883bc:	f9400000 	ldr	x0, [x0]
   883c0:	f9400401 	ldr	x1, [x0, #8]
   883c4:	f9401fa0 	ldr	x0, [x29, #56]
   883c8:	d63f0020 	blr	x1
   883cc:	14000005 	b	883e0 <CEcoVFB1VirtualDevice_AF252188_QueryInterface+0x778>
   883d0:	f9400fa0 	ldr	x0, [x29, #24]
   883d4:	f900001f 	str	xzr, [x0]
   883d8:	12800000 	mov	w0, #0xffffffff            	// #-1
   883dc:	14000002 	b	883e4 <CEcoVFB1VirtualDevice_AF252188_QueryInterface+0x77c>
   883e0:	52800000 	mov	w0, #0x0                   	// #0
   883e4:	a8c47bfd 	ldp	x29, x30, [sp], #64
   883e8:	d65f03c0 	ret

00000000000883ec <CEcoVFB1VirtualDevice_AF252188_AddRef>:
   883ec:	d10083ff 	sub	sp, sp, #0x20
   883f0:	f90007e0 	str	x0, [sp, #8]
   883f4:	f94007e0 	ldr	x0, [sp, #8]
   883f8:	f9000fe0 	str	x0, [sp, #24]
   883fc:	f94007e0 	ldr	x0, [sp, #8]
   88400:	f100001f 	cmp	x0, #0x0
   88404:	54000061 	b.ne	88410 <CEcoVFB1VirtualDevice_AF252188_AddRef+0x24>  // b.any
   88408:	12800000 	mov	w0, #0xffffffff            	// #-1
   8840c:	14000008 	b	8842c <CEcoVFB1VirtualDevice_AF252188_AddRef+0x40>
   88410:	f9400fe0 	ldr	x0, [sp, #24]
   88414:	b9401000 	ldr	w0, [x0, #16]
   88418:	11000401 	add	w1, w0, #0x1
   8841c:	f9400fe0 	ldr	x0, [sp, #24]
   88420:	b9001001 	str	w1, [x0, #16]
   88424:	f9400fe0 	ldr	x0, [sp, #24]
   88428:	b9401000 	ldr	w0, [x0, #16]
   8842c:	910083ff 	add	sp, sp, #0x20
   88430:	d65f03c0 	ret

0000000000088434 <CEcoVFB1VirtualDevice_AF252188_Release>:
   88434:	a9bd7bfd 	stp	x29, x30, [sp, #-48]!
   88438:	910003fd 	mov	x29, sp
   8843c:	f9000fa0 	str	x0, [x29, #24]
   88440:	f9400fa0 	ldr	x0, [x29, #24]
   88444:	f90017a0 	str	x0, [x29, #40]
   88448:	f9400fa0 	ldr	x0, [x29, #24]
   8844c:	f100001f 	cmp	x0, #0x0
   88450:	54000061 	b.ne	8845c <CEcoVFB1VirtualDevice_AF252188_Release+0x28>  // b.any
   88454:	12800000 	mov	w0, #0xffffffff            	// #-1
   88458:	14000010 	b	88498 <CEcoVFB1VirtualDevice_AF252188_Release+0x64>
   8845c:	f94017a0 	ldr	x0, [x29, #40]
   88460:	b9401000 	ldr	w0, [x0, #16]
   88464:	51000401 	sub	w1, w0, #0x1
   88468:	f94017a0 	ldr	x0, [x29, #40]
   8846c:	b9001001 	str	w1, [x0, #16]
   88470:	f94017a0 	ldr	x0, [x29, #40]
   88474:	b9401000 	ldr	w0, [x0, #16]
   88478:	7100001f 	cmp	w0, #0x0
   8847c:	540000a1 	b.ne	88490 <CEcoVFB1VirtualDevice_AF252188_Release+0x5c>  // b.any
   88480:	f94017a0 	ldr	x0, [x29, #40]
   88484:	94000355 	bl	891d8 <deleteCEcoVFB1VirtualDevice_AF252188>
   88488:	52800000 	mov	w0, #0x0                   	// #0
   8848c:	14000003 	b	88498 <CEcoVFB1VirtualDevice_AF252188_Release+0x64>
   88490:	f94017a0 	ldr	x0, [x29, #40]
   88494:	b9401000 	ldr	w0, [x0, #16]
   88498:	a8c37bfd 	ldp	x29, x30, [sp], #48
   8849c:	d65f03c0 	ret

00000000000884a0 <CEcoVFB1VirtualDevice_AF252188_IEcoCGI1OneWayOutput_QueryInterface>:
   884a0:	a9bc7bfd 	stp	x29, x30, [sp, #-64]!
   884a4:	910003fd 	mov	x29, sp
   884a8:	f90017a0 	str	x0, [x29, #40]
   884ac:	f90013a1 	str	x1, [x29, #32]
   884b0:	f9000fa2 	str	x2, [x29, #24]
   884b4:	f94017a0 	ldr	x0, [x29, #40]
   884b8:	d1002000 	sub	x0, x0, #0x8
   884bc:	f9001fa0 	str	x0, [x29, #56]
   884c0:	12800000 	mov	w0, #0xffffffff            	// #-1
   884c4:	79006fa0 	strh	w0, [x29, #54]
   884c8:	f94017a0 	ldr	x0, [x29, #40]
   884cc:	f100001f 	cmp	x0, #0x0
   884d0:	54000080 	b.eq	884e0 <CEcoVFB1VirtualDevice_AF252188_IEcoCGI1OneWayOutput_QueryInterface+0x40>  // b.none
   884d4:	f9400fa0 	ldr	x0, [x29, #24]
   884d8:	f100001f 	cmp	x0, #0x0
   884dc:	54000061 	b.ne	884e8 <CEcoVFB1VirtualDevice_AF252188_IEcoCGI1OneWayOutput_QueryInterface+0x48>  // b.any
   884e0:	79c06fa0 	ldrsh	w0, [x29, #54]
   884e4:	140001cf 	b	88c20 <CEcoVFB1VirtualDevice_AF252188_IEcoCGI1OneWayOutput_QueryInterface+0x780>
   884e8:	f94013a0 	ldr	x0, [x29, #32]
   884ec:	39400001 	ldrb	w1, [x0]
   884f0:	f0000420 	adrp	x0, 10f000 <BitFont+0x788>
   884f4:	91262000 	add	x0, x0, #0x988
   884f8:	39400000 	ldrb	w0, [x0]
   884fc:	6b00003f 	cmp	w1, w0
   88500:	54001241 	b.ne	88748 <CEcoVFB1VirtualDevice_AF252188_IEcoCGI1OneWayOutput_QueryInterface+0x2a8>  // b.any
   88504:	f94013a0 	ldr	x0, [x29, #32]
   88508:	91000400 	add	x0, x0, #0x1
   8850c:	39400001 	ldrb	w1, [x0]
   88510:	f0000420 	adrp	x0, 10f000 <BitFont+0x788>
   88514:	91262400 	add	x0, x0, #0x989
   88518:	39400000 	ldrb	w0, [x0]
   8851c:	6b00003f 	cmp	w1, w0
   88520:	54001141 	b.ne	88748 <CEcoVFB1VirtualDevice_AF252188_IEcoCGI1OneWayOutput_QueryInterface+0x2a8>  // b.any
   88524:	f94013a0 	ldr	x0, [x29, #32]
   88528:	91000800 	add	x0, x0, #0x2
   8852c:	39400001 	ldrb	w1, [x0]
   88530:	f0000420 	adrp	x0, 10f000 <BitFont+0x788>
   88534:	91262800 	add	x0, x0, #0x98a
   88538:	39400000 	ldrb	w0, [x0]
   8853c:	6b00003f 	cmp	w1, w0
   88540:	54001041 	b.ne	88748 <CEcoVFB1VirtualDevice_AF252188_IEcoCGI1OneWayOutput_QueryInterface+0x2a8>  // b.any
   88544:	f94013a0 	ldr	x0, [x29, #32]
   88548:	91000c00 	add	x0, x0, #0x3
   8854c:	39400001 	ldrb	w1, [x0]
   88550:	f0000420 	adrp	x0, 10f000 <BitFont+0x788>
   88554:	91262c00 	add	x0, x0, #0x98b
   88558:	39400000 	ldrb	w0, [x0]
   8855c:	6b00003f 	cmp	w1, w0
   88560:	54000f41 	b.ne	88748 <CEcoVFB1VirtualDevice_AF252188_IEcoCGI1OneWayOutput_QueryInterface+0x2a8>  // b.any
   88564:	f94013a0 	ldr	x0, [x29, #32]
   88568:	91001000 	add	x0, x0, #0x4
   8856c:	39400001 	ldrb	w1, [x0]
   88570:	f0000420 	adrp	x0, 10f000 <BitFont+0x788>
   88574:	91263000 	add	x0, x0, #0x98c
   88578:	39400000 	ldrb	w0, [x0]
   8857c:	6b00003f 	cmp	w1, w0
   88580:	54000e41 	b.ne	88748 <CEcoVFB1VirtualDevice_AF252188_IEcoCGI1OneWayOutput_QueryInterface+0x2a8>  // b.any
   88584:	f94013a0 	ldr	x0, [x29, #32]
   88588:	91001400 	add	x0, x0, #0x5
   8858c:	39400001 	ldrb	w1, [x0]
   88590:	f0000420 	adrp	x0, 10f000 <BitFont+0x788>
   88594:	91263400 	add	x0, x0, #0x98d
   88598:	39400000 	ldrb	w0, [x0]
   8859c:	6b00003f 	cmp	w1, w0
   885a0:	54000d41 	b.ne	88748 <CEcoVFB1VirtualDevice_AF252188_IEcoCGI1OneWayOutput_QueryInterface+0x2a8>  // b.any
   885a4:	f94013a0 	ldr	x0, [x29, #32]
   885a8:	91001800 	add	x0, x0, #0x6
   885ac:	39400001 	ldrb	w1, [x0]
   885b0:	f0000420 	adrp	x0, 10f000 <BitFont+0x788>
   885b4:	91263800 	add	x0, x0, #0x98e
   885b8:	39400000 	ldrb	w0, [x0]
   885bc:	6b00003f 	cmp	w1, w0
   885c0:	54000c41 	b.ne	88748 <CEcoVFB1VirtualDevice_AF252188_IEcoCGI1OneWayOutput_QueryInterface+0x2a8>  // b.any
   885c4:	f94013a0 	ldr	x0, [x29, #32]
   885c8:	91001c00 	add	x0, x0, #0x7
   885cc:	39400001 	ldrb	w1, [x0]
   885d0:	f0000420 	adrp	x0, 10f000 <BitFont+0x788>
   885d4:	91263c00 	add	x0, x0, #0x98f
   885d8:	39400000 	ldrb	w0, [x0]
   885dc:	6b00003f 	cmp	w1, w0
   885e0:	54000b41 	b.ne	88748 <CEcoVFB1VirtualDevice_AF252188_IEcoCGI1OneWayOutput_QueryInterface+0x2a8>  // b.any
   885e4:	f94013a0 	ldr	x0, [x29, #32]
   885e8:	91002000 	add	x0, x0, #0x8
   885ec:	39400001 	ldrb	w1, [x0]
   885f0:	f0000420 	adrp	x0, 10f000 <BitFont+0x788>
   885f4:	91264000 	add	x0, x0, #0x990
   885f8:	39400000 	ldrb	w0, [x0]
   885fc:	6b00003f 	cmp	w1, w0
   88600:	54000a41 	b.ne	88748 <CEcoVFB1VirtualDevice_AF252188_IEcoCGI1OneWayOutput_QueryInterface+0x2a8>  // b.any
   88604:	f94013a0 	ldr	x0, [x29, #32]
   88608:	91002400 	add	x0, x0, #0x9
   8860c:	39400001 	ldrb	w1, [x0]
   88610:	f0000420 	adrp	x0, 10f000 <BitFont+0x788>
   88614:	91264400 	add	x0, x0, #0x991
   88618:	39400000 	ldrb	w0, [x0]
   8861c:	6b00003f 	cmp	w1, w0
   88620:	54000941 	b.ne	88748 <CEcoVFB1VirtualDevice_AF252188_IEcoCGI1OneWayOutput_QueryInterface+0x2a8>  // b.any
   88624:	f94013a0 	ldr	x0, [x29, #32]
   88628:	91002800 	add	x0, x0, #0xa
   8862c:	39400001 	ldrb	w1, [x0]
   88630:	f0000420 	adrp	x0, 10f000 <BitFont+0x788>
   88634:	91264800 	add	x0, x0, #0x992
   88638:	39400000 	ldrb	w0, [x0]
   8863c:	6b00003f 	cmp	w1, w0
   88640:	54000841 	b.ne	88748 <CEcoVFB1VirtualDevice_AF252188_IEcoCGI1OneWayOutput_QueryInterface+0x2a8>  // b.any
   88644:	f94013a0 	ldr	x0, [x29, #32]
   88648:	91002c00 	add	x0, x0, #0xb
   8864c:	39400001 	ldrb	w1, [x0]
   88650:	f0000420 	adrp	x0, 10f000 <BitFont+0x788>
   88654:	91264c00 	add	x0, x0, #0x993
   88658:	39400000 	ldrb	w0, [x0]
   8865c:	6b00003f 	cmp	w1, w0
   88660:	54000741 	b.ne	88748 <CEcoVFB1VirtualDevice_AF252188_IEcoCGI1OneWayOutput_QueryInterface+0x2a8>  // b.any
   88664:	f94013a0 	ldr	x0, [x29, #32]
   88668:	91003000 	add	x0, x0, #0xc
   8866c:	39400001 	ldrb	w1, [x0]
   88670:	f0000420 	adrp	x0, 10f000 <BitFont+0x788>
   88674:	91265000 	add	x0, x0, #0x994
   88678:	39400000 	ldrb	w0, [x0]
   8867c:	6b00003f 	cmp	w1, w0
   88680:	54000641 	b.ne	88748 <CEcoVFB1VirtualDevice_AF252188_IEcoCGI1OneWayOutput_QueryInterface+0x2a8>  // b.any
   88684:	f94013a0 	ldr	x0, [x29, #32]
   88688:	91003400 	add	x0, x0, #0xd
   8868c:	39400001 	ldrb	w1, [x0]
   88690:	f0000420 	adrp	x0, 10f000 <BitFont+0x788>
   88694:	91265400 	add	x0, x0, #0x995
   88698:	39400000 	ldrb	w0, [x0]
   8869c:	6b00003f 	cmp	w1, w0
   886a0:	54000541 	b.ne	88748 <CEcoVFB1VirtualDevice_AF252188_IEcoCGI1OneWayOutput_QueryInterface+0x2a8>  // b.any
   886a4:	f94013a0 	ldr	x0, [x29, #32]
   886a8:	91003800 	add	x0, x0, #0xe
   886ac:	39400001 	ldrb	w1, [x0]
   886b0:	f0000420 	adrp	x0, 10f000 <BitFont+0x788>
   886b4:	91265800 	add	x0, x0, #0x996
   886b8:	39400000 	ldrb	w0, [x0]
   886bc:	6b00003f 	cmp	w1, w0
   886c0:	54000441 	b.ne	88748 <CEcoVFB1VirtualDevice_AF252188_IEcoCGI1OneWayOutput_QueryInterface+0x2a8>  // b.any
   886c4:	f94013a0 	ldr	x0, [x29, #32]
   886c8:	91003c00 	add	x0, x0, #0xf
   886cc:	39400001 	ldrb	w1, [x0]
   886d0:	f0000420 	adrp	x0, 10f000 <BitFont+0x788>
   886d4:	91265c00 	add	x0, x0, #0x997
   886d8:	39400000 	ldrb	w0, [x0]
   886dc:	6b00003f 	cmp	w1, w0
   886e0:	54000341 	b.ne	88748 <CEcoVFB1VirtualDevice_AF252188_IEcoCGI1OneWayOutput_QueryInterface+0x2a8>  // b.any
   886e4:	f94013a0 	ldr	x0, [x29, #32]
   886e8:	91004000 	add	x0, x0, #0x10
   886ec:	39400001 	ldrb	w1, [x0]
   886f0:	f0000420 	adrp	x0, 10f000 <BitFont+0x788>
   886f4:	91266000 	add	x0, x0, #0x998
   886f8:	39400000 	ldrb	w0, [x0]
   886fc:	6b00003f 	cmp	w1, w0
   88700:	54000241 	b.ne	88748 <CEcoVFB1VirtualDevice_AF252188_IEcoCGI1OneWayOutput_QueryInterface+0x2a8>  // b.any
   88704:	f94013a0 	ldr	x0, [x29, #32]
   88708:	91004400 	add	x0, x0, #0x11
   8870c:	39400001 	ldrb	w1, [x0]
   88710:	f0000420 	adrp	x0, 10f000 <BitFont+0x788>
   88714:	91266400 	add	x0, x0, #0x999
   88718:	39400000 	ldrb	w0, [x0]
   8871c:	6b00003f 	cmp	w1, w0
   88720:	54000141 	b.ne	88748 <CEcoVFB1VirtualDevice_AF252188_IEcoCGI1OneWayOutput_QueryInterface+0x2a8>  // b.any
   88724:	f9401fa1 	ldr	x1, [x29, #56]
   88728:	f9400fa0 	ldr	x0, [x29, #24]
   8872c:	f9000001 	str	x1, [x0]
   88730:	f9401fa0 	ldr	x0, [x29, #56]
   88734:	f9400000 	ldr	x0, [x0]
   88738:	f9400401 	ldr	x1, [x0, #8]
   8873c:	f9401fa0 	ldr	x0, [x29, #56]
   88740:	d63f0020 	blr	x1
   88744:	14000136 	b	88c1c <CEcoVFB1VirtualDevice_AF252188_IEcoCGI1OneWayOutput_QueryInterface+0x77c>
   88748:	f94013a0 	ldr	x0, [x29, #32]
   8874c:	39400001 	ldrb	w1, [x0]
   88750:	f0000420 	adrp	x0, 10f000 <BitFont+0x788>
   88754:	91268000 	add	x0, x0, #0x9a0
   88758:	39400000 	ldrb	w0, [x0]
   8875c:	6b00003f 	cmp	w1, w0
   88760:	54001261 	b.ne	889ac <CEcoVFB1VirtualDevice_AF252188_IEcoCGI1OneWayOutput_QueryInterface+0x50c>  // b.any
   88764:	f94013a0 	ldr	x0, [x29, #32]
   88768:	91000400 	add	x0, x0, #0x1
   8876c:	39400001 	ldrb	w1, [x0]
   88770:	f0000420 	adrp	x0, 10f000 <BitFont+0x788>
   88774:	91268400 	add	x0, x0, #0x9a1
   88778:	39400000 	ldrb	w0, [x0]
   8877c:	6b00003f 	cmp	w1, w0
   88780:	54001161 	b.ne	889ac <CEcoVFB1VirtualDevice_AF252188_IEcoCGI1OneWayOutput_QueryInterface+0x50c>  // b.any
   88784:	f94013a0 	ldr	x0, [x29, #32]
   88788:	91000800 	add	x0, x0, #0x2
   8878c:	39400001 	ldrb	w1, [x0]
   88790:	f0000420 	adrp	x0, 10f000 <BitFont+0x788>
   88794:	91268800 	add	x0, x0, #0x9a2
   88798:	39400000 	ldrb	w0, [x0]
   8879c:	6b00003f 	cmp	w1, w0
   887a0:	54001061 	b.ne	889ac <CEcoVFB1VirtualDevice_AF252188_IEcoCGI1OneWayOutput_QueryInterface+0x50c>  // b.any
   887a4:	f94013a0 	ldr	x0, [x29, #32]
   887a8:	91000c00 	add	x0, x0, #0x3
   887ac:	39400001 	ldrb	w1, [x0]
   887b0:	f0000420 	adrp	x0, 10f000 <BitFont+0x788>
   887b4:	91268c00 	add	x0, x0, #0x9a3
   887b8:	39400000 	ldrb	w0, [x0]
   887bc:	6b00003f 	cmp	w1, w0
   887c0:	54000f61 	b.ne	889ac <CEcoVFB1VirtualDevice_AF252188_IEcoCGI1OneWayOutput_QueryInterface+0x50c>  // b.any
   887c4:	f94013a0 	ldr	x0, [x29, #32]
   887c8:	91001000 	add	x0, x0, #0x4
   887cc:	39400001 	ldrb	w1, [x0]
   887d0:	f0000420 	adrp	x0, 10f000 <BitFont+0x788>
   887d4:	91269000 	add	x0, x0, #0x9a4
   887d8:	39400000 	ldrb	w0, [x0]
   887dc:	6b00003f 	cmp	w1, w0
   887e0:	54000e61 	b.ne	889ac <CEcoVFB1VirtualDevice_AF252188_IEcoCGI1OneWayOutput_QueryInterface+0x50c>  // b.any
   887e4:	f94013a0 	ldr	x0, [x29, #32]
   887e8:	91001400 	add	x0, x0, #0x5
   887ec:	39400001 	ldrb	w1, [x0]
   887f0:	f0000420 	adrp	x0, 10f000 <BitFont+0x788>
   887f4:	91269400 	add	x0, x0, #0x9a5
   887f8:	39400000 	ldrb	w0, [x0]
   887fc:	6b00003f 	cmp	w1, w0
   88800:	54000d61 	b.ne	889ac <CEcoVFB1VirtualDevice_AF252188_IEcoCGI1OneWayOutput_QueryInterface+0x50c>  // b.any
   88804:	f94013a0 	ldr	x0, [x29, #32]
   88808:	91001800 	add	x0, x0, #0x6
   8880c:	39400001 	ldrb	w1, [x0]
   88810:	f0000420 	adrp	x0, 10f000 <BitFont+0x788>
   88814:	91269800 	add	x0, x0, #0x9a6
   88818:	39400000 	ldrb	w0, [x0]
   8881c:	6b00003f 	cmp	w1, w0
   88820:	54000c61 	b.ne	889ac <CEcoVFB1VirtualDevice_AF252188_IEcoCGI1OneWayOutput_QueryInterface+0x50c>  // b.any
   88824:	f94013a0 	ldr	x0, [x29, #32]
   88828:	91001c00 	add	x0, x0, #0x7
   8882c:	39400001 	ldrb	w1, [x0]
   88830:	f0000420 	adrp	x0, 10f000 <BitFont+0x788>
   88834:	91269c00 	add	x0, x0, #0x9a7
   88838:	39400000 	ldrb	w0, [x0]
   8883c:	6b00003f 	cmp	w1, w0
   88840:	54000b61 	b.ne	889ac <CEcoVFB1VirtualDevice_AF252188_IEcoCGI1OneWayOutput_QueryInterface+0x50c>  // b.any
   88844:	f94013a0 	ldr	x0, [x29, #32]
   88848:	91002000 	add	x0, x0, #0x8
   8884c:	39400001 	ldrb	w1, [x0]
   88850:	f0000420 	adrp	x0, 10f000 <BitFont+0x788>
   88854:	9126a000 	add	x0, x0, #0x9a8
   88858:	39400000 	ldrb	w0, [x0]
   8885c:	6b00003f 	cmp	w1, w0
   88860:	54000a61 	b.ne	889ac <CEcoVFB1VirtualDevice_AF252188_IEcoCGI1OneWayOutput_QueryInterface+0x50c>  // b.any
   88864:	f94013a0 	ldr	x0, [x29, #32]
   88868:	91002400 	add	x0, x0, #0x9
   8886c:	39400001 	ldrb	w1, [x0]
   88870:	f0000420 	adrp	x0, 10f000 <BitFont+0x788>
   88874:	9126a400 	add	x0, x0, #0x9a9
   88878:	39400000 	ldrb	w0, [x0]
   8887c:	6b00003f 	cmp	w1, w0
   88880:	54000961 	b.ne	889ac <CEcoVFB1VirtualDevice_AF252188_IEcoCGI1OneWayOutput_QueryInterface+0x50c>  // b.any
   88884:	f94013a0 	ldr	x0, [x29, #32]
   88888:	91002800 	add	x0, x0, #0xa
   8888c:	39400001 	ldrb	w1, [x0]
   88890:	f0000420 	adrp	x0, 10f000 <BitFont+0x788>
   88894:	9126a800 	add	x0, x0, #0x9aa
   88898:	39400000 	ldrb	w0, [x0]
   8889c:	6b00003f 	cmp	w1, w0
   888a0:	54000861 	b.ne	889ac <CEcoVFB1VirtualDevice_AF252188_IEcoCGI1OneWayOutput_QueryInterface+0x50c>  // b.any
   888a4:	f94013a0 	ldr	x0, [x29, #32]
   888a8:	91002c00 	add	x0, x0, #0xb
   888ac:	39400001 	ldrb	w1, [x0]
   888b0:	f0000420 	adrp	x0, 10f000 <BitFont+0x788>
   888b4:	9126ac00 	add	x0, x0, #0x9ab
   888b8:	39400000 	ldrb	w0, [x0]
   888bc:	6b00003f 	cmp	w1, w0
   888c0:	54000761 	b.ne	889ac <CEcoVFB1VirtualDevice_AF252188_IEcoCGI1OneWayOutput_QueryInterface+0x50c>  // b.any
   888c4:	f94013a0 	ldr	x0, [x29, #32]
   888c8:	91003000 	add	x0, x0, #0xc
   888cc:	39400001 	ldrb	w1, [x0]
   888d0:	f0000420 	adrp	x0, 10f000 <BitFont+0x788>
   888d4:	9126b000 	add	x0, x0, #0x9ac
   888d8:	39400000 	ldrb	w0, [x0]
   888dc:	6b00003f 	cmp	w1, w0
   888e0:	54000661 	b.ne	889ac <CEcoVFB1VirtualDevice_AF252188_IEcoCGI1OneWayOutput_QueryInterface+0x50c>  // b.any
   888e4:	f94013a0 	ldr	x0, [x29, #32]
   888e8:	91003400 	add	x0, x0, #0xd
   888ec:	39400001 	ldrb	w1, [x0]
   888f0:	f0000420 	adrp	x0, 10f000 <BitFont+0x788>
   888f4:	9126b400 	add	x0, x0, #0x9ad
   888f8:	39400000 	ldrb	w0, [x0]
   888fc:	6b00003f 	cmp	w1, w0
   88900:	54000561 	b.ne	889ac <CEcoVFB1VirtualDevice_AF252188_IEcoCGI1OneWayOutput_QueryInterface+0x50c>  // b.any
   88904:	f94013a0 	ldr	x0, [x29, #32]
   88908:	91003800 	add	x0, x0, #0xe
   8890c:	39400001 	ldrb	w1, [x0]
   88910:	f0000420 	adrp	x0, 10f000 <BitFont+0x788>
   88914:	9126b800 	add	x0, x0, #0x9ae
   88918:	39400000 	ldrb	w0, [x0]
   8891c:	6b00003f 	cmp	w1, w0
   88920:	54000461 	b.ne	889ac <CEcoVFB1VirtualDevice_AF252188_IEcoCGI1OneWayOutput_QueryInterface+0x50c>  // b.any
   88924:	f94013a0 	ldr	x0, [x29, #32]
   88928:	91003c00 	add	x0, x0, #0xf
   8892c:	39400001 	ldrb	w1, [x0]
   88930:	f0000420 	adrp	x0, 10f000 <BitFont+0x788>
   88934:	9126bc00 	add	x0, x0, #0x9af
   88938:	39400000 	ldrb	w0, [x0]
   8893c:	6b00003f 	cmp	w1, w0
   88940:	54000361 	b.ne	889ac <CEcoVFB1VirtualDevice_AF252188_IEcoCGI1OneWayOutput_QueryInterface+0x50c>  // b.any
   88944:	f94013a0 	ldr	x0, [x29, #32]
   88948:	91004000 	add	x0, x0, #0x10
   8894c:	39400001 	ldrb	w1, [x0]
   88950:	f0000420 	adrp	x0, 10f000 <BitFont+0x788>
   88954:	9126c000 	add	x0, x0, #0x9b0
   88958:	39400000 	ldrb	w0, [x0]
   8895c:	6b00003f 	cmp	w1, w0
   88960:	54000261 	b.ne	889ac <CEcoVFB1VirtualDevice_AF252188_IEcoCGI1OneWayOutput_QueryInterface+0x50c>  // b.any
   88964:	f94013a0 	ldr	x0, [x29, #32]
   88968:	91004400 	add	x0, x0, #0x11
   8896c:	39400001 	ldrb	w1, [x0]
   88970:	f0000420 	adrp	x0, 10f000 <BitFont+0x788>
   88974:	9126c400 	add	x0, x0, #0x9b1
   88978:	39400000 	ldrb	w0, [x0]
   8897c:	6b00003f 	cmp	w1, w0
   88980:	54000161 	b.ne	889ac <CEcoVFB1VirtualDevice_AF252188_IEcoCGI1OneWayOutput_QueryInterface+0x50c>  // b.any
   88984:	f9401fa0 	ldr	x0, [x29, #56]
   88988:	91002001 	add	x1, x0, #0x8
   8898c:	f9400fa0 	ldr	x0, [x29, #24]
   88990:	f9000001 	str	x1, [x0]
   88994:	f9401fa0 	ldr	x0, [x29, #56]
   88998:	f9400000 	ldr	x0, [x0]
   8899c:	f9400401 	ldr	x1, [x0, #8]
   889a0:	f9401fa0 	ldr	x0, [x29, #56]
   889a4:	d63f0020 	blr	x1
   889a8:	1400009d 	b	88c1c <CEcoVFB1VirtualDevice_AF252188_IEcoCGI1OneWayOutput_QueryInterface+0x77c>
   889ac:	f94013a0 	ldr	x0, [x29, #32]
   889b0:	39400001 	ldrb	w1, [x0]
   889b4:	f0000420 	adrp	x0, 10f000 <BitFont+0x788>
   889b8:	91220000 	add	x0, x0, #0x880
   889bc:	39400000 	ldrb	w0, [x0]
   889c0:	6b00003f 	cmp	w1, w0
   889c4:	54001241 	b.ne	88c0c <CEcoVFB1VirtualDevice_AF252188_IEcoCGI1OneWayOutput_QueryInterface+0x76c>  // b.any
   889c8:	f94013a0 	ldr	x0, [x29, #32]
   889cc:	91000400 	add	x0, x0, #0x1
   889d0:	39400001 	ldrb	w1, [x0]
   889d4:	f0000420 	adrp	x0, 10f000 <BitFont+0x788>
   889d8:	91220400 	add	x0, x0, #0x881
   889dc:	39400000 	ldrb	w0, [x0]
   889e0:	6b00003f 	cmp	w1, w0
   889e4:	54001141 	b.ne	88c0c <CEcoVFB1VirtualDevice_AF252188_IEcoCGI1OneWayOutput_QueryInterface+0x76c>  // b.any
   889e8:	f94013a0 	ldr	x0, [x29, #32]
   889ec:	91000800 	add	x0, x0, #0x2
   889f0:	39400001 	ldrb	w1, [x0]
   889f4:	f0000420 	adrp	x0, 10f000 <BitFont+0x788>
   889f8:	91220800 	add	x0, x0, #0x882
   889fc:	39400000 	ldrb	w0, [x0]
   88a00:	6b00003f 	cmp	w1, w0
   88a04:	54001041 	b.ne	88c0c <CEcoVFB1VirtualDevice_AF252188_IEcoCGI1OneWayOutput_QueryInterface+0x76c>  // b.any
   88a08:	f94013a0 	ldr	x0, [x29, #32]
   88a0c:	91000c00 	add	x0, x0, #0x3
   88a10:	39400001 	ldrb	w1, [x0]
   88a14:	f0000420 	adrp	x0, 10f000 <BitFont+0x788>
   88a18:	91220c00 	add	x0, x0, #0x883
   88a1c:	39400000 	ldrb	w0, [x0]
   88a20:	6b00003f 	cmp	w1, w0
   88a24:	54000f41 	b.ne	88c0c <CEcoVFB1VirtualDevice_AF252188_IEcoCGI1OneWayOutput_QueryInterface+0x76c>  // b.any
   88a28:	f94013a0 	ldr	x0, [x29, #32]
   88a2c:	91001000 	add	x0, x0, #0x4
   88a30:	39400001 	ldrb	w1, [x0]
   88a34:	f0000420 	adrp	x0, 10f000 <BitFont+0x788>
   88a38:	91221000 	add	x0, x0, #0x884
   88a3c:	39400000 	ldrb	w0, [x0]
   88a40:	6b00003f 	cmp	w1, w0
   88a44:	54000e41 	b.ne	88c0c <CEcoVFB1VirtualDevice_AF252188_IEcoCGI1OneWayOutput_QueryInterface+0x76c>  // b.any
   88a48:	f94013a0 	ldr	x0, [x29, #32]
   88a4c:	91001400 	add	x0, x0, #0x5
   88a50:	39400001 	ldrb	w1, [x0]
   88a54:	f0000420 	adrp	x0, 10f000 <BitFont+0x788>
   88a58:	91221400 	add	x0, x0, #0x885
   88a5c:	39400000 	ldrb	w0, [x0]
   88a60:	6b00003f 	cmp	w1, w0
   88a64:	54000d41 	b.ne	88c0c <CEcoVFB1VirtualDevice_AF252188_IEcoCGI1OneWayOutput_QueryInterface+0x76c>  // b.any
   88a68:	f94013a0 	ldr	x0, [x29, #32]
   88a6c:	91001800 	add	x0, x0, #0x6
   88a70:	39400001 	ldrb	w1, [x0]
   88a74:	f0000420 	adrp	x0, 10f000 <BitFont+0x788>
   88a78:	91221800 	add	x0, x0, #0x886
   88a7c:	39400000 	ldrb	w0, [x0]
   88a80:	6b00003f 	cmp	w1, w0
   88a84:	54000c41 	b.ne	88c0c <CEcoVFB1VirtualDevice_AF252188_IEcoCGI1OneWayOutput_QueryInterface+0x76c>  // b.any
   88a88:	f94013a0 	ldr	x0, [x29, #32]
   88a8c:	91001c00 	add	x0, x0, #0x7
   88a90:	39400001 	ldrb	w1, [x0]
   88a94:	f0000420 	adrp	x0, 10f000 <BitFont+0x788>
   88a98:	91221c00 	add	x0, x0, #0x887
   88a9c:	39400000 	ldrb	w0, [x0]
   88aa0:	6b00003f 	cmp	w1, w0
   88aa4:	54000b41 	b.ne	88c0c <CEcoVFB1VirtualDevice_AF252188_IEcoCGI1OneWayOutput_QueryInterface+0x76c>  // b.any
   88aa8:	f94013a0 	ldr	x0, [x29, #32]
   88aac:	91002000 	add	x0, x0, #0x8
   88ab0:	39400001 	ldrb	w1, [x0]
   88ab4:	f0000420 	adrp	x0, 10f000 <BitFont+0x788>
   88ab8:	91222000 	add	x0, x0, #0x888
   88abc:	39400000 	ldrb	w0, [x0]
   88ac0:	6b00003f 	cmp	w1, w0
   88ac4:	54000a41 	b.ne	88c0c <CEcoVFB1VirtualDevice_AF252188_IEcoCGI1OneWayOutput_QueryInterface+0x76c>  // b.any
   88ac8:	f94013a0 	ldr	x0, [x29, #32]
   88acc:	91002400 	add	x0, x0, #0x9
   88ad0:	39400001 	ldrb	w1, [x0]
   88ad4:	f0000420 	adrp	x0, 10f000 <BitFont+0x788>
   88ad8:	91222400 	add	x0, x0, #0x889
   88adc:	39400000 	ldrb	w0, [x0]
   88ae0:	6b00003f 	cmp	w1, w0
   88ae4:	54000941 	b.ne	88c0c <CEcoVFB1VirtualDevice_AF252188_IEcoCGI1OneWayOutput_QueryInterface+0x76c>  // b.any
   88ae8:	f94013a0 	ldr	x0, [x29, #32]
   88aec:	91002800 	add	x0, x0, #0xa
   88af0:	39400001 	ldrb	w1, [x0]
   88af4:	f0000420 	adrp	x0, 10f000 <BitFont+0x788>
   88af8:	91222800 	add	x0, x0, #0x88a
   88afc:	39400000 	ldrb	w0, [x0]
   88b00:	6b00003f 	cmp	w1, w0
   88b04:	54000841 	b.ne	88c0c <CEcoVFB1VirtualDevice_AF252188_IEcoCGI1OneWayOutput_QueryInterface+0x76c>  // b.any
   88b08:	f94013a0 	ldr	x0, [x29, #32]
   88b0c:	91002c00 	add	x0, x0, #0xb
   88b10:	39400001 	ldrb	w1, [x0]
   88b14:	f0000420 	adrp	x0, 10f000 <BitFont+0x788>
   88b18:	91222c00 	add	x0, x0, #0x88b
   88b1c:	39400000 	ldrb	w0, [x0]
   88b20:	6b00003f 	cmp	w1, w0
   88b24:	54000741 	b.ne	88c0c <CEcoVFB1VirtualDevice_AF252188_IEcoCGI1OneWayOutput_QueryInterface+0x76c>  // b.any
   88b28:	f94013a0 	ldr	x0, [x29, #32]
   88b2c:	91003000 	add	x0, x0, #0xc
   88b30:	39400001 	ldrb	w1, [x0]
   88b34:	f0000420 	adrp	x0, 10f000 <BitFont+0x788>
   88b38:	91223000 	add	x0, x0, #0x88c
   88b3c:	39400000 	ldrb	w0, [x0]
   88b40:	6b00003f 	cmp	w1, w0
   88b44:	54000641 	b.ne	88c0c <CEcoVFB1VirtualDevice_AF252188_IEcoCGI1OneWayOutput_QueryInterface+0x76c>  // b.any
   88b48:	f94013a0 	ldr	x0, [x29, #32]
   88b4c:	91003400 	add	x0, x0, #0xd
   88b50:	39400001 	ldrb	w1, [x0]
   88b54:	f0000420 	adrp	x0, 10f000 <BitFont+0x788>
   88b58:	91223400 	add	x0, x0, #0x88d
   88b5c:	39400000 	ldrb	w0, [x0]
   88b60:	6b00003f 	cmp	w1, w0
   88b64:	54000541 	b.ne	88c0c <CEcoVFB1VirtualDevice_AF252188_IEcoCGI1OneWayOutput_QueryInterface+0x76c>  // b.any
   88b68:	f94013a0 	ldr	x0, [x29, #32]
   88b6c:	91003800 	add	x0, x0, #0xe
   88b70:	39400001 	ldrb	w1, [x0]
   88b74:	f0000420 	adrp	x0, 10f000 <BitFont+0x788>
   88b78:	91223800 	add	x0, x0, #0x88e
   88b7c:	39400000 	ldrb	w0, [x0]
   88b80:	6b00003f 	cmp	w1, w0
   88b84:	54000441 	b.ne	88c0c <CEcoVFB1VirtualDevice_AF252188_IEcoCGI1OneWayOutput_QueryInterface+0x76c>  // b.any
   88b88:	f94013a0 	ldr	x0, [x29, #32]
   88b8c:	91003c00 	add	x0, x0, #0xf
   88b90:	39400001 	ldrb	w1, [x0]
   88b94:	f0000420 	adrp	x0, 10f000 <BitFont+0x788>
   88b98:	91223c00 	add	x0, x0, #0x88f
   88b9c:	39400000 	ldrb	w0, [x0]
   88ba0:	6b00003f 	cmp	w1, w0
   88ba4:	54000341 	b.ne	88c0c <CEcoVFB1VirtualDevice_AF252188_IEcoCGI1OneWayOutput_QueryInterface+0x76c>  // b.any
   88ba8:	f94013a0 	ldr	x0, [x29, #32]
   88bac:	91004000 	add	x0, x0, #0x10
   88bb0:	39400001 	ldrb	w1, [x0]
   88bb4:	f0000420 	adrp	x0, 10f000 <BitFont+0x788>
   88bb8:	91224000 	add	x0, x0, #0x890
   88bbc:	39400000 	ldrb	w0, [x0]
   88bc0:	6b00003f 	cmp	w1, w0
   88bc4:	54000241 	b.ne	88c0c <CEcoVFB1VirtualDevice_AF252188_IEcoCGI1OneWayOutput_QueryInterface+0x76c>  // b.any
   88bc8:	f94013a0 	ldr	x0, [x29, #32]
   88bcc:	91004400 	add	x0, x0, #0x11
   88bd0:	39400001 	ldrb	w1, [x0]
   88bd4:	f0000420 	adrp	x0, 10f000 <BitFont+0x788>
   88bd8:	91224400 	add	x0, x0, #0x891
   88bdc:	39400000 	ldrb	w0, [x0]
   88be0:	6b00003f 	cmp	w1, w0
   88be4:	54000141 	b.ne	88c0c <CEcoVFB1VirtualDevice_AF252188_IEcoCGI1OneWayOutput_QueryInterface+0x76c>  // b.any
   88be8:	f9401fa1 	ldr	x1, [x29, #56]
   88bec:	f9400fa0 	ldr	x0, [x29, #24]
   88bf0:	f9000001 	str	x1, [x0]
   88bf4:	f9401fa0 	ldr	x0, [x29, #56]
   88bf8:	f9400000 	ldr	x0, [x0]
   88bfc:	f9400401 	ldr	x1, [x0, #8]
   88c00:	f9401fa0 	ldr	x0, [x29, #56]
   88c04:	d63f0020 	blr	x1
   88c08:	14000005 	b	88c1c <CEcoVFB1VirtualDevice_AF252188_IEcoCGI1OneWayOutput_QueryInterface+0x77c>
   88c0c:	f9400fa0 	ldr	x0, [x29, #24]
   88c10:	f900001f 	str	xzr, [x0]
   88c14:	12800000 	mov	w0, #0xffffffff            	// #-1
   88c18:	14000002 	b	88c20 <CEcoVFB1VirtualDevice_AF252188_IEcoCGI1OneWayOutput_QueryInterface+0x780>
   88c1c:	52800000 	mov	w0, #0x0                   	// #0
   88c20:	a8c47bfd 	ldp	x29, x30, [sp], #64
   88c24:	d65f03c0 	ret

0000000000088c28 <CEcoVFB1VirtualDevice_AF252188_IEcoCGI1OneWayOutput_AddRef>:
   88c28:	d10083ff 	sub	sp, sp, #0x20
   88c2c:	f90007e0 	str	x0, [sp, #8]
   88c30:	f94007e0 	ldr	x0, [sp, #8]
   88c34:	d1002000 	sub	x0, x0, #0x8
   88c38:	f9000fe0 	str	x0, [sp, #24]
   88c3c:	f94007e0 	ldr	x0, [sp, #8]
   88c40:	f100001f 	cmp	x0, #0x0
   88c44:	54000061 	b.ne	88c50 <CEcoVFB1VirtualDevice_AF252188_IEcoCGI1OneWayOutput_AddRef+0x28>  // b.any
   88c48:	12800000 	mov	w0, #0xffffffff            	// #-1
   88c4c:	14000008 	b	88c6c <CEcoVFB1VirtualDevice_AF252188_IEcoCGI1OneWayOutput_AddRef+0x44>
   88c50:	f9400fe0 	ldr	x0, [sp, #24]
   88c54:	b9401000 	ldr	w0, [x0, #16]
   88c58:	11000401 	add	w1, w0, #0x1
   88c5c:	f9400fe0 	ldr	x0, [sp, #24]
   88c60:	b9001001 	str	w1, [x0, #16]
   88c64:	f9400fe0 	ldr	x0, [sp, #24]
   88c68:	b9401000 	ldr	w0, [x0, #16]
   88c6c:	910083ff 	add	sp, sp, #0x20
   88c70:	d65f03c0 	ret

0000000000088c74 <CEcoVFB1VirtualDevice_AF252188_IEcoCGI1OneWayOutput_Release>:
   88c74:	a9bd7bfd 	stp	x29, x30, [sp, #-48]!
   88c78:	910003fd 	mov	x29, sp
   88c7c:	f9000fa0 	str	x0, [x29, #24]
   88c80:	f9400fa0 	ldr	x0, [x29, #24]
   88c84:	d1002000 	sub	x0, x0, #0x8
   88c88:	f90017a0 	str	x0, [x29, #40]
   88c8c:	f9400fa0 	ldr	x0, [x29, #24]
   88c90:	f100001f 	cmp	x0, #0x0
   88c94:	54000061 	b.ne	88ca0 <CEcoVFB1VirtualDevice_AF252188_IEcoCGI1OneWayOutput_Release+0x2c>  // b.any
   88c98:	12800000 	mov	w0, #0xffffffff            	// #-1
   88c9c:	14000010 	b	88cdc <CEcoVFB1VirtualDevice_AF252188_IEcoCGI1OneWayOutput_Release+0x68>
   88ca0:	f94017a0 	ldr	x0, [x29, #40]
   88ca4:	b9401000 	ldr	w0, [x0, #16]
   88ca8:	51000401 	sub	w1, w0, #0x1
   88cac:	f94017a0 	ldr	x0, [x29, #40]
   88cb0:	b9001001 	str	w1, [x0, #16]
   88cb4:	f94017a0 	ldr	x0, [x29, #40]
   88cb8:	b9401000 	ldr	w0, [x0, #16]
   88cbc:	7100001f 	cmp	w0, #0x0
   88cc0:	540000a1 	b.ne	88cd4 <CEcoVFB1VirtualDevice_AF252188_IEcoCGI1OneWayOutput_Release+0x60>  // b.any
   88cc4:	f94017a0 	ldr	x0, [x29, #40]
   88cc8:	94000144 	bl	891d8 <deleteCEcoVFB1VirtualDevice_AF252188>
   88ccc:	52800000 	mov	w0, #0x0                   	// #0
   88cd0:	14000003 	b	88cdc <CEcoVFB1VirtualDevice_AF252188_IEcoCGI1OneWayOutput_Release+0x68>
   88cd4:	f94017a0 	ldr	x0, [x29, #40]
   88cd8:	b9401000 	ldr	w0, [x0, #16]
   88cdc:	a8c37bfd 	ldp	x29, x30, [sp], #48
   88ce0:	d65f03c0 	ret

0000000000088ce4 <CEcoVFB1VirtualDevice_AF252188_IEcoCGI1OneWayOutput_Initialize>:
   88ce4:	d10083ff 	sub	sp, sp, #0x20
   88ce8:	f90007e0 	str	x0, [sp, #8]
   88cec:	f94007e0 	ldr	x0, [sp, #8]
   88cf0:	d1002000 	sub	x0, x0, #0x8
   88cf4:	f9000fe0 	str	x0, [sp, #24]
   88cf8:	f94007e0 	ldr	x0, [sp, #8]
   88cfc:	f100001f 	cmp	x0, #0x0
   88d00:	54000061 	b.ne	88d0c <CEcoVFB1VirtualDevice_AF252188_IEcoCGI1OneWayOutput_Initialize+0x28>  // b.any
   88d04:	12800000 	mov	w0, #0xffffffff            	// #-1
   88d08:	14000002 	b	88d10 <CEcoVFB1VirtualDevice_AF252188_IEcoCGI1OneWayOutput_Initialize+0x2c>
   88d0c:	52800000 	mov	w0, #0x0                   	// #0
   88d10:	910083ff 	add	sp, sp, #0x20
   88d14:	d65f03c0 	ret

0000000000088d18 <CEcoVFB1VirtualDevice_AF252188_IEcoCGI1OneWayOutput_Terminate>:
   88d18:	d10083ff 	sub	sp, sp, #0x20
   88d1c:	f90007e0 	str	x0, [sp, #8]
   88d20:	f94007e0 	ldr	x0, [sp, #8]
   88d24:	d1002000 	sub	x0, x0, #0x8
   88d28:	f9000fe0 	str	x0, [sp, #24]
   88d2c:	f94007e0 	ldr	x0, [sp, #8]
   88d30:	f100001f 	cmp	x0, #0x0
   88d34:	54000061 	b.ne	88d40 <CEcoVFB1VirtualDevice_AF252188_IEcoCGI1OneWayOutput_Terminate+0x28>  // b.any
   88d38:	12800000 	mov	w0, #0xffffffff            	// #-1
   88d3c:	14000002 	b	88d44 <CEcoVFB1VirtualDevice_AF252188_IEcoCGI1OneWayOutput_Terminate+0x2c>
   88d40:	52800000 	mov	w0, #0x0                   	// #0
   88d44:	910083ff 	add	sp, sp, #0x20
   88d48:	d65f03c0 	ret

0000000000088d4c <CEcoVFB1VirtualDevice_AF252188_IEcoCGI1OneWayOutput_PrepareDrawingSurface>:
   88d4c:	d10083ff 	sub	sp, sp, #0x20
   88d50:	f90007e0 	str	x0, [sp, #8]
   88d54:	b90007e1 	str	w1, [sp, #4]
   88d58:	f94007e0 	ldr	x0, [sp, #8]
   88d5c:	d1002000 	sub	x0, x0, #0x8
   88d60:	f9000fe0 	str	x0, [sp, #24]
   88d64:	f94007e0 	ldr	x0, [sp, #8]
   88d68:	f100001f 	cmp	x0, #0x0
   88d6c:	54000061 	b.ne	88d78 <CEcoVFB1VirtualDevice_AF252188_IEcoCGI1OneWayOutput_PrepareDrawingSurface+0x2c>  // b.any
   88d70:	12800000 	mov	w0, #0xffffffff            	// #-1
   88d74:	14000002 	b	88d7c <CEcoVFB1VirtualDevice_AF252188_IEcoCGI1OneWayOutput_PrepareDrawingSurface+0x30>
   88d78:	52800000 	mov	w0, #0x0                   	// #0
   88d7c:	910083ff 	add	sp, sp, #0x20
   88d80:	d65f03c0 	ret

0000000000088d84 <CEcoVFB1VirtualDevice_AF252188_IEcoCGI1OneWayOutput_ExecuteDeferredActions>:
   88d84:	d10083ff 	sub	sp, sp, #0x20
   88d88:	f90007e0 	str	x0, [sp, #8]
   88d8c:	f94007e0 	ldr	x0, [sp, #8]
   88d90:	d1002000 	sub	x0, x0, #0x8
   88d94:	f9000fe0 	str	x0, [sp, #24]
   88d98:	f94007e0 	ldr	x0, [sp, #8]
   88d9c:	f100001f 	cmp	x0, #0x0
   88da0:	54000061 	b.ne	88dac <CEcoVFB1VirtualDevice_AF252188_IEcoCGI1OneWayOutput_ExecuteDeferredActions+0x28>  // b.any
   88da4:	12800000 	mov	w0, #0xffffffff            	// #-1
   88da8:	14000002 	b	88db0 <CEcoVFB1VirtualDevice_AF252188_IEcoCGI1OneWayOutput_ExecuteDeferredActions+0x2c>
   88dac:	52800000 	mov	w0, #0x0                   	// #0
   88db0:	910083ff 	add	sp, sp, #0x20
   88db4:	d65f03c0 	ret

0000000000088db8 <CEcoVFB1VirtualDevice_AF252188_IEcoCGI1OneWayOutput_EndPage>:
   88db8:	d10083ff 	sub	sp, sp, #0x20
   88dbc:	f90007e0 	str	x0, [sp, #8]
   88dc0:	f94007e0 	ldr	x0, [sp, #8]
   88dc4:	d1002000 	sub	x0, x0, #0x8
   88dc8:	f9000fe0 	str	x0, [sp, #24]
   88dcc:	f94007e0 	ldr	x0, [sp, #8]
   88dd0:	f100001f 	cmp	x0, #0x0
   88dd4:	54000061 	b.ne	88de0 <CEcoVFB1VirtualDevice_AF252188_IEcoCGI1OneWayOutput_EndPage+0x28>  // b.any
   88dd8:	12800000 	mov	w0, #0xffffffff            	// #-1
   88ddc:	14000002 	b	88de4 <CEcoVFB1VirtualDevice_AF252188_IEcoCGI1OneWayOutput_EndPage+0x2c>
   88de0:	52800000 	mov	w0, #0x0                   	// #0
   88de4:	910083ff 	add	sp, sp, #0x20
   88de8:	d65f03c0 	ret

0000000000088dec <CEcoVFB1VirtualDevice_AF252188_IEcoCGI1OneWayOutput_VDCExtent>:
   88dec:	d10103ff 	sub	sp, sp, #0x40
   88df0:	f90017e0 	str	x0, [sp, #40]
   88df4:	aa0103e5 	mov	x5, x1
   88df8:	aa0303e1 	mov	x1, x3
   88dfc:	aa0403e0 	mov	x0, x4
   88e00:	f9000fe5 	str	x5, [sp, #24]
   88e04:	f90013e2 	str	x2, [sp, #32]
   88e08:	f90007e1 	str	x1, [sp, #8]
   88e0c:	f9000be0 	str	x0, [sp, #16]
   88e10:	f94017e0 	ldr	x0, [sp, #40]
   88e14:	d1002000 	sub	x0, x0, #0x8
   88e18:	f9001fe0 	str	x0, [sp, #56]
   88e1c:	f94017e0 	ldr	x0, [sp, #40]
   88e20:	f100001f 	cmp	x0, #0x0
   88e24:	54000061 	b.ne	88e30 <CEcoVFB1VirtualDevice_AF252188_IEcoCGI1OneWayOutput_VDCExtent+0x44>  // b.any
   88e28:	12800000 	mov	w0, #0xffffffff            	// #-1
   88e2c:	14000002 	b	88e34 <CEcoVFB1VirtualDevice_AF252188_IEcoCGI1OneWayOutput_VDCExtent+0x48>
   88e30:	52800000 	mov	w0, #0x0                   	// #0
   88e34:	910103ff 	add	sp, sp, #0x40
   88e38:	d65f03c0 	ret

0000000000088e3c <CEcoVFB1VirtualDevice_AF252188_IEcoCGI1OneWayOutput_DeviceViewport>:
   88e3c:	d100c3ff 	sub	sp, sp, #0x30
   88e40:	f9000fe0 	str	x0, [sp, #24]
   88e44:	f9000be1 	str	x1, [sp, #16]
   88e48:	f90007e2 	str	x2, [sp, #8]
   88e4c:	f9400fe0 	ldr	x0, [sp, #24]
   88e50:	d1002000 	sub	x0, x0, #0x8
   88e54:	f90017e0 	str	x0, [sp, #40]
   88e58:	f9400fe0 	ldr	x0, [sp, #24]
   88e5c:	f100001f 	cmp	x0, #0x0
   88e60:	54000061 	b.ne	88e6c <CEcoVFB1VirtualDevice_AF252188_IEcoCGI1OneWayOutput_DeviceViewport+0x30>  // b.any
   88e64:	12800000 	mov	w0, #0xffffffff            	// #-1
   88e68:	14000002 	b	88e70 <CEcoVFB1VirtualDevice_AF252188_IEcoCGI1OneWayOutput_DeviceViewport+0x34>
   88e6c:	52800000 	mov	w0, #0x0                   	// #0
   88e70:	9100c3ff 	add	sp, sp, #0x30
   88e74:	d65f03c0 	ret

0000000000088e78 <CEcoVFB1VirtualDevice_AF252188_IEcoCGI1OneWayOutput_Polyline>:
   88e78:	a9bc7bfd 	stp	x29, x30, [sp, #-64]!
   88e7c:	910003fd 	mov	x29, sp
   88e80:	f9000fa0 	str	x0, [x29, #24]
   88e84:	f9000ba1 	str	x1, [x29, #16]
   88e88:	f9400fa0 	ldr	x0, [x29, #24]
   88e8c:	d1002000 	sub	x0, x0, #0x8
   88e90:	f9001ba0 	str	x0, [x29, #48]
   88e94:	79005fbf 	strh	wzr, [x29, #46]
   88e98:	79005bbf 	strh	wzr, [x29, #44]
   88e9c:	790057bf 	strh	wzr, [x29, #42]
   88ea0:	52800140 	mov	w0, #0xa                   	// #10
   88ea4:	790053a0 	strh	w0, [x29, #40]
   88ea8:	79004fbf 	strh	wzr, [x29, #38]
   88eac:	79004bbf 	strh	wzr, [x29, #36]
   88eb0:	79007fbf 	strh	wzr, [x29, #62]
   88eb4:	f9400fa0 	ldr	x0, [x29, #24]
   88eb8:	f100001f 	cmp	x0, #0x0
   88ebc:	54000061 	b.ne	88ec8 <CEcoVFB1VirtualDevice_AF252188_IEcoCGI1OneWayOutput_Polyline+0x50>  // b.any
   88ec0:	12800000 	mov	w0, #0xffffffff            	// #-1
   88ec4:	1400002c 	b	88f74 <CEcoVFB1VirtualDevice_AF252188_IEcoCGI1OneWayOutput_Polyline+0xfc>
   88ec8:	f9400ba0 	ldr	x0, [x29, #16]
   88ecc:	f9400400 	ldr	x0, [x0, #8]
   88ed0:	f9400000 	ldr	x0, [x0]
   88ed4:	79c00000 	ldrsh	w0, [x0]
   88ed8:	79005fa0 	strh	w0, [x29, #46]
   88edc:	f9400ba0 	ldr	x0, [x29, #16]
   88ee0:	f9400400 	ldr	x0, [x0, #8]
   88ee4:	91002000 	add	x0, x0, #0x8
   88ee8:	f9400000 	ldr	x0, [x0]
   88eec:	79c00000 	ldrsh	w0, [x0]
   88ef0:	79005ba0 	strh	w0, [x29, #44]
   88ef4:	f9400ba0 	ldr	x0, [x29, #16]
   88ef8:	f9400400 	ldr	x0, [x0, #8]
   88efc:	f9400000 	ldr	x0, [x0]
   88f00:	79c00400 	ldrsh	w0, [x0, #2]
   88f04:	790057a0 	strh	w0, [x29, #42]
   88f08:	f9400ba0 	ldr	x0, [x29, #16]
   88f0c:	f9400400 	ldr	x0, [x0, #8]
   88f10:	91002000 	add	x0, x0, #0x8
   88f14:	f9400000 	ldr	x0, [x0]
   88f18:	79c00400 	ldrsh	w0, [x0, #2]
   88f1c:	790053a0 	strh	w0, [x29, #40]
   88f20:	79405fa0 	ldrh	w0, [x29, #46]
   88f24:	79007fa0 	strh	w0, [x29, #62]
   88f28:	1400000e 	b	88f60 <CEcoVFB1VirtualDevice_AF252188_IEcoCGI1OneWayOutput_Polyline+0xe8>
   88f2c:	f9401ba0 	ldr	x0, [x29, #48]
   88f30:	f9400c00 	ldr	x0, [x0, #24]
   88f34:	f9400000 	ldr	x0, [x0]
   88f38:	f9403004 	ldr	x4, [x0, #96]
   88f3c:	f9401ba0 	ldr	x0, [x29, #48]
   88f40:	f9400c00 	ldr	x0, [x0, #24]
   88f44:	794053a3 	ldrh	w3, [x29, #40]
   88f48:	79407fa2 	ldrh	w2, [x29, #62]
   88f4c:	12800001 	mov	w1, #0xffffffff            	// #-1
   88f50:	d63f0080 	blr	x4
   88f54:	79407fa0 	ldrh	w0, [x29, #62]
   88f58:	11000400 	add	w0, w0, #0x1
   88f5c:	79007fa0 	strh	w0, [x29, #62]
   88f60:	79407fa1 	ldrh	w1, [x29, #62]
   88f64:	79405ba0 	ldrh	w0, [x29, #44]
   88f68:	6b00003f 	cmp	w1, w0
   88f6c:	54fffe09 	b.ls	88f2c <CEcoVFB1VirtualDevice_AF252188_IEcoCGI1OneWayOutput_Polyline+0xb4>  // b.plast
   88f70:	52800000 	mov	w0, #0x0                   	// #0
   88f74:	a8c47bfd 	ldp	x29, x30, [sp], #64
   88f78:	d65f03c0 	ret

0000000000088f7c <CEcoVFB1VirtualDevice_AF252188_IEcoCGI1OneWayOutput_Text>:
   88f7c:	a9bb7bfd 	stp	x29, x30, [sp, #-80]!
   88f80:	910003fd 	mov	x29, sp
   88f84:	f90017a0 	str	x0, [x29, #40]
   88f88:	f90013a1 	str	x1, [x29, #32]
   88f8c:	b9001fa2 	str	w2, [x29, #28]
   88f90:	f9000ba3 	str	x3, [x29, #16]
   88f94:	f94017a0 	ldr	x0, [x29, #40]
   88f98:	d1002000 	sub	x0, x0, #0x8
   88f9c:	f9001fa0 	str	x0, [x29, #56]
   88fa0:	f9400ba0 	ldr	x0, [x29, #16]
   88fa4:	f90027a0 	str	x0, [x29, #72]
   88fa8:	79006fbf 	strh	wzr, [x29, #54]
   88fac:	79008fbf 	strh	wzr, [x29, #70]
   88fb0:	f94017a0 	ldr	x0, [x29, #40]
   88fb4:	f100001f 	cmp	x0, #0x0
   88fb8:	540000c1 	b.ne	88fd0 <CEcoVFB1VirtualDevice_AF252188_IEcoCGI1OneWayOutput_Text+0x54>  // b.any
   88fbc:	f9400ba0 	ldr	x0, [x29, #16]
   88fc0:	f100001f 	cmp	x0, #0x0
   88fc4:	54000061 	b.ne	88fd0 <CEcoVFB1VirtualDevice_AF252188_IEcoCGI1OneWayOutput_Text+0x54>  // b.any
   88fc8:	12800000 	mov	w0, #0xffffffff            	// #-1
   88fcc:	1400003f 	b	890c8 <CEcoVFB1VirtualDevice_AF252188_IEcoCGI1OneWayOutput_Text+0x14c>
   88fd0:	f94013a0 	ldr	x0, [x29, #32]
   88fd4:	79400000 	ldrh	w0, [x0]
   88fd8:	79008fa0 	strh	w0, [x29, #70]
   88fdc:	f9401fa0 	ldr	x0, [x29, #56]
   88fe0:	f9400c00 	ldr	x0, [x0, #24]
   88fe4:	f9400000 	ldr	x0, [x0]
   88fe8:	f9401404 	ldr	x4, [x0, #40]
   88fec:	f9401fa0 	ldr	x0, [x29, #56]
   88ff0:	f9400c05 	ldr	x5, [x0, #24]
   88ff4:	f94013a0 	ldr	x0, [x29, #32]
   88ff8:	79c00000 	ldrsh	w0, [x0]
   88ffc:	12003c01 	and	w1, w0, #0xffff
   89000:	f94013a0 	ldr	x0, [x29, #32]
   89004:	79c00400 	ldrsh	w0, [x0, #2]
   89008:	12003c00 	and	w0, w0, #0xffff
   8900c:	2a0003e3 	mov	w3, w0
   89010:	2a0103e2 	mov	w2, w1
   89014:	52800021 	mov	w1, #0x1                   	// #1
   89018:	aa0503e0 	mov	x0, x5
   8901c:	d63f0080 	blr	x4
   89020:	14000025 	b	890b4 <CEcoVFB1VirtualDevice_AF252188_IEcoCGI1OneWayOutput_Text+0x138>
   89024:	f9401fa0 	ldr	x0, [x29, #56]
   89028:	f9400c00 	ldr	x0, [x0, #24]
   8902c:	f9400000 	ldr	x0, [x0]
   89030:	f9401404 	ldr	x4, [x0, #40]
   89034:	f9401fa0 	ldr	x0, [x29, #56]
   89038:	f9400c05 	ldr	x5, [x0, #24]
   8903c:	79408fa1 	ldrh	w1, [x29, #70]
   89040:	f94013a0 	ldr	x0, [x29, #32]
   89044:	79c00400 	ldrsh	w0, [x0, #2]
   89048:	12003c00 	and	w0, w0, #0xffff
   8904c:	2a0003e3 	mov	w3, w0
   89050:	2a0103e2 	mov	w2, w1
   89054:	52800021 	mov	w1, #0x1                   	// #1
   89058:	aa0503e0 	mov	x0, x5
   8905c:	d63f0080 	blr	x4
   89060:	79408fa0 	ldrh	w0, [x29, #70]
   89064:	11001000 	add	w0, w0, #0x4
   89068:	12003c00 	and	w0, w0, #0xffff
   8906c:	79008fa0 	strh	w0, [x29, #70]
   89070:	f9401fa0 	ldr	x0, [x29, #56]
   89074:	f9400c00 	ldr	x0, [x0, #24]
   89078:	f9400000 	ldr	x0, [x0]
   8907c:	f9402c05 	ldr	x5, [x0, #88]
   89080:	f9401fa0 	ldr	x0, [x29, #56]
   89084:	f9400c06 	ldr	x6, [x0, #24]
   89088:	f94027a0 	ldr	x0, [x29, #72]
   8908c:	39400000 	ldrb	w0, [x0]
   89090:	52800024 	mov	w4, #0x1                   	// #1
   89094:	2a0003e3 	mov	w3, w0
   89098:	528001e2 	mov	w2, #0xf                   	// #15
   8909c:	52800021 	mov	w1, #0x1                   	// #1
   890a0:	aa0603e0 	mov	x0, x6
   890a4:	d63f00a0 	blr	x5
   890a8:	f94027a0 	ldr	x0, [x29, #72]
   890ac:	91000400 	add	x0, x0, #0x1
   890b0:	f90027a0 	str	x0, [x29, #72]
   890b4:	f94027a0 	ldr	x0, [x29, #72]
   890b8:	39400000 	ldrb	w0, [x0]
   890bc:	7100001f 	cmp	w0, #0x0
   890c0:	54fffb21 	b.ne	89024 <CEcoVFB1VirtualDevice_AF252188_IEcoCGI1OneWayOutput_Text+0xa8>  // b.any
   890c4:	79c06fa0 	ldrsh	w0, [x29, #54]
   890c8:	a8c57bfd 	ldp	x29, x30, [sp], #80
   890cc:	d65f03c0 	ret

00000000000890d0 <CEcoVFB1VirtualDevice_AF252188_IEcoCGI1OneWayOutput_LineType>:
   890d0:	d10083ff 	sub	sp, sp, #0x20
   890d4:	f90007e0 	str	x0, [sp, #8]
   890d8:	79000fe1 	strh	w1, [sp, #6]
   890dc:	f94007e0 	ldr	x0, [sp, #8]
   890e0:	d1002000 	sub	x0, x0, #0x8
   890e4:	f9000fe0 	str	x0, [sp, #24]
   890e8:	f94007e0 	ldr	x0, [sp, #8]
   890ec:	f100001f 	cmp	x0, #0x0
   890f0:	54000061 	b.ne	890fc <CEcoVFB1VirtualDevice_AF252188_IEcoCGI1OneWayOutput_LineType+0x2c>  // b.any
   890f4:	12800000 	mov	w0, #0xffffffff            	// #-1
   890f8:	14000002 	b	89100 <CEcoVFB1VirtualDevice_AF252188_IEcoCGI1OneWayOutput_LineType+0x30>
   890fc:	52800000 	mov	w0, #0x0                   	// #0
   89100:	910083ff 	add	sp, sp, #0x20
   89104:	d65f03c0 	ret

0000000000089108 <CEcoVFB1VirtualDevice_AF252188_IEcoCGI1OneWayOutput_CharcterHeight>:
   89108:	d10083ff 	sub	sp, sp, #0x20
   8910c:	f90007e0 	str	x0, [sp, #8]
   89110:	79000fe1 	strh	w1, [sp, #6]
   89114:	f94007e0 	ldr	x0, [sp, #8]
   89118:	d1002000 	sub	x0, x0, #0x8
   8911c:	f9000fe0 	str	x0, [sp, #24]
   89120:	f94007e0 	ldr	x0, [sp, #8]
   89124:	f100001f 	cmp	x0, #0x0
   89128:	54000061 	b.ne	89134 <CEcoVFB1VirtualDevice_AF252188_IEcoCGI1OneWayOutput_CharcterHeight+0x2c>  // b.any
   8912c:	12800000 	mov	w0, #0xffffffff            	// #-1
   89130:	14000002 	b	89138 <CEcoVFB1VirtualDevice_AF252188_IEcoCGI1OneWayOutput_CharcterHeight+0x30>
   89134:	52800000 	mov	w0, #0x0                   	// #0
   89138:	910083ff 	add	sp, sp, #0x20
   8913c:	d65f03c0 	ret

0000000000089140 <createCEcoVFB1VirtualDevice_AF252188>:
   89140:	d100c3ff 	sub	sp, sp, #0x30
   89144:	f9000fe0 	str	x0, [sp, #24]
   89148:	f9000be1 	str	x1, [sp, #16]
   8914c:	f90007e2 	str	x2, [sp, #8]
   89150:	f90003e3 	str	x3, [sp]
   89154:	12800000 	mov	w0, #0xffffffff            	// #-1
   89158:	79005fe0 	strh	w0, [sp, #46]
   8915c:	f90013ff 	str	xzr, [sp, #32]
   89160:	f94003e0 	ldr	x0, [sp]
   89164:	f100001f 	cmp	x0, #0x0
   89168:	54000061 	b.ne	89174 <createCEcoVFB1VirtualDevice_AF252188+0x34>  // b.any
   8916c:	79c05fe0 	ldrsh	w0, [sp, #46]
   89170:	14000018 	b	891d0 <createCEcoVFB1VirtualDevice_AF252188+0x90>
   89174:	d0000020 	adrp	x0, 8f000 <g_x939B1DCDB6404F7D9C072291AF252188Factory+0xa0>
   89178:	91076000 	add	x0, x0, #0x1d8
   8917c:	f90013e0 	str	x0, [sp, #32]
   89180:	f94013e0 	ldr	x0, [sp, #32]
   89184:	b9401000 	ldr	w0, [x0, #16]
   89188:	7100041f 	cmp	w0, #0x1
   8918c:	540000e9 	b.ls	891a8 <createCEcoVFB1VirtualDevice_AF252188+0x68>  // b.plast
   89190:	f94013e0 	ldr	x0, [sp, #32]
   89194:	b9401000 	ldr	w0, [x0, #16]
   89198:	11000401 	add	w1, w0, #0x1
   8919c:	f94013e0 	ldr	x0, [sp, #32]
   891a0:	b9001001 	str	w1, [x0, #16]
   891a4:	14000004 	b	891b4 <createCEcoVFB1VirtualDevice_AF252188+0x74>
   891a8:	f94013e0 	ldr	x0, [sp, #32]
   891ac:	52800021 	mov	w1, #0x1                   	// #1
   891b0:	b9001001 	str	w1, [x0, #16]
   891b4:	f94013e0 	ldr	x0, [sp, #32]
   891b8:	f94007e1 	ldr	x1, [sp, #8]
   891bc:	f9000c01 	str	x1, [x0, #24]
   891c0:	f94003e0 	ldr	x0, [sp]
   891c4:	f94013e1 	ldr	x1, [sp, #32]
   891c8:	f9000001 	str	x1, [x0]
   891cc:	52800000 	mov	w0, #0x0                   	// #0
   891d0:	9100c3ff 	add	sp, sp, #0x30
   891d4:	d65f03c0 	ret

00000000000891d8 <deleteCEcoVFB1VirtualDevice_AF252188>:
   891d8:	a9bd7bfd 	stp	x29, x30, [sp, #-48]!
   891dc:	910003fd 	mov	x29, sp
   891e0:	f9000fa0 	str	x0, [x29, #24]
   891e4:	f9400fa0 	ldr	x0, [x29, #24]
   891e8:	f90017a0 	str	x0, [x29, #40]
   891ec:	f94017a0 	ldr	x0, [x29, #40]
   891f0:	f9400c00 	ldr	x0, [x0, #24]
   891f4:	f9400000 	ldr	x0, [x0]
   891f8:	f9400801 	ldr	x1, [x0, #16]
   891fc:	f94017a0 	ldr	x0, [x29, #40]
   89200:	f9400c00 	ldr	x0, [x0, #24]
   89204:	d63f0020 	blr	x1
   89208:	d503201f 	nop
   8920c:	a8c37bfd 	ldp	x29, x30, [sp], #48
   89210:	d65f03c0 	ret

0000000000089214 <IsEqualUGUID_00000000000000000000000042757331>:
   89214:	d10083ff 	sub	sp, sp, #0x20
   89218:	f90007e0 	str	x0, [sp, #8]
   8921c:	f90003e1 	str	x1, [sp]
   89220:	39007fff 	strb	wzr, [sp, #31]
   89224:	39007bff 	strb	wzr, [sp, #30]
   89228:	39007bff 	strb	wzr, [sp, #30]
   8922c:	14000015 	b	89280 <IsEqualUGUID_00000000000000000000000042757331+0x6c>
   89230:	39807be0 	ldrsb	x0, [sp, #30]
   89234:	f94007e1 	ldr	x1, [sp, #8]
   89238:	8b000020 	add	x0, x1, x0
   8923c:	39400001 	ldrb	w1, [x0]
   89240:	39807be0 	ldrsb	x0, [sp, #30]
   89244:	f94003e2 	ldr	x2, [sp]
   89248:	8b000040 	add	x0, x2, x0
   8924c:	39400000 	ldrb	w0, [x0]
   89250:	6b00003f 	cmp	w1, w0
   89254:	54000081 	b.ne	89264 <IsEqualUGUID_00000000000000000000000042757331+0x50>  // b.any
   89258:	52800020 	mov	w0, #0x1                   	// #1
   8925c:	39007fe0 	strb	w0, [sp, #31]
   89260:	14000003 	b	8926c <IsEqualUGUID_00000000000000000000000042757331+0x58>
   89264:	39007fff 	strb	wzr, [sp, #31]
   89268:	14000009 	b	8928c <IsEqualUGUID_00000000000000000000000042757331+0x78>
   8926c:	39c07be0 	ldrsb	w0, [sp, #30]
   89270:	12001c00 	and	w0, w0, #0xff
   89274:	11000400 	add	w0, w0, #0x1
   89278:	12001c00 	and	w0, w0, #0xff
   8927c:	39007be0 	strb	w0, [sp, #30]
   89280:	39c07be0 	ldrsb	w0, [sp, #30]
   89284:	7100441f 	cmp	w0, #0x11
   89288:	54fffd4d 	b.le	89230 <IsEqualUGUID_00000000000000000000000042757331+0x1c>
   8928c:	39407fe0 	ldrb	w0, [sp, #31]
   89290:	910083ff 	add	sp, sp, #0x20
   89294:	d65f03c0 	ret

0000000000089298 <CEcoInterfaceBus1Factory_42757331_QueryInterface>:
   89298:	a9bd7bfd 	stp	x29, x30, [sp, #-48]!
   8929c:	910003fd 	mov	x29, sp
   892a0:	f90017a0 	str	x0, [x29, #40]
   892a4:	f90013a1 	str	x1, [x29, #32]
   892a8:	f9000fa2 	str	x2, [x29, #24]
   892ac:	d0000420 	adrp	x0, 10f000 <BitFont+0x788>
   892b0:	91280000 	add	x0, x0, #0xa00
   892b4:	aa0003e1 	mov	x1, x0
   892b8:	f94013a0 	ldr	x0, [x29, #32]
   892bc:	97ffffd6 	bl	89214 <IsEqualUGUID_00000000000000000000000042757331>
   892c0:	12001c00 	and	w0, w0, #0xff
   892c4:	7100001f 	cmp	w0, #0x0
   892c8:	54000121 	b.ne	892ec <CEcoInterfaceBus1Factory_42757331_QueryInterface+0x54>  // b.any
   892cc:	d0000420 	adrp	x0, 10f000 <BitFont+0x788>
   892d0:	91286000 	add	x0, x0, #0xa18
   892d4:	aa0003e1 	mov	x1, x0
   892d8:	f94013a0 	ldr	x0, [x29, #32]
   892dc:	97ffffce 	bl	89214 <IsEqualUGUID_00000000000000000000000042757331>
   892e0:	12001c00 	and	w0, w0, #0xff
   892e4:	7100001f 	cmp	w0, #0x0
   892e8:	54000160 	b.eq	89314 <CEcoInterfaceBus1Factory_42757331_QueryInterface+0x7c>  // b.none
   892ec:	f9400fa0 	ldr	x0, [x29, #24]
   892f0:	f94017a1 	ldr	x1, [x29, #40]
   892f4:	f9000001 	str	x1, [x0]
   892f8:	f94017a0 	ldr	x0, [x29, #40]
   892fc:	f9400000 	ldr	x0, [x0]
   89300:	f9400401 	ldr	x1, [x0, #8]
   89304:	f94017a0 	ldr	x0, [x29, #40]
   89308:	d63f0020 	blr	x1
   8930c:	52800000 	mov	w0, #0x0                   	// #0
   89310:	14000004 	b	89320 <CEcoInterfaceBus1Factory_42757331_QueryInterface+0x88>
   89314:	f9400fa0 	ldr	x0, [x29, #24]
   89318:	f900001f 	str	xzr, [x0]
   8931c:	12800000 	mov	w0, #0xffffffff            	// #-1
   89320:	a8c37bfd 	ldp	x29, x30, [sp], #48
   89324:	d65f03c0 	ret

0000000000089328 <CEcoInterfaceBus1Factory_42757331_AddRef>:
   89328:	d10083ff 	sub	sp, sp, #0x20
   8932c:	f90007e0 	str	x0, [sp, #8]
   89330:	f94007e0 	ldr	x0, [sp, #8]
   89334:	f9000fe0 	str	x0, [sp, #24]
   89338:	f94007e0 	ldr	x0, [sp, #8]
   8933c:	f100001f 	cmp	x0, #0x0
   89340:	54000061 	b.ne	8934c <CEcoInterfaceBus1Factory_42757331_AddRef+0x24>  // b.any
   89344:	12800000 	mov	w0, #0xffffffff            	// #-1
   89348:	14000008 	b	89368 <CEcoInterfaceBus1Factory_42757331_AddRef+0x40>
   8934c:	f9400fe0 	ldr	x0, [sp, #24]
   89350:	b9400800 	ldr	w0, [x0, #8]
   89354:	11000401 	add	w1, w0, #0x1
   89358:	f9400fe0 	ldr	x0, [sp, #24]
   8935c:	b9000801 	str	w1, [x0, #8]
   89360:	f9400fe0 	ldr	x0, [sp, #24]
   89364:	b9400800 	ldr	w0, [x0, #8]
   89368:	910083ff 	add	sp, sp, #0x20
   8936c:	d65f03c0 	ret

0000000000089370 <CEcoInterfaceBus1Factory_42757331_Release>:
   89370:	d10083ff 	sub	sp, sp, #0x20
   89374:	f90007e0 	str	x0, [sp, #8]
   89378:	f94007e0 	ldr	x0, [sp, #8]
   8937c:	f9000fe0 	str	x0, [sp, #24]
   89380:	f94007e0 	ldr	x0, [sp, #8]
   89384:	f100001f 	cmp	x0, #0x0
   89388:	54000061 	b.ne	89394 <CEcoInterfaceBus1Factory_42757331_Release+0x24>  // b.any
   8938c:	12800000 	mov	w0, #0xffffffff            	// #-1
   89390:	1400000e 	b	893c8 <CEcoInterfaceBus1Factory_42757331_Release+0x58>
   89394:	f9400fe0 	ldr	x0, [sp, #24]
   89398:	b9400800 	ldr	w0, [x0, #8]
   8939c:	51000401 	sub	w1, w0, #0x1
   893a0:	f9400fe0 	ldr	x0, [sp, #24]
   893a4:	b9000801 	str	w1, [x0, #8]
   893a8:	f9400fe0 	ldr	x0, [sp, #24]
   893ac:	b9400800 	ldr	w0, [x0, #8]
   893b0:	7100001f 	cmp	w0, #0x0
   893b4:	54000061 	b.ne	893c0 <CEcoInterfaceBus1Factory_42757331_Release+0x50>  // b.any
   893b8:	52800000 	mov	w0, #0x0                   	// #0
   893bc:	14000003 	b	893c8 <CEcoInterfaceBus1Factory_42757331_Release+0x58>
   893c0:	f9400fe0 	ldr	x0, [sp, #24]
   893c4:	b9400800 	ldr	w0, [x0, #8]
   893c8:	910083ff 	add	sp, sp, #0x20
   893cc:	d65f03c0 	ret

00000000000893d0 <CEcoInterfaceBus1Factory_42757331_Init>:
   893d0:	a9bc7bfd 	stp	x29, x30, [sp, #-64]!
   893d4:	910003fd 	mov	x29, sp
   893d8:	f90017a0 	str	x0, [x29, #40]
   893dc:	f90013a1 	str	x1, [x29, #32]
   893e0:	f9000fa2 	str	x2, [x29, #24]
   893e4:	f94017a0 	ldr	x0, [x29, #40]
   893e8:	f9001fa0 	str	x0, [x29, #56]
   893ec:	12800000 	mov	w0, #0xffffffff            	// #-1
   893f0:	79006fa0 	strh	w0, [x29, #54]
   893f4:	f94017a0 	ldr	x0, [x29, #40]
   893f8:	f100001f 	cmp	x0, #0x0
   893fc:	54000061 	b.ne	89408 <CEcoInterfaceBus1Factory_42757331_Init+0x38>  // b.any
   89400:	12800000 	mov	w0, #0xffffffff            	// #-1
   89404:	14000008 	b	89424 <CEcoInterfaceBus1Factory_42757331_Init+0x54>
   89408:	f9401fa0 	ldr	x0, [x29, #56]
   8940c:	f9400c02 	ldr	x2, [x0, #24]
   89410:	f94013a1 	ldr	x1, [x29, #32]
   89414:	f9400fa0 	ldr	x0, [x29, #24]
   89418:	d63f0040 	blr	x2
   8941c:	79006fa0 	strh	w0, [x29, #54]
   89420:	79c06fa0 	ldrsh	w0, [x29, #54]
   89424:	a8c47bfd 	ldp	x29, x30, [sp], #64
   89428:	d65f03c0 	ret

000000000008942c <CEcoInterfaceBus1Factory_42757331_Alloc>:
   8942c:	a9ba7bfd 	stp	x29, x30, [sp, #-96]!
   89430:	910003fd 	mov	x29, sp
   89434:	f9001fa0 	str	x0, [x29, #56]
   89438:	f9001ba1 	str	x1, [x29, #48]
   8943c:	f90017a2 	str	x2, [x29, #40]
   89440:	f90013a3 	str	x3, [x29, #32]
   89444:	f9000fa4 	str	x4, [x29, #24]
   89448:	f9401fa0 	ldr	x0, [x29, #56]
   8944c:	f9002fa0 	str	x0, [x29, #88]
   89450:	f90027bf 	str	xzr, [x29, #72]
   89454:	12800000 	mov	w0, #0xffffffff            	// #-1
   89458:	7900afa0 	strh	w0, [x29, #86]
   8945c:	f9401fa0 	ldr	x0, [x29, #56]
   89460:	f100001f 	cmp	x0, #0x0
   89464:	54000061 	b.ne	89470 <CEcoInterfaceBus1Factory_42757331_Alloc+0x44>  // b.any
   89468:	12800000 	mov	w0, #0xffffffff            	// #-1
   8946c:	1400002c 	b	8951c <CEcoInterfaceBus1Factory_42757331_Alloc+0xf0>
   89470:	f94017a0 	ldr	x0, [x29, #40]
   89474:	f100001f 	cmp	x0, #0x0
   89478:	54000160 	b.eq	894a4 <CEcoInterfaceBus1Factory_42757331_Alloc+0x78>  // b.none
   8947c:	d0000420 	adrp	x0, 10f000 <BitFont+0x788>
   89480:	91280000 	add	x0, x0, #0xa00
   89484:	aa0003e1 	mov	x1, x0
   89488:	f94013a0 	ldr	x0, [x29, #32]
   8948c:	97ffff62 	bl	89214 <IsEqualUGUID_00000000000000000000000042757331>
   89490:	12001c00 	and	w0, w0, #0xff
   89494:	7100001f 	cmp	w0, #0x0
   89498:	54000061 	b.ne	894a4 <CEcoInterfaceBus1Factory_42757331_Alloc+0x78>  // b.any
   8949c:	12800000 	mov	w0, #0xffffffff            	// #-1
   894a0:	1400001f 	b	8951c <CEcoInterfaceBus1Factory_42757331_Alloc+0xf0>
   894a4:	f9402fa0 	ldr	x0, [x29, #88]
   894a8:	f9400803 	ldr	x3, [x0, #16]
   894ac:	910123a0 	add	x0, x29, #0x48
   894b0:	aa0003e2 	mov	x2, x0
   894b4:	f94017a1 	ldr	x1, [x29, #40]
   894b8:	f9401ba0 	ldr	x0, [x29, #48]
   894bc:	d63f0060 	blr	x3
   894c0:	7900afa0 	strh	w0, [x29, #86]
   894c4:	79c0afa0 	ldrsh	w0, [x29, #86]
   894c8:	7100001f 	cmp	w0, #0x0
   894cc:	54000081 	b.ne	894dc <CEcoInterfaceBus1Factory_42757331_Alloc+0xb0>  // b.any
   894d0:	f94027a0 	ldr	x0, [x29, #72]
   894d4:	f100001f 	cmp	x0, #0x0
   894d8:	54000061 	b.ne	894e4 <CEcoInterfaceBus1Factory_42757331_Alloc+0xb8>  // b.any
   894dc:	12800000 	mov	w0, #0xffffffff            	// #-1
   894e0:	1400000f 	b	8951c <CEcoInterfaceBus1Factory_42757331_Alloc+0xf0>
   894e4:	f94027a0 	ldr	x0, [x29, #72]
   894e8:	f9400000 	ldr	x0, [x0]
   894ec:	f9400003 	ldr	x3, [x0]
   894f0:	f94027a0 	ldr	x0, [x29, #72]
   894f4:	f9400fa2 	ldr	x2, [x29, #24]
   894f8:	f94013a1 	ldr	x1, [x29, #32]
   894fc:	d63f0060 	blr	x3
   89500:	7900afa0 	strh	w0, [x29, #86]
   89504:	f94027a0 	ldr	x0, [x29, #72]
   89508:	f9400000 	ldr	x0, [x0]
   8950c:	f9400801 	ldr	x1, [x0, #16]
   89510:	f94027a0 	ldr	x0, [x29, #72]
   89514:	d63f0020 	blr	x1
   89518:	79c0afa0 	ldrsh	w0, [x29, #86]
   8951c:	a8c67bfd 	ldp	x29, x30, [sp], #96
   89520:	d65f03c0 	ret

0000000000089524 <CEcoInterfaceBus1Factory_42757331_get_Name>:
   89524:	d10083ff 	sub	sp, sp, #0x20
   89528:	f90007e0 	str	x0, [sp, #8]
   8952c:	f94007e0 	ldr	x0, [sp, #8]
   89530:	f9000fe0 	str	x0, [sp, #24]
   89534:	f94007e0 	ldr	x0, [sp, #8]
   89538:	f100001f 	cmp	x0, #0x0
   8953c:	54000061 	b.ne	89548 <CEcoInterfaceBus1Factory_42757331_get_Name+0x24>  // b.any
   89540:	d2800000 	mov	x0, #0x0                   	// #0
   89544:	14000003 	b	89550 <CEcoInterfaceBus1Factory_42757331_get_Name+0x2c>
   89548:	f9400fe0 	ldr	x0, [sp, #24]
   8954c:	91008000 	add	x0, x0, #0x20
   89550:	910083ff 	add	sp, sp, #0x20
   89554:	d65f03c0 	ret

0000000000089558 <CEcoInterfaceBus1Factory_42757331_get_Version>:
   89558:	d10083ff 	sub	sp, sp, #0x20
   8955c:	f90007e0 	str	x0, [sp, #8]
   89560:	f94007e0 	ldr	x0, [sp, #8]
   89564:	f9000fe0 	str	x0, [sp, #24]
   89568:	f94007e0 	ldr	x0, [sp, #8]
   8956c:	f100001f 	cmp	x0, #0x0
   89570:	54000061 	b.ne	8957c <CEcoInterfaceBus1Factory_42757331_get_Version+0x24>  // b.any
   89574:	d2800000 	mov	x0, #0x0                   	// #0
   89578:	14000003 	b	89584 <CEcoInterfaceBus1Factory_42757331_get_Version+0x2c>
   8957c:	f9400fe0 	ldr	x0, [sp, #24]
   89580:	91018000 	add	x0, x0, #0x60
   89584:	910083ff 	add	sp, sp, #0x20
   89588:	d65f03c0 	ret

000000000008958c <CEcoInterfaceBus1Factory_42757331_get_Manufacturer>:
   8958c:	d10083ff 	sub	sp, sp, #0x20
   89590:	f90007e0 	str	x0, [sp, #8]
   89594:	f94007e0 	ldr	x0, [sp, #8]
   89598:	f9000fe0 	str	x0, [sp, #24]
   8959c:	f94007e0 	ldr	x0, [sp, #8]
   895a0:	f100001f 	cmp	x0, #0x0
   895a4:	54000061 	b.ne	895b0 <CEcoInterfaceBus1Factory_42757331_get_Manufacturer+0x24>  // b.any
   895a8:	d2800000 	mov	x0, #0x0                   	// #0
   895ac:	14000003 	b	895b8 <CEcoInterfaceBus1Factory_42757331_get_Manufacturer+0x2c>
   895b0:	f9400fe0 	ldr	x0, [sp, #24]
   895b4:	9101c000 	add	x0, x0, #0x70
   895b8:	910083ff 	add	sp, sp, #0x20
   895bc:	d65f03c0 	ret

00000000000895c0 <CEcoInterfaceBus1_42757331_IEcoSystem1_QueryInterface>:
   895c0:	a9bc7bfd 	stp	x29, x30, [sp, #-64]!
   895c4:	910003fd 	mov	x29, sp
   895c8:	f90017a0 	str	x0, [x29, #40]
   895cc:	f90013a1 	str	x1, [x29, #32]
   895d0:	f9000fa2 	str	x2, [x29, #24]
   895d4:	f94017a0 	ldr	x0, [x29, #40]
   895d8:	f9001fa0 	str	x0, [x29, #56]
   895dc:	f94017a0 	ldr	x0, [x29, #40]
   895e0:	f100001f 	cmp	x0, #0x0
   895e4:	54000080 	b.eq	895f4 <CEcoInterfaceBus1_42757331_IEcoSystem1_QueryInterface+0x34>  // b.none
   895e8:	f9400fa0 	ldr	x0, [x29, #24]
   895ec:	f100001f 	cmp	x0, #0x0
   895f0:	54000061 	b.ne	895fc <CEcoInterfaceBus1_42757331_IEcoSystem1_QueryInterface+0x3c>  // b.any
   895f4:	12800000 	mov	w0, #0xffffffff            	// #-1
   895f8:	1400003c 	b	896e8 <CEcoInterfaceBus1_42757331_IEcoSystem1_QueryInterface+0x128>
   895fc:	d0000420 	adrp	x0, 10f000 <BitFont+0x788>
   89600:	912ce000 	add	x0, x0, #0xb38
   89604:	aa0003e1 	mov	x1, x0
   89608:	f94013a0 	ldr	x0, [x29, #32]
   8960c:	97ffff02 	bl	89214 <IsEqualUGUID_00000000000000000000000042757331>
   89610:	12001c00 	and	w0, w0, #0xff
   89614:	7100001f 	cmp	w0, #0x0
   89618:	540001a0 	b.eq	8964c <CEcoInterfaceBus1_42757331_IEcoSystem1_QueryInterface+0x8c>  // b.none
   8961c:	f9401fa0 	ldr	x0, [x29, #56]
   89620:	f9400c01 	ldr	x1, [x0, #24]
   89624:	f9400fa0 	ldr	x0, [x29, #24]
   89628:	f9000001 	str	x1, [x0]
   8962c:	f9401fa0 	ldr	x0, [x29, #56]
   89630:	f9400c00 	ldr	x0, [x0, #24]
   89634:	f9400000 	ldr	x0, [x0]
   89638:	f9400401 	ldr	x1, [x0, #8]
   8963c:	f9401fa0 	ldr	x0, [x29, #56]
   89640:	f9400c00 	ldr	x0, [x0, #24]
   89644:	d63f0020 	blr	x1
   89648:	14000027 	b	896e4 <CEcoInterfaceBus1_42757331_IEcoSystem1_QueryInterface+0x124>
   8964c:	d0000420 	adrp	x0, 10f000 <BitFont+0x788>
   89650:	912c8000 	add	x0, x0, #0xb20
   89654:	aa0003e1 	mov	x1, x0
   89658:	f94013a0 	ldr	x0, [x29, #32]
   8965c:	97fffeee 	bl	89214 <IsEqualUGUID_00000000000000000000000042757331>
   89660:	12001c00 	and	w0, w0, #0xff
   89664:	7100001f 	cmp	w0, #0x0
   89668:	54000140 	b.eq	89690 <CEcoInterfaceBus1_42757331_IEcoSystem1_QueryInterface+0xd0>  // b.none
   8966c:	f9401fa1 	ldr	x1, [x29, #56]
   89670:	f9400fa0 	ldr	x0, [x29, #24]
   89674:	f9000001 	str	x1, [x0]
   89678:	f9401fa0 	ldr	x0, [x29, #56]
   8967c:	f9400000 	ldr	x0, [x0]
   89680:	f9400401 	ldr	x1, [x0, #8]
   89684:	f9401fa0 	ldr	x0, [x29, #56]
   89688:	d63f0020 	blr	x1
   8968c:	14000016 	b	896e4 <CEcoInterfaceBus1_42757331_IEcoSystem1_QueryInterface+0x124>
   89690:	d0000420 	adrp	x0, 10f000 <BitFont+0x788>
   89694:	912bc000 	add	x0, x0, #0xaf0
   89698:	aa0003e1 	mov	x1, x0
   8969c:	f94013a0 	ldr	x0, [x29, #32]
   896a0:	97fffedd 	bl	89214 <IsEqualUGUID_00000000000000000000000042757331>
   896a4:	12001c00 	and	w0, w0, #0xff
   896a8:	7100001f 	cmp	w0, #0x0
   896ac:	54000140 	b.eq	896d4 <CEcoInterfaceBus1_42757331_IEcoSystem1_QueryInterface+0x114>  // b.none
   896b0:	f9401fa1 	ldr	x1, [x29, #56]
   896b4:	f9400fa0 	ldr	x0, [x29, #24]
   896b8:	f9000001 	str	x1, [x0]
   896bc:	f9401fa0 	ldr	x0, [x29, #56]
   896c0:	f9400000 	ldr	x0, [x0]
   896c4:	f9400401 	ldr	x1, [x0, #8]
   896c8:	f9401fa0 	ldr	x0, [x29, #56]
   896cc:	d63f0020 	blr	x1
   896d0:	14000005 	b	896e4 <CEcoInterfaceBus1_42757331_IEcoSystem1_QueryInterface+0x124>
   896d4:	f9400fa0 	ldr	x0, [x29, #24]
   896d8:	f900001f 	str	xzr, [x0]
   896dc:	12800000 	mov	w0, #0xffffffff            	// #-1
   896e0:	14000002 	b	896e8 <CEcoInterfaceBus1_42757331_IEcoSystem1_QueryInterface+0x128>
   896e4:	52800000 	mov	w0, #0x0                   	// #0
   896e8:	a8c47bfd 	ldp	x29, x30, [sp], #64
   896ec:	d65f03c0 	ret

00000000000896f0 <CEcoInterfaceBus1_42757331_IEcoSystem1_AddRef>:
   896f0:	d10083ff 	sub	sp, sp, #0x20
   896f4:	f90007e0 	str	x0, [sp, #8]
   896f8:	f94007e0 	ldr	x0, [sp, #8]
   896fc:	f9000fe0 	str	x0, [sp, #24]
   89700:	f94007e0 	ldr	x0, [sp, #8]
   89704:	f100001f 	cmp	x0, #0x0
   89708:	54000061 	b.ne	89714 <CEcoInterfaceBus1_42757331_IEcoSystem1_AddRef+0x24>  // b.any
   8970c:	12800000 	mov	w0, #0xffffffff            	// #-1
   89710:	14000008 	b	89730 <CEcoInterfaceBus1_42757331_IEcoSystem1_AddRef+0x40>
   89714:	f9400fe0 	ldr	x0, [sp, #24]
   89718:	b9400800 	ldr	w0, [x0, #8]
   8971c:	11000401 	add	w1, w0, #0x1
   89720:	f9400fe0 	ldr	x0, [sp, #24]
   89724:	b9000801 	str	w1, [x0, #8]
   89728:	f9400fe0 	ldr	x0, [sp, #24]
   8972c:	b9400800 	ldr	w0, [x0, #8]
   89730:	910083ff 	add	sp, sp, #0x20
   89734:	d65f03c0 	ret

0000000000089738 <CEcoInterfaceBus1_42757331_IEcoSystem1_Release>:
   89738:	d10083ff 	sub	sp, sp, #0x20
   8973c:	f90007e0 	str	x0, [sp, #8]
   89740:	f94007e0 	ldr	x0, [sp, #8]
   89744:	f9000fe0 	str	x0, [sp, #24]
   89748:	f94007e0 	ldr	x0, [sp, #8]
   8974c:	f100001f 	cmp	x0, #0x0
   89750:	54000061 	b.ne	8975c <CEcoInterfaceBus1_42757331_IEcoSystem1_Release+0x24>  // b.any
   89754:	12800000 	mov	w0, #0xffffffff            	// #-1
   89758:	1400000e 	b	89790 <CEcoInterfaceBus1_42757331_IEcoSystem1_Release+0x58>
   8975c:	f9400fe0 	ldr	x0, [sp, #24]
   89760:	b9400800 	ldr	w0, [x0, #8]
   89764:	51000401 	sub	w1, w0, #0x1
   89768:	f9400fe0 	ldr	x0, [sp, #24]
   8976c:	b9000801 	str	w1, [x0, #8]
   89770:	f9400fe0 	ldr	x0, [sp, #24]
   89774:	b9400800 	ldr	w0, [x0, #8]
   89778:	7100001f 	cmp	w0, #0x0
   8977c:	54000061 	b.ne	89788 <CEcoInterfaceBus1_42757331_IEcoSystem1_Release+0x50>  // b.any
   89780:	52800000 	mov	w0, #0x0                   	// #0
   89784:	14000003 	b	89790 <CEcoInterfaceBus1_42757331_IEcoSystem1_Release+0x58>
   89788:	f9400fe0 	ldr	x0, [sp, #24]
   8978c:	b9400800 	ldr	w0, [x0, #8]
   89790:	910083ff 	add	sp, sp, #0x20
   89794:	d65f03c0 	ret

0000000000089798 <CEcoInterfaceBus1_42757331_IEcoSystem1_set_Data>:
   89798:	d10083ff 	sub	sp, sp, #0x20
   8979c:	f90007e0 	str	x0, [sp, #8]
   897a0:	f90003e1 	str	x1, [sp]
   897a4:	f94007e0 	ldr	x0, [sp, #8]
   897a8:	f9000fe0 	str	x0, [sp, #24]
   897ac:	f94007e0 	ldr	x0, [sp, #8]
   897b0:	f100001f 	cmp	x0, #0x0
   897b4:	540000c0 	b.eq	897cc <CEcoInterfaceBus1_42757331_IEcoSystem1_set_Data+0x34>  // b.none
   897b8:	f9400fe0 	ldr	x0, [sp, #24]
   897bc:	f94003e1 	ldr	x1, [sp]
   897c0:	f9000801 	str	x1, [x0, #16]
   897c4:	d503201f 	nop
   897c8:	14000002 	b	897d0 <CEcoInterfaceBus1_42757331_IEcoSystem1_set_Data+0x38>
   897cc:	d503201f 	nop
   897d0:	910083ff 	add	sp, sp, #0x20
   897d4:	d65f03c0 	ret

00000000000897d8 <CEcoInterfaceBus1_42757331_IEcoSystem1_get_Data>:
   897d8:	d10083ff 	sub	sp, sp, #0x20
   897dc:	f90007e0 	str	x0, [sp, #8]
   897e0:	f94007e0 	ldr	x0, [sp, #8]
   897e4:	f9000fe0 	str	x0, [sp, #24]
   897e8:	f94007e0 	ldr	x0, [sp, #8]
   897ec:	f100001f 	cmp	x0, #0x0
   897f0:	54000061 	b.ne	897fc <CEcoInterfaceBus1_42757331_IEcoSystem1_get_Data+0x24>  // b.any
   897f4:	d2800000 	mov	x0, #0x0                   	// #0
   897f8:	14000003 	b	89804 <CEcoInterfaceBus1_42757331_IEcoSystem1_get_Data+0x2c>
   897fc:	f9400fe0 	ldr	x0, [sp, #24]
   89800:	f9400800 	ldr	x0, [x0, #16]
   89804:	910083ff 	add	sp, sp, #0x20
   89808:	d65f03c0 	ret

000000000008980c <CEcoInterfaceBus1_42757331_QueryInterface>:
   8980c:	a9bc7bfd 	stp	x29, x30, [sp, #-64]!
   89810:	910003fd 	mov	x29, sp
   89814:	f90017a0 	str	x0, [x29, #40]
   89818:	f90013a1 	str	x1, [x29, #32]
   8981c:	f9000fa2 	str	x2, [x29, #24]
   89820:	f94017a0 	ldr	x0, [x29, #40]
   89824:	f9001fa0 	str	x0, [x29, #56]
   89828:	f94017a0 	ldr	x0, [x29, #40]
   8982c:	f100001f 	cmp	x0, #0x0
   89830:	54000080 	b.eq	89840 <CEcoInterfaceBus1_42757331_QueryInterface+0x34>  // b.none
   89834:	f9400fa0 	ldr	x0, [x29, #24]
   89838:	f100001f 	cmp	x0, #0x0
   8983c:	54000061 	b.ne	89848 <CEcoInterfaceBus1_42757331_QueryInterface+0x3c>  // b.any
   89840:	12800000 	mov	w0, #0xffffffff            	// #-1
   89844:	1400004c 	b	89974 <CEcoInterfaceBus1_42757331_QueryInterface+0x168>
   89848:	d0000420 	adrp	x0, 10f000 <BitFont+0x788>
   8984c:	912ce000 	add	x0, x0, #0xb38
   89850:	aa0003e1 	mov	x1, x0
   89854:	f94013a0 	ldr	x0, [x29, #32]
   89858:	97fffe6f 	bl	89214 <IsEqualUGUID_00000000000000000000000042757331>
   8985c:	12001c00 	and	w0, w0, #0xff
   89860:	7100001f 	cmp	w0, #0x0
   89864:	54000140 	b.eq	8988c <CEcoInterfaceBus1_42757331_QueryInterface+0x80>  // b.none
   89868:	f9401fa1 	ldr	x1, [x29, #56]
   8986c:	f9400fa0 	ldr	x0, [x29, #24]
   89870:	f9000001 	str	x1, [x0]
   89874:	f9401fa0 	ldr	x0, [x29, #56]
   89878:	f9400000 	ldr	x0, [x0]
   8987c:	f9400401 	ldr	x1, [x0, #8]
   89880:	f9401fa0 	ldr	x0, [x29, #56]
   89884:	d63f0020 	blr	x1
   89888:	1400003a 	b	89970 <CEcoInterfaceBus1_42757331_QueryInterface+0x164>
   8988c:	d0000420 	adrp	x0, 10f000 <BitFont+0x788>
   89890:	912d4000 	add	x0, x0, #0xb50
   89894:	aa0003e1 	mov	x1, x0
   89898:	f94013a0 	ldr	x0, [x29, #32]
   8989c:	97fffe5e 	bl	89214 <IsEqualUGUID_00000000000000000000000042757331>
   898a0:	12001c00 	and	w0, w0, #0xff
   898a4:	7100001f 	cmp	w0, #0x0
   898a8:	54000160 	b.eq	898d4 <CEcoInterfaceBus1_42757331_QueryInterface+0xc8>  // b.none
   898ac:	f9401fa0 	ldr	x0, [x29, #56]
   898b0:	91002001 	add	x1, x0, #0x8
   898b4:	f9400fa0 	ldr	x0, [x29, #24]
   898b8:	f9000001 	str	x1, [x0]
   898bc:	f9401fa0 	ldr	x0, [x29, #56]
   898c0:	f9400000 	ldr	x0, [x0]
   898c4:	f9400401 	ldr	x1, [x0, #8]
   898c8:	f9401fa0 	ldr	x0, [x29, #56]
   898cc:	d63f0020 	blr	x1
   898d0:	14000028 	b	89970 <CEcoInterfaceBus1_42757331_QueryInterface+0x164>
   898d4:	d0000420 	adrp	x0, 10f000 <BitFont+0x788>
   898d8:	912e6000 	add	x0, x0, #0xb98
   898dc:	aa0003e1 	mov	x1, x0
   898e0:	f94013a0 	ldr	x0, [x29, #32]
   898e4:	97fffe4c 	bl	89214 <IsEqualUGUID_00000000000000000000000042757331>
   898e8:	12001c00 	and	w0, w0, #0xff
   898ec:	7100001f 	cmp	w0, #0x0
   898f0:	54000160 	b.eq	8991c <CEcoInterfaceBus1_42757331_QueryInterface+0x110>  // b.none
   898f4:	f9401fa0 	ldr	x0, [x29, #56]
   898f8:	91004001 	add	x1, x0, #0x10
   898fc:	f9400fa0 	ldr	x0, [x29, #24]
   89900:	f9000001 	str	x1, [x0]
   89904:	f9401fa0 	ldr	x0, [x29, #56]
   89908:	f9400000 	ldr	x0, [x0]
   8990c:	f9400401 	ldr	x1, [x0, #8]
   89910:	f9401fa0 	ldr	x0, [x29, #56]
   89914:	d63f0020 	blr	x1
   89918:	14000016 	b	89970 <CEcoInterfaceBus1_42757331_QueryInterface+0x164>
   8991c:	d0000420 	adrp	x0, 10f000 <BitFont+0x788>
   89920:	912bc000 	add	x0, x0, #0xaf0
   89924:	aa0003e1 	mov	x1, x0
   89928:	f94013a0 	ldr	x0, [x29, #32]
   8992c:	97fffe3a 	bl	89214 <IsEqualUGUID_00000000000000000000000042757331>
   89930:	12001c00 	and	w0, w0, #0xff
   89934:	7100001f 	cmp	w0, #0x0
   89938:	54000140 	b.eq	89960 <CEcoInterfaceBus1_42757331_QueryInterface+0x154>  // b.none
   8993c:	f9401fa1 	ldr	x1, [x29, #56]
   89940:	f9400fa0 	ldr	x0, [x29, #24]
   89944:	f9000001 	str	x1, [x0]
   89948:	f9401fa0 	ldr	x0, [x29, #56]
   8994c:	f9400000 	ldr	x0, [x0]
   89950:	f9400401 	ldr	x1, [x0, #8]
   89954:	f9401fa0 	ldr	x0, [x29, #56]
   89958:	d63f0020 	blr	x1
   8995c:	14000005 	b	89970 <CEcoInterfaceBus1_42757331_QueryInterface+0x164>
   89960:	f9400fa0 	ldr	x0, [x29, #24]
   89964:	f900001f 	str	xzr, [x0]
   89968:	12800000 	mov	w0, #0xffffffff            	// #-1
   8996c:	14000002 	b	89974 <CEcoInterfaceBus1_42757331_QueryInterface+0x168>
   89970:	52800000 	mov	w0, #0x0                   	// #0
   89974:	a8c47bfd 	ldp	x29, x30, [sp], #64
   89978:	d65f03c0 	ret

000000000008997c <CEcoInterfaceBus1_42757331_AddRef>:
   8997c:	d10083ff 	sub	sp, sp, #0x20
   89980:	f90007e0 	str	x0, [sp, #8]
   89984:	f94007e0 	ldr	x0, [sp, #8]
   89988:	f9000fe0 	str	x0, [sp, #24]
   8998c:	f94007e0 	ldr	x0, [sp, #8]
   89990:	f100001f 	cmp	x0, #0x0
   89994:	54000061 	b.ne	899a0 <CEcoInterfaceBus1_42757331_AddRef+0x24>  // b.any
   89998:	12800000 	mov	w0, #0xffffffff            	// #-1
   8999c:	14000008 	b	899bc <CEcoInterfaceBus1_42757331_AddRef+0x40>
   899a0:	f9400fe0 	ldr	x0, [sp, #24]
   899a4:	b9401800 	ldr	w0, [x0, #24]
   899a8:	11000401 	add	w1, w0, #0x1
   899ac:	f9400fe0 	ldr	x0, [sp, #24]
   899b0:	b9001801 	str	w1, [x0, #24]
   899b4:	f9400fe0 	ldr	x0, [sp, #24]
   899b8:	b9401800 	ldr	w0, [x0, #24]
   899bc:	910083ff 	add	sp, sp, #0x20
   899c0:	d65f03c0 	ret

00000000000899c4 <CEcoInterfaceBus1_42757331_Release>:
   899c4:	a9bd7bfd 	stp	x29, x30, [sp, #-48]!
   899c8:	910003fd 	mov	x29, sp
   899cc:	f9000fa0 	str	x0, [x29, #24]
   899d0:	f9400fa0 	ldr	x0, [x29, #24]
   899d4:	f90017a0 	str	x0, [x29, #40]
   899d8:	f9400fa0 	ldr	x0, [x29, #24]
   899dc:	f100001f 	cmp	x0, #0x0
   899e0:	54000061 	b.ne	899ec <CEcoInterfaceBus1_42757331_Release+0x28>  // b.any
   899e4:	12800000 	mov	w0, #0xffffffff            	// #-1
   899e8:	14000010 	b	89a28 <CEcoInterfaceBus1_42757331_Release+0x64>
   899ec:	f94017a0 	ldr	x0, [x29, #40]
   899f0:	b9401800 	ldr	w0, [x0, #24]
   899f4:	51000401 	sub	w1, w0, #0x1
   899f8:	f94017a0 	ldr	x0, [x29, #40]
   899fc:	b9001801 	str	w1, [x0, #24]
   89a00:	f94017a0 	ldr	x0, [x29, #40]
   89a04:	b9401800 	ldr	w0, [x0, #24]
   89a08:	7100001f 	cmp	w0, #0x0
   89a0c:	540000a1 	b.ne	89a20 <CEcoInterfaceBus1_42757331_Release+0x5c>  // b.any
   89a10:	f9400fa0 	ldr	x0, [x29, #24]
   89a14:	94000351 	bl	8a758 <deleteCEcoInterfaceBus1_42757331>
   89a18:	52800000 	mov	w0, #0x0                   	// #0
   89a1c:	14000003 	b	89a28 <CEcoInterfaceBus1_42757331_Release+0x64>
   89a20:	f94017a0 	ldr	x0, [x29, #40]
   89a24:	b9401800 	ldr	w0, [x0, #24]
   89a28:	a8c37bfd 	ldp	x29, x30, [sp], #48
   89a2c:	d65f03c0 	ret

0000000000089a30 <CEcoInterfaceBus1_42757331_Init>:
   89a30:	d10043ff 	sub	sp, sp, #0x10
   89a34:	f90007e0 	str	x0, [sp, #8]
   89a38:	f94007e0 	ldr	x0, [sp, #8]
   89a3c:	f100001f 	cmp	x0, #0x0
   89a40:	54000061 	b.ne	89a4c <CEcoInterfaceBus1_42757331_Init+0x1c>  // b.any
   89a44:	12800000 	mov	w0, #0xffffffff            	// #-1
   89a48:	14000002 	b	89a50 <CEcoInterfaceBus1_42757331_Init+0x20>
   89a4c:	52800000 	mov	w0, #0x0                   	// #0
   89a50:	910043ff 	add	sp, sp, #0x10
   89a54:	d65f03c0 	ret

0000000000089a58 <CEcoInterfaceBus1_42757331_InitWith>:
   89a58:	d10083ff 	sub	sp, sp, #0x20
   89a5c:	f9000fe0 	str	x0, [sp, #24]
   89a60:	f9000be1 	str	x1, [sp, #16]
   89a64:	b9000fe2 	str	w2, [sp, #12]
   89a68:	f9400fe0 	ldr	x0, [sp, #24]
   89a6c:	f100001f 	cmp	x0, #0x0
   89a70:	54000061 	b.ne	89a7c <CEcoInterfaceBus1_42757331_InitWith+0x24>  // b.any
   89a74:	12800000 	mov	w0, #0xffffffff            	// #-1
   89a78:	14000002 	b	89a80 <CEcoInterfaceBus1_42757331_InitWith+0x28>
   89a7c:	52800000 	mov	w0, #0x0                   	// #0
   89a80:	910083ff 	add	sp, sp, #0x20
   89a84:	d65f03c0 	ret

0000000000089a88 <CEcoInterfaceBus1_42757331_RegisterComponent>:
   89a88:	a9bb7bfd 	stp	x29, x30, [sp, #-80]!
   89a8c:	910003fd 	mov	x29, sp
   89a90:	f90017a0 	str	x0, [x29, #40]
   89a94:	f90013a1 	str	x1, [x29, #32]
   89a98:	f9000fa2 	str	x2, [x29, #24]
   89a9c:	f94017a0 	ldr	x0, [x29, #40]
   89aa0:	f9001ba0 	str	x0, [x29, #48]
   89aa4:	f90027bf 	str	xzr, [x29, #72]
   89aa8:	f90023bf 	str	xzr, [x29, #64]
   89aac:	b9003fbf 	str	wzr, [x29, #60]
   89ab0:	12800000 	mov	w0, #0xffffffff            	// #-1
   89ab4:	790077a0 	strh	w0, [x29, #58]
   89ab8:	f94017a0 	ldr	x0, [x29, #40]
   89abc:	f100001f 	cmp	x0, #0x0
   89ac0:	54000061 	b.ne	89acc <CEcoInterfaceBus1_42757331_RegisterComponent+0x44>  // b.any
   89ac4:	12800000 	mov	w0, #0xffffffff            	// #-1
   89ac8:	14000076 	b	89ca0 <CEcoInterfaceBus1_42757331_RegisterComponent+0x218>
   89acc:	f9401ba0 	ldr	x0, [x29, #48]
   89ad0:	f9401400 	ldr	x0, [x0, #40]
   89ad4:	f90027a0 	str	x0, [x29, #72]
   89ad8:	f9401ba0 	ldr	x0, [x29, #48]
   89adc:	f9401400 	ldr	x0, [x0, #40]
   89ae0:	f90023a0 	str	x0, [x29, #64]
   89ae4:	f94027a0 	ldr	x0, [x29, #72]
   89ae8:	f9401400 	ldr	x0, [x0, #40]
   89aec:	f100001f 	cmp	x0, #0x0
   89af0:	54000341 	b.ne	89b58 <CEcoInterfaceBus1_42757331_RegisterComponent+0xd0>  // b.any
   89af4:	f94027a0 	ldr	x0, [x29, #72]
   89af8:	f94013a1 	ldr	x1, [x29, #32]
   89afc:	f9001001 	str	x1, [x0, #32]
   89b00:	f94027a0 	ldr	x0, [x29, #72]
   89b04:	f9400fa1 	ldr	x1, [x29, #24]
   89b08:	f9001401 	str	x1, [x0, #40]
   89b0c:	f94027a0 	ldr	x0, [x29, #72]
   89b10:	d0000021 	adrp	x1, 8f000 <g_x939B1DCDB6404F7D9C072291AF252188Factory+0xa0>
   89b14:	910c2021 	add	x1, x1, #0x308
   89b18:	f9000001 	str	x1, [x0]
   89b1c:	f94027a0 	ldr	x0, [x29, #72]
   89b20:	52800021 	mov	w1, #0x1                   	// #1
   89b24:	b9000801 	str	w1, [x0, #8]
   89b28:	f9401ba1 	ldr	x1, [x29, #48]
   89b2c:	f94027a0 	ldr	x0, [x29, #72]
   89b30:	f9000c01 	str	x1, [x0, #24]
   89b34:	f94023a1 	ldr	x1, [x29, #64]
   89b38:	f94027a0 	ldr	x0, [x29, #72]
   89b3c:	eb00003f 	cmp	x1, x0
   89b40:	54000080 	b.eq	89b50 <CEcoInterfaceBus1_42757331_RegisterComponent+0xc8>  // b.none
   89b44:	f94023a0 	ldr	x0, [x29, #64]
   89b48:	f94027a1 	ldr	x1, [x29, #72]
   89b4c:	f9001801 	str	x1, [x0, #48]
   89b50:	790077bf 	strh	wzr, [x29, #58]
   89b54:	14000052 	b	89c9c <CEcoInterfaceBus1_42757331_RegisterComponent+0x214>
   89b58:	f94027a0 	ldr	x0, [x29, #72]
   89b5c:	f90023a0 	str	x0, [x29, #64]
   89b60:	b9403fa0 	ldr	w0, [x29, #60]
   89b64:	11000400 	add	w0, w0, #0x1
   89b68:	b9003fa0 	str	w0, [x29, #60]
   89b6c:	b9403fa0 	ldr	w0, [x29, #60]
   89b70:	7100101f 	cmp	w0, #0x4
   89b74:	54000128 	b.hi	89b98 <CEcoInterfaceBus1_42757331_RegisterComponent+0x110>  // b.pmore
   89b78:	f9401ba0 	ldr	x0, [x29, #48]
   89b7c:	f9401401 	ldr	x1, [x0, #40]
   89b80:	b9403fa2 	ldr	w2, [x29, #60]
   89b84:	d2800700 	mov	x0, #0x38                  	// #56
   89b88:	9b007c40 	mul	x0, x2, x0
   89b8c:	8b000020 	add	x0, x1, x0
   89b90:	f90027a0 	str	x0, [x29, #72]
   89b94:	1400003f 	b	89c90 <CEcoInterfaceBus1_42757331_RegisterComponent+0x208>
   89b98:	f94027a0 	ldr	x0, [x29, #72]
   89b9c:	f9401800 	ldr	x0, [x0, #48]
   89ba0:	f100001f 	cmp	x0, #0x0
   89ba4:	540000a0 	b.eq	89bb8 <CEcoInterfaceBus1_42757331_RegisterComponent+0x130>  // b.none
   89ba8:	f94027a0 	ldr	x0, [x29, #72]
   89bac:	f9401800 	ldr	x0, [x0, #48]
   89bb0:	f90027a0 	str	x0, [x29, #72]
   89bb4:	14000037 	b	89c90 <CEcoInterfaceBus1_42757331_RegisterComponent+0x208>
   89bb8:	f9401ba0 	ldr	x0, [x29, #48]
   89bbc:	39418000 	ldrb	w0, [x0, #96]
   89bc0:	7100001f 	cmp	w0, #0x0
   89bc4:	54000660 	b.eq	89c90 <CEcoInterfaceBus1_42757331_RegisterComponent+0x208>  // b.none
   89bc8:	79c077a0 	ldrsh	w0, [x29, #58]
   89bcc:	7100001f 	cmp	w0, #0x0
   89bd0:	54000600 	b.eq	89c90 <CEcoInterfaceBus1_42757331_RegisterComponent+0x208>  // b.none
   89bd4:	f9401ba0 	ldr	x0, [x29, #48]
   89bd8:	f9402800 	ldr	x0, [x0, #80]
   89bdc:	f100001f 	cmp	x0, #0x0
   89be0:	54000321 	b.ne	89c44 <CEcoInterfaceBus1_42757331_RegisterComponent+0x1bc>  // b.any
   89be4:	f94017a0 	ldr	x0, [x29, #40]
   89be8:	f9400000 	ldr	x0, [x0]
   89bec:	f9401c05 	ldr	x5, [x0, #56]
   89bf0:	f9401ba0 	ldr	x0, [x29, #48]
   89bf4:	f9402c01 	ldr	x1, [x0, #88]
   89bf8:	f9401ba0 	ldr	x0, [x29, #48]
   89bfc:	91014002 	add	x2, x0, #0x50
   89c00:	d0000420 	adrp	x0, 10f000 <BitFont+0x788>
   89c04:	912da000 	add	x0, x0, #0xb68
   89c08:	aa0203e4 	mov	x4, x2
   89c0c:	aa0003e3 	mov	x3, x0
   89c10:	d2800002 	mov	x2, #0x0                   	// #0
   89c14:	f94017a0 	ldr	x0, [x29, #40]
   89c18:	d63f00a0 	blr	x5
   89c1c:	790077a0 	strh	w0, [x29, #58]
   89c20:	79c077a0 	ldrsh	w0, [x29, #58]
   89c24:	7100001f 	cmp	w0, #0x0
   89c28:	540000a1 	b.ne	89c3c <CEcoInterfaceBus1_42757331_RegisterComponent+0x1b4>  // b.any
   89c2c:	f9401ba0 	ldr	x0, [x29, #48]
   89c30:	f9402800 	ldr	x0, [x0, #80]
   89c34:	f100001f 	cmp	x0, #0x0
   89c38:	54000061 	b.ne	89c44 <CEcoInterfaceBus1_42757331_RegisterComponent+0x1bc>  // b.any
   89c3c:	79c077a0 	ldrsh	w0, [x29, #58]
   89c40:	14000018 	b	89ca0 <CEcoInterfaceBus1_42757331_RegisterComponent+0x218>
   89c44:	f9401ba0 	ldr	x0, [x29, #48]
   89c48:	f9402800 	ldr	x0, [x0, #80]
   89c4c:	f9400000 	ldr	x0, [x0]
   89c50:	f9400c02 	ldr	x2, [x0, #24]
   89c54:	f9401ba0 	ldr	x0, [x29, #48]
   89c58:	f9402800 	ldr	x0, [x0, #80]
   89c5c:	52800701 	mov	w1, #0x38                  	// #56
   89c60:	d63f0040 	blr	x2
   89c64:	f90027a0 	str	x0, [x29, #72]
   89c68:	f94027a0 	ldr	x0, [x29, #72]
   89c6c:	f100001f 	cmp	x0, #0x0
   89c70:	54000061 	b.ne	89c7c <CEcoInterfaceBus1_42757331_RegisterComponent+0x1f4>  // b.any
   89c74:	79c077a0 	ldrsh	w0, [x29, #58]
   89c78:	1400000a 	b	89ca0 <CEcoInterfaceBus1_42757331_RegisterComponent+0x218>
   89c7c:	f94027a0 	ldr	x0, [x29, #72]
   89c80:	f900141f 	str	xzr, [x0, #40]
   89c84:	f94027a0 	ldr	x0, [x29, #72]
   89c88:	f900181f 	str	xzr, [x0, #48]
   89c8c:	d503201f 	nop
   89c90:	f94027a0 	ldr	x0, [x29, #72]
   89c94:	f100001f 	cmp	x0, #0x0
   89c98:	54fff261 	b.ne	89ae4 <CEcoInterfaceBus1_42757331_RegisterComponent+0x5c>  // b.any
   89c9c:	79c077a0 	ldrsh	w0, [x29, #58]
   89ca0:	a8c57bfd 	ldp	x29, x30, [sp], #80
   89ca4:	d65f03c0 	ret

0000000000089ca8 <CEcoInterfaceBus1_42757331_UnRegisterComponent>:
   89ca8:	a9bc7bfd 	stp	x29, x30, [sp, #-64]!
   89cac:	910003fd 	mov	x29, sp
   89cb0:	f9000fa0 	str	x0, [x29, #24]
   89cb4:	f9000ba1 	str	x1, [x29, #16]
   89cb8:	f9400fa0 	ldr	x0, [x29, #24]
   89cbc:	f90017a0 	str	x0, [x29, #40]
   89cc0:	f9001fbf 	str	xzr, [x29, #56]
   89cc4:	12800000 	mov	w0, #0xffffffff            	// #-1
   89cc8:	79006fa0 	strh	w0, [x29, #54]
   89ccc:	f9400fa0 	ldr	x0, [x29, #24]
   89cd0:	f100001f 	cmp	x0, #0x0
   89cd4:	54000061 	b.ne	89ce0 <CEcoInterfaceBus1_42757331_UnRegisterComponent+0x38>  // b.any
   89cd8:	12800000 	mov	w0, #0xffffffff            	// #-1
   89cdc:	1400001d 	b	89d50 <CEcoInterfaceBus1_42757331_UnRegisterComponent+0xa8>
   89ce0:	f94017a0 	ldr	x0, [x29, #40]
   89ce4:	f9401400 	ldr	x0, [x0, #40]
   89ce8:	f9001fa0 	str	x0, [x29, #56]
   89cec:	f9401fa0 	ldr	x0, [x29, #56]
   89cf0:	f9401000 	ldr	x0, [x0, #32]
   89cf4:	aa0003e1 	mov	x1, x0
   89cf8:	f9400ba0 	ldr	x0, [x29, #16]
   89cfc:	97fffd46 	bl	89214 <IsEqualUGUID_00000000000000000000000042757331>
   89d00:	12001c00 	and	w0, w0, #0xff
   89d04:	7100001f 	cmp	w0, #0x0
   89d08:	54000160 	b.eq	89d34 <CEcoInterfaceBus1_42757331_UnRegisterComponent+0x8c>  // b.none
   89d0c:	f9401fa0 	ldr	x0, [x29, #56]
   89d10:	f900141f 	str	xzr, [x0, #40]
   89d14:	f9401fa0 	ldr	x0, [x29, #56]
   89d18:	b900081f 	str	wzr, [x0, #8]
   89d1c:	f9401fa0 	ldr	x0, [x29, #56]
   89d20:	f9000c1f 	str	xzr, [x0, #24]
   89d24:	f9401fa0 	ldr	x0, [x29, #56]
   89d28:	f900101f 	str	xzr, [x0, #32]
   89d2c:	79006fbf 	strh	wzr, [x29, #54]
   89d30:	14000007 	b	89d4c <CEcoInterfaceBus1_42757331_UnRegisterComponent+0xa4>
   89d34:	f9401fa0 	ldr	x0, [x29, #56]
   89d38:	f9401800 	ldr	x0, [x0, #48]
   89d3c:	f9001fa0 	str	x0, [x29, #56]
   89d40:	f9401fa0 	ldr	x0, [x29, #56]
   89d44:	f100001f 	cmp	x0, #0x0
   89d48:	54fffd21 	b.ne	89cec <CEcoInterfaceBus1_42757331_UnRegisterComponent+0x44>  // b.any
   89d4c:	79c06fa0 	ldrsh	w0, [x29, #54]
   89d50:	a8c47bfd 	ldp	x29, x30, [sp], #64
   89d54:	d65f03c0 	ret

0000000000089d58 <CEcoInterfaceBus1_42757331_to_hex>:
   89d58:	d10103ff 	sub	sp, sp, #0x40
   89d5c:	f9000fe0 	str	x0, [sp, #24]
   89d60:	b90017e1 	str	w1, [sp, #20]
   89d64:	f90007e2 	str	x2, [sp, #8]
   89d68:	b90013e3 	str	w3, [sp, #16]
   89d6c:	f9400fe0 	ldr	x0, [sp, #24]
   89d70:	f9001fe0 	str	x0, [sp, #56]
   89d74:	d0000420 	adrp	x0, 10f000 <BitFont+0x788>
   89d78:	9130e000 	add	x0, x0, #0xc38
   89d7c:	f90017e0 	str	x0, [sp, #40]
   89d80:	f94007e0 	ldr	x0, [sp, #8]
   89d84:	f9001be0 	str	x0, [sp, #48]
   89d88:	14000024 	b	89e18 <CEcoInterfaceBus1_42757331_to_hex+0xc0>
   89d8c:	f9401fe0 	ldr	x0, [sp, #56]
   89d90:	39400000 	ldrb	w0, [x0]
   89d94:	53047c00 	lsr	w0, w0, #4
   89d98:	12001c00 	and	w0, w0, #0xff
   89d9c:	92401c00 	and	x0, x0, #0xff
   89da0:	92400c00 	and	x0, x0, #0xf
   89da4:	f94017e1 	ldr	x1, [sp, #40]
   89da8:	8b000020 	add	x0, x1, x0
   89dac:	39400001 	ldrb	w1, [x0]
   89db0:	f9401be0 	ldr	x0, [sp, #48]
   89db4:	39000001 	strb	w1, [x0]
   89db8:	f9401fe0 	ldr	x0, [sp, #56]
   89dbc:	39400000 	ldrb	w0, [x0]
   89dc0:	92401c00 	and	x0, x0, #0xff
   89dc4:	92400c00 	and	x0, x0, #0xf
   89dc8:	f94017e1 	ldr	x1, [sp, #40]
   89dcc:	8b000021 	add	x1, x1, x0
   89dd0:	f9401be0 	ldr	x0, [sp, #48]
   89dd4:	91000400 	add	x0, x0, #0x1
   89dd8:	39400021 	ldrb	w1, [x1]
   89ddc:	39000001 	strb	w1, [x0]
   89de0:	f9401be0 	ldr	x0, [sp, #48]
   89de4:	91000800 	add	x0, x0, #0x2
   89de8:	aa0003e1 	mov	x1, x0
   89dec:	f94007e0 	ldr	x0, [sp, #8]
   89df0:	cb000021 	sub	x1, x1, x0
   89df4:	b94013e0 	ldr	w0, [sp, #16]
   89df8:	eb00003f 	cmp	x1, x0
   89dfc:	540001cc 	b.gt	89e34 <CEcoInterfaceBus1_42757331_to_hex+0xdc>
   89e00:	f9401be0 	ldr	x0, [sp, #48]
   89e04:	91000800 	add	x0, x0, #0x2
   89e08:	f9001be0 	str	x0, [sp, #48]
   89e0c:	f9401fe0 	ldr	x0, [sp, #56]
   89e10:	91000400 	add	x0, x0, #0x1
   89e14:	f9001fe0 	str	x0, [sp, #56]
   89e18:	b94017e0 	ldr	w0, [sp, #20]
   89e1c:	f9400fe1 	ldr	x1, [sp, #24]
   89e20:	8b000020 	add	x0, x1, x0
   89e24:	f9401fe1 	ldr	x1, [sp, #56]
   89e28:	eb00003f 	cmp	x1, x0
   89e2c:	54fffb03 	b.cc	89d8c <CEcoInterfaceBus1_42757331_to_hex+0x34>  // b.lo, b.ul, b.last
   89e30:	14000002 	b	89e38 <CEcoInterfaceBus1_42757331_to_hex+0xe0>
   89e34:	d503201f 	nop
   89e38:	f9401be0 	ldr	x0, [sp, #48]
   89e3c:	3900001f 	strb	wzr, [x0]
   89e40:	d503201f 	nop
   89e44:	910103ff 	add	sp, sp, #0x40
   89e48:	d65f03c0 	ret

0000000000089e4c <CEcoInterfaceBus1_42757331_QueryComponent>:
   89e4c:	a9b97bfd 	stp	x29, x30, [sp, #-112]!
   89e50:	910003fd 	mov	x29, sp
   89e54:	f9001fa0 	str	x0, [x29, #56]
   89e58:	f9001ba1 	str	x1, [x29, #48]
   89e5c:	f90017a2 	str	x2, [x29, #40]
   89e60:	f90013a3 	str	x3, [x29, #32]
   89e64:	f9000fa4 	str	x4, [x29, #24]
   89e68:	f9401fa0 	ldr	x0, [x29, #56]
   89e6c:	f9002fa0 	str	x0, [x29, #88]
   89e70:	f90037bf 	str	xzr, [x29, #104]
   89e74:	f9002bbf 	str	xzr, [x29, #80]
   89e78:	f90027bf 	str	xzr, [x29, #72]
   89e7c:	12800000 	mov	w0, #0xffffffff            	// #-1
   89e80:	7900cfa0 	strh	w0, [x29, #102]
   89e84:	f9401fa0 	ldr	x0, [x29, #56]
   89e88:	f100001f 	cmp	x0, #0x0
   89e8c:	54000061 	b.ne	89e98 <CEcoInterfaceBus1_42757331_QueryComponent+0x4c>  // b.any
   89e90:	12800000 	mov	w0, #0xffffffff            	// #-1
   89e94:	1400002a 	b	89f3c <CEcoInterfaceBus1_42757331_QueryComponent+0xf0>
   89e98:	f9402fa0 	ldr	x0, [x29, #88]
   89e9c:	f9401400 	ldr	x0, [x0, #40]
   89ea0:	f90037a0 	str	x0, [x29, #104]
   89ea4:	f94037a0 	ldr	x0, [x29, #104]
   89ea8:	f9401000 	ldr	x0, [x0, #32]
   89eac:	aa0003e1 	mov	x1, x0
   89eb0:	f9401ba0 	ldr	x0, [x29, #48]
   89eb4:	97fffcd8 	bl	89214 <IsEqualUGUID_00000000000000000000000042757331>
   89eb8:	12001c00 	and	w0, w0, #0xff
   89ebc:	7100001f 	cmp	w0, #0x0
   89ec0:	54000300 	b.eq	89f20 <CEcoInterfaceBus1_42757331_QueryComponent+0xd4>  // b.none
   89ec4:	f94037a0 	ldr	x0, [x29, #104]
   89ec8:	f9401400 	ldr	x0, [x0, #40]
   89ecc:	f9002ba0 	str	x0, [x29, #80]
   89ed0:	f94037a0 	ldr	x0, [x29, #104]
   89ed4:	f9401400 	ldr	x0, [x0, #40]
   89ed8:	f9400000 	ldr	x0, [x0]
   89edc:	f90027a0 	str	x0, [x29, #72]
   89ee0:	f9402ba0 	ldr	x0, [x29, #80]
   89ee4:	f9400000 	ldr	x0, [x0]
   89ee8:	f9400c05 	ldr	x5, [x0, #24]
   89eec:	f94037a0 	ldr	x0, [x29, #104]
   89ef0:	f9400fa4 	ldr	x4, [x29, #24]
   89ef4:	f94013a3 	ldr	x3, [x29, #32]
   89ef8:	f94017a2 	ldr	x2, [x29, #40]
   89efc:	aa0003e1 	mov	x1, x0
   89f00:	f9402ba0 	ldr	x0, [x29, #80]
   89f04:	d63f00a0 	blr	x5
   89f08:	7900cfa0 	strh	w0, [x29, #102]
   89f0c:	f94037a0 	ldr	x0, [x29, #104]
   89f10:	f9401400 	ldr	x0, [x0, #40]
   89f14:	f94027a1 	ldr	x1, [x29, #72]
   89f18:	f9000001 	str	x1, [x0]
   89f1c:	14000007 	b	89f38 <CEcoInterfaceBus1_42757331_QueryComponent+0xec>
   89f20:	f94037a0 	ldr	x0, [x29, #104]
   89f24:	f9401800 	ldr	x0, [x0, #48]
   89f28:	f90037a0 	str	x0, [x29, #104]
   89f2c:	f94037a0 	ldr	x0, [x29, #104]
   89f30:	f100001f 	cmp	x0, #0x0
   89f34:	54fffb81 	b.ne	89ea4 <CEcoInterfaceBus1_42757331_QueryComponent+0x58>  // b.any
   89f38:	79c0cfa0 	ldrsh	w0, [x29, #102]
   89f3c:	a8c77bfd 	ldp	x29, x30, [sp], #112
   89f40:	d65f03c0 	ret

0000000000089f44 <CEcoInterfaceBus1_42757331_IEcoError1_QueryInterface>:
   89f44:	a9bc7bfd 	stp	x29, x30, [sp, #-64]!
   89f48:	910003fd 	mov	x29, sp
   89f4c:	f90017a0 	str	x0, [x29, #40]
   89f50:	f90013a1 	str	x1, [x29, #32]
   89f54:	f9000fa2 	str	x2, [x29, #24]
   89f58:	f94017a0 	ldr	x0, [x29, #40]
   89f5c:	d1002000 	sub	x0, x0, #0x8
   89f60:	f9001fa0 	str	x0, [x29, #56]
   89f64:	12800000 	mov	w0, #0xffffffff            	// #-1
   89f68:	79006fa0 	strh	w0, [x29, #54]
   89f6c:	f94017a0 	ldr	x0, [x29, #40]
   89f70:	f100001f 	cmp	x0, #0x0
   89f74:	54000080 	b.eq	89f84 <CEcoInterfaceBus1_42757331_IEcoError1_QueryInterface+0x40>  // b.none
   89f78:	f9400fa0 	ldr	x0, [x29, #24]
   89f7c:	f100001f 	cmp	x0, #0x0
   89f80:	54000061 	b.ne	89f8c <CEcoInterfaceBus1_42757331_IEcoError1_QueryInterface+0x48>  // b.any
   89f84:	79c06fa0 	ldrsh	w0, [x29, #54]
   89f88:	1400004c 	b	8a0b8 <CEcoInterfaceBus1_42757331_IEcoError1_QueryInterface+0x174>
   89f8c:	d0000420 	adrp	x0, 10f000 <BitFont+0x788>
   89f90:	912ce000 	add	x0, x0, #0xb38
   89f94:	aa0003e1 	mov	x1, x0
   89f98:	f94013a0 	ldr	x0, [x29, #32]
   89f9c:	97fffc9e 	bl	89214 <IsEqualUGUID_00000000000000000000000042757331>
   89fa0:	12001c00 	and	w0, w0, #0xff
   89fa4:	7100001f 	cmp	w0, #0x0
   89fa8:	54000140 	b.eq	89fd0 <CEcoInterfaceBus1_42757331_IEcoError1_QueryInterface+0x8c>  // b.none
   89fac:	f9401fa1 	ldr	x1, [x29, #56]
   89fb0:	f9400fa0 	ldr	x0, [x29, #24]
   89fb4:	f9000001 	str	x1, [x0]
   89fb8:	f9401fa0 	ldr	x0, [x29, #56]
   89fbc:	f9400000 	ldr	x0, [x0]
   89fc0:	f9400401 	ldr	x1, [x0, #8]
   89fc4:	f9401fa0 	ldr	x0, [x29, #56]
   89fc8:	d63f0020 	blr	x1
   89fcc:	1400003a 	b	8a0b4 <CEcoInterfaceBus1_42757331_IEcoError1_QueryInterface+0x170>
   89fd0:	d0000420 	adrp	x0, 10f000 <BitFont+0x788>
   89fd4:	912d4000 	add	x0, x0, #0xb50
   89fd8:	aa0003e1 	mov	x1, x0
   89fdc:	f94013a0 	ldr	x0, [x29, #32]
   89fe0:	97fffc8d 	bl	89214 <IsEqualUGUID_00000000000000000000000042757331>
   89fe4:	12001c00 	and	w0, w0, #0xff
   89fe8:	7100001f 	cmp	w0, #0x0
   89fec:	54000160 	b.eq	8a018 <CEcoInterfaceBus1_42757331_IEcoError1_QueryInterface+0xd4>  // b.none
   89ff0:	f9401fa0 	ldr	x0, [x29, #56]
   89ff4:	91002001 	add	x1, x0, #0x8
   89ff8:	f9400fa0 	ldr	x0, [x29, #24]
   89ffc:	f9000001 	str	x1, [x0]
   8a000:	f9401fa0 	ldr	x0, [x29, #56]
   8a004:	f9400000 	ldr	x0, [x0]
   8a008:	f9400401 	ldr	x1, [x0, #8]
   8a00c:	f9401fa0 	ldr	x0, [x29, #56]
   8a010:	d63f0020 	blr	x1
   8a014:	14000028 	b	8a0b4 <CEcoInterfaceBus1_42757331_IEcoError1_QueryInterface+0x170>
   8a018:	b0000420 	adrp	x0, 10f000 <BitFont+0x788>
   8a01c:	912e6000 	add	x0, x0, #0xb98
   8a020:	aa0003e1 	mov	x1, x0
   8a024:	f94013a0 	ldr	x0, [x29, #32]
   8a028:	97fffc7b 	bl	89214 <IsEqualUGUID_00000000000000000000000042757331>
   8a02c:	12001c00 	and	w0, w0, #0xff
   8a030:	7100001f 	cmp	w0, #0x0
   8a034:	54000160 	b.eq	8a060 <CEcoInterfaceBus1_42757331_IEcoError1_QueryInterface+0x11c>  // b.none
   8a038:	f9401fa0 	ldr	x0, [x29, #56]
   8a03c:	91004001 	add	x1, x0, #0x10
   8a040:	f9400fa0 	ldr	x0, [x29, #24]
   8a044:	f9000001 	str	x1, [x0]
   8a048:	f9401fa0 	ldr	x0, [x29, #56]
   8a04c:	f9400000 	ldr	x0, [x0]
   8a050:	f9400401 	ldr	x1, [x0, #8]
   8a054:	f9401fa0 	ldr	x0, [x29, #56]
   8a058:	d63f0020 	blr	x1
   8a05c:	14000016 	b	8a0b4 <CEcoInterfaceBus1_42757331_IEcoError1_QueryInterface+0x170>
   8a060:	b0000420 	adrp	x0, 10f000 <BitFont+0x788>
   8a064:	912bc000 	add	x0, x0, #0xaf0
   8a068:	aa0003e1 	mov	x1, x0
   8a06c:	f94013a0 	ldr	x0, [x29, #32]
   8a070:	97fffc69 	bl	89214 <IsEqualUGUID_00000000000000000000000042757331>
   8a074:	12001c00 	and	w0, w0, #0xff
   8a078:	7100001f 	cmp	w0, #0x0
   8a07c:	54000140 	b.eq	8a0a4 <CEcoInterfaceBus1_42757331_IEcoError1_QueryInterface+0x160>  // b.none
   8a080:	f9401fa1 	ldr	x1, [x29, #56]
   8a084:	f9400fa0 	ldr	x0, [x29, #24]
   8a088:	f9000001 	str	x1, [x0]
   8a08c:	f9401fa0 	ldr	x0, [x29, #56]
   8a090:	f9400000 	ldr	x0, [x0]
   8a094:	f9400401 	ldr	x1, [x0, #8]
   8a098:	f9401fa0 	ldr	x0, [x29, #56]
   8a09c:	d63f0020 	blr	x1
   8a0a0:	14000005 	b	8a0b4 <CEcoInterfaceBus1_42757331_IEcoError1_QueryInterface+0x170>
   8a0a4:	f9400fa0 	ldr	x0, [x29, #24]
   8a0a8:	f900001f 	str	xzr, [x0]
   8a0ac:	12800000 	mov	w0, #0xffffffff            	// #-1
   8a0b0:	14000002 	b	8a0b8 <CEcoInterfaceBus1_42757331_IEcoError1_QueryInterface+0x174>
   8a0b4:	52800000 	mov	w0, #0x0                   	// #0
   8a0b8:	a8c47bfd 	ldp	x29, x30, [sp], #64
   8a0bc:	d65f03c0 	ret

000000000008a0c0 <CEcoInterfaceBus1_42757331_IEcoError1_AddRef>:
   8a0c0:	d10083ff 	sub	sp, sp, #0x20
   8a0c4:	f90007e0 	str	x0, [sp, #8]
   8a0c8:	f94007e0 	ldr	x0, [sp, #8]
   8a0cc:	d1002000 	sub	x0, x0, #0x8
   8a0d0:	f9000fe0 	str	x0, [sp, #24]
   8a0d4:	f94007e0 	ldr	x0, [sp, #8]
   8a0d8:	f100001f 	cmp	x0, #0x0
   8a0dc:	54000061 	b.ne	8a0e8 <CEcoInterfaceBus1_42757331_IEcoError1_AddRef+0x28>  // b.any
   8a0e0:	12800000 	mov	w0, #0xffffffff            	// #-1
   8a0e4:	14000008 	b	8a104 <CEcoInterfaceBus1_42757331_IEcoError1_AddRef+0x44>
   8a0e8:	f9400fe0 	ldr	x0, [sp, #24]
   8a0ec:	b9401800 	ldr	w0, [x0, #24]
   8a0f0:	11000401 	add	w1, w0, #0x1
   8a0f4:	f9400fe0 	ldr	x0, [sp, #24]
   8a0f8:	b9001801 	str	w1, [x0, #24]
   8a0fc:	f9400fe0 	ldr	x0, [sp, #24]
   8a100:	b9401800 	ldr	w0, [x0, #24]
   8a104:	910083ff 	add	sp, sp, #0x20
   8a108:	d65f03c0 	ret

000000000008a10c <CEcoInterfaceBus1_42757331_IEcoError1_Release>:
   8a10c:	a9bd7bfd 	stp	x29, x30, [sp, #-48]!
   8a110:	910003fd 	mov	x29, sp
   8a114:	f9000fa0 	str	x0, [x29, #24]
   8a118:	f9400fa0 	ldr	x0, [x29, #24]
   8a11c:	d1002000 	sub	x0, x0, #0x8
   8a120:	f90017a0 	str	x0, [x29, #40]
   8a124:	f9400fa0 	ldr	x0, [x29, #24]
   8a128:	f100001f 	cmp	x0, #0x0
   8a12c:	54000061 	b.ne	8a138 <CEcoInterfaceBus1_42757331_IEcoError1_Release+0x2c>  // b.any
   8a130:	12800000 	mov	w0, #0xffffffff            	// #-1
   8a134:	14000010 	b	8a174 <CEcoInterfaceBus1_42757331_IEcoError1_Release+0x68>
   8a138:	f94017a0 	ldr	x0, [x29, #40]
   8a13c:	b9401800 	ldr	w0, [x0, #24]
   8a140:	51000401 	sub	w1, w0, #0x1
   8a144:	f94017a0 	ldr	x0, [x29, #40]
   8a148:	b9001801 	str	w1, [x0, #24]
   8a14c:	f94017a0 	ldr	x0, [x29, #40]
   8a150:	b9401800 	ldr	w0, [x0, #24]
   8a154:	7100001f 	cmp	w0, #0x0
   8a158:	540000a1 	b.ne	8a16c <CEcoInterfaceBus1_42757331_IEcoError1_Release+0x60>  // b.any
   8a15c:	f94017a0 	ldr	x0, [x29, #40]
   8a160:	9400017e 	bl	8a758 <deleteCEcoInterfaceBus1_42757331>
   8a164:	52800000 	mov	w0, #0x0                   	// #0
   8a168:	14000003 	b	8a174 <CEcoInterfaceBus1_42757331_IEcoError1_Release+0x68>
   8a16c:	f94017a0 	ldr	x0, [x29, #40]
   8a170:	b9401800 	ldr	w0, [x0, #24]
   8a174:	a8c37bfd 	ldp	x29, x30, [sp], #48
   8a178:	d65f03c0 	ret

000000000008a17c <CEcoInterfaceBus1_42757331_IEcoError1_get_Description>:
   8a17c:	a9bb7bfd 	stp	x29, x30, [sp, #-80]!
   8a180:	910003fd 	mov	x29, sp
   8a184:	f90017a0 	str	x0, [x29, #40]
   8a188:	f90013a1 	str	x1, [x29, #32]
   8a18c:	f9000fa2 	str	x2, [x29, #24]
   8a190:	f94017a0 	ldr	x0, [x29, #40]
   8a194:	d1002000 	sub	x0, x0, #0x8
   8a198:	f90023a0 	str	x0, [x29, #64]
   8a19c:	79009fbf 	strh	wzr, [x29, #78]
   8a1a0:	f9001fbf 	str	xzr, [x29, #56]
   8a1a4:	f94017a0 	ldr	x0, [x29, #40]
   8a1a8:	f100001f 	cmp	x0, #0x0
   8a1ac:	54000061 	b.ne	8a1b8 <CEcoInterfaceBus1_42757331_IEcoError1_get_Description+0x3c>  // b.any
   8a1b0:	12800000 	mov	w0, #0xffffffff            	// #-1
   8a1b4:	14000065 	b	8a348 <CEcoInterfaceBus1_42757331_IEcoError1_get_Description+0x1cc>
   8a1b8:	f94023a0 	ldr	x0, [x29, #64]
   8a1bc:	b9403801 	ldr	w1, [x0, #56]
   8a1c0:	b0000020 	adrp	x0, 8f000 <g_x939B1DCDB6404F7D9C072291AF252188Factory+0xa0>
   8a1c4:	910bc000 	add	x0, x0, #0x2f0
   8a1c8:	2a0103e1 	mov	w1, w1
   8a1cc:	f8617800 	ldr	x0, [x0, x1, lsl #3]
   8a1d0:	f9001fa0 	str	x0, [x29, #56]
   8a1d4:	14000004 	b	8a1e4 <CEcoInterfaceBus1_42757331_IEcoError1_get_Description+0x68>
   8a1d8:	79409fa0 	ldrh	w0, [x29, #78]
   8a1dc:	11000400 	add	w0, w0, #0x1
   8a1e0:	79009fa0 	strh	w0, [x29, #78]
   8a1e4:	79409fa0 	ldrh	w0, [x29, #78]
   8a1e8:	f9401fa1 	ldr	x1, [x29, #56]
   8a1ec:	8b000020 	add	x0, x1, x0
   8a1f0:	39400000 	ldrb	w0, [x0]
   8a1f4:	7100001f 	cmp	w0, #0x0
   8a1f8:	54ffff01 	b.ne	8a1d8 <CEcoInterfaceBus1_42757331_IEcoError1_get_Description+0x5c>  // b.any
   8a1fc:	f94013a0 	ldr	x0, [x29, #32]
   8a200:	f100001f 	cmp	x0, #0x0
   8a204:	54000141 	b.ne	8a22c <CEcoInterfaceBus1_42757331_IEcoError1_get_Description+0xb0>  // b.any
   8a208:	f9400fa0 	ldr	x0, [x29, #24]
   8a20c:	f100001f 	cmp	x0, #0x0
   8a210:	540000e0 	b.eq	8a22c <CEcoInterfaceBus1_42757331_IEcoError1_get_Description+0xb0>  // b.none
   8a214:	79409fa0 	ldrh	w0, [x29, #78]
   8a218:	11000400 	add	w0, w0, #0x1
   8a21c:	12003c01 	and	w1, w0, #0xffff
   8a220:	f9400fa0 	ldr	x0, [x29, #24]
   8a224:	79000001 	strh	w1, [x0]
   8a228:	14000047 	b	8a344 <CEcoInterfaceBus1_42757331_IEcoError1_get_Description+0x1c8>
   8a22c:	f94013a0 	ldr	x0, [x29, #32]
   8a230:	f100001f 	cmp	x0, #0x0
   8a234:	54000880 	b.eq	8a344 <CEcoInterfaceBus1_42757331_IEcoError1_get_Description+0x1c8>  // b.none
   8a238:	f9400fa0 	ldr	x0, [x29, #24]
   8a23c:	f100001f 	cmp	x0, #0x0
   8a240:	54000820 	b.eq	8a344 <CEcoInterfaceBus1_42757331_IEcoError1_get_Description+0x1c8>  // b.none
   8a244:	f94023a0 	ldr	x0, [x29, #64]
   8a248:	b9403801 	ldr	w1, [x0, #56]
   8a24c:	b0000020 	adrp	x0, 8f000 <g_x939B1DCDB6404F7D9C072291AF252188Factory+0xa0>
   8a250:	910bc000 	add	x0, x0, #0x2f0
   8a254:	2a0103e1 	mov	w1, w1
   8a258:	f8617800 	ldr	x0, [x0, x1, lsl #3]
   8a25c:	f9001fa0 	str	x0, [x29, #56]
   8a260:	f9400fa0 	ldr	x0, [x29, #24]
   8a264:	79400000 	ldrh	w0, [x0]
   8a268:	2a0003e1 	mov	w1, w0
   8a26c:	79409fa0 	ldrh	w0, [x29, #78]
   8a270:	11000400 	add	w0, w0, #0x1
   8a274:	6b00003f 	cmp	w1, w0
   8a278:	540000aa 	b.ge	8a28c <CEcoInterfaceBus1_42757331_IEcoError1_get_Description+0x110>  // b.tcont
   8a27c:	f9400fa0 	ldr	x0, [x29, #24]
   8a280:	79400000 	ldrh	w0, [x0]
   8a284:	79009fa0 	strh	w0, [x29, #78]
   8a288:	14000006 	b	8a2a0 <CEcoInterfaceBus1_42757331_IEcoError1_get_Description+0x124>
   8a28c:	79409fa0 	ldrh	w0, [x29, #78]
   8a290:	11000400 	add	w0, w0, #0x1
   8a294:	12003c01 	and	w1, w0, #0xffff
   8a298:	f9400fa0 	ldr	x0, [x29, #24]
   8a29c:	79000001 	strh	w1, [x0]
   8a2a0:	79009fbf 	strh	wzr, [x29, #78]
   8a2a4:	1400000c 	b	8a2d4 <CEcoInterfaceBus1_42757331_IEcoError1_get_Description+0x158>
   8a2a8:	79409fa0 	ldrh	w0, [x29, #78]
   8a2ac:	f9401fa1 	ldr	x1, [x29, #56]
   8a2b0:	8b000021 	add	x1, x1, x0
   8a2b4:	79409fa0 	ldrh	w0, [x29, #78]
   8a2b8:	f94013a2 	ldr	x2, [x29, #32]
   8a2bc:	8b000040 	add	x0, x2, x0
   8a2c0:	39400021 	ldrb	w1, [x1]
   8a2c4:	39000001 	strb	w1, [x0]
   8a2c8:	79409fa0 	ldrh	w0, [x29, #78]
   8a2cc:	11000400 	add	w0, w0, #0x1
   8a2d0:	79009fa0 	strh	w0, [x29, #78]
   8a2d4:	79409fa0 	ldrh	w0, [x29, #78]
   8a2d8:	f9401fa1 	ldr	x1, [x29, #56]
   8a2dc:	8b000020 	add	x0, x1, x0
   8a2e0:	39400000 	ldrb	w0, [x0]
   8a2e4:	7100001f 	cmp	w0, #0x0
   8a2e8:	540000c0 	b.eq	8a300 <CEcoInterfaceBus1_42757331_IEcoError1_get_Description+0x184>  // b.none
   8a2ec:	f9400fa0 	ldr	x0, [x29, #24]
   8a2f0:	79400000 	ldrh	w0, [x0]
   8a2f4:	79409fa1 	ldrh	w1, [x29, #78]
   8a2f8:	6b00003f 	cmp	w1, w0
   8a2fc:	54fffd63 	b.cc	8a2a8 <CEcoInterfaceBus1_42757331_IEcoError1_get_Description+0x12c>  // b.lo, b.ul, b.last
   8a300:	f94023a0 	ldr	x0, [x29, #64]
   8a304:	b9403800 	ldr	w0, [x0, #56]
   8a308:	7100041f 	cmp	w0, #0x1
   8a30c:	540001c1 	b.ne	8a344 <CEcoInterfaceBus1_42757331_IEcoError1_get_Description+0x1c8>  // b.any
   8a310:	f9400fa0 	ldr	x0, [x29, #24]
   8a314:	79400000 	ldrh	w0, [x0]
   8a318:	7100e41f 	cmp	w0, #0x39
   8a31c:	54000149 	b.ls	8a344 <CEcoInterfaceBus1_42757331_IEcoError1_get_Description+0x1c8>  // b.plast
   8a320:	f94023a0 	ldr	x0, [x29, #64]
   8a324:	9100f804 	add	x4, x0, #0x3e
   8a328:	f94013a0 	ldr	x0, [x29, #32]
   8a32c:	91005c00 	add	x0, x0, #0x17
   8a330:	52800403 	mov	w3, #0x20                  	// #32
   8a334:	aa0003e2 	mov	x2, x0
   8a338:	52800201 	mov	w1, #0x10                  	// #16
   8a33c:	aa0403e0 	mov	x0, x4
   8a340:	97fffe86 	bl	89d58 <CEcoInterfaceBus1_42757331_to_hex>
   8a344:	52800000 	mov	w0, #0x0                   	// #0
   8a348:	a8c57bfd 	ldp	x29, x30, [sp], #80
   8a34c:	d65f03c0 	ret

000000000008a350 <CEcoInterfaceBus1_42757331_IEcoInterfaceBus1MemExt_QueryInterface>:
   8a350:	a9bc7bfd 	stp	x29, x30, [sp, #-64]!
   8a354:	910003fd 	mov	x29, sp
   8a358:	f90017a0 	str	x0, [x29, #40]
   8a35c:	f90013a1 	str	x1, [x29, #32]
   8a360:	f9000fa2 	str	x2, [x29, #24]
   8a364:	f94017a0 	ldr	x0, [x29, #40]
   8a368:	d1004000 	sub	x0, x0, #0x10
   8a36c:	f9001fa0 	str	x0, [x29, #56]
   8a370:	12800000 	mov	w0, #0xffffffff            	// #-1
   8a374:	79006fa0 	strh	w0, [x29, #54]
   8a378:	f94017a0 	ldr	x0, [x29, #40]
   8a37c:	f100001f 	cmp	x0, #0x0
   8a380:	54000080 	b.eq	8a390 <CEcoInterfaceBus1_42757331_IEcoInterfaceBus1MemExt_QueryInterface+0x40>  // b.none
   8a384:	f9400fa0 	ldr	x0, [x29, #24]
   8a388:	f100001f 	cmp	x0, #0x0
   8a38c:	54000061 	b.ne	8a398 <CEcoInterfaceBus1_42757331_IEcoInterfaceBus1MemExt_QueryInterface+0x48>  // b.any
   8a390:	79c06fa0 	ldrsh	w0, [x29, #54]
   8a394:	1400004c 	b	8a4c4 <CEcoInterfaceBus1_42757331_IEcoInterfaceBus1MemExt_QueryInterface+0x174>
   8a398:	b0000420 	adrp	x0, 10f000 <BitFont+0x788>
   8a39c:	912ce000 	add	x0, x0, #0xb38
   8a3a0:	aa0003e1 	mov	x1, x0
   8a3a4:	f94013a0 	ldr	x0, [x29, #32]
   8a3a8:	97fffb9b 	bl	89214 <IsEqualUGUID_00000000000000000000000042757331>
   8a3ac:	12001c00 	and	w0, w0, #0xff
   8a3b0:	7100001f 	cmp	w0, #0x0
   8a3b4:	54000140 	b.eq	8a3dc <CEcoInterfaceBus1_42757331_IEcoInterfaceBus1MemExt_QueryInterface+0x8c>  // b.none
   8a3b8:	f9401fa1 	ldr	x1, [x29, #56]
   8a3bc:	f9400fa0 	ldr	x0, [x29, #24]
   8a3c0:	f9000001 	str	x1, [x0]
   8a3c4:	f9401fa0 	ldr	x0, [x29, #56]
   8a3c8:	f9400000 	ldr	x0, [x0]
   8a3cc:	f9400401 	ldr	x1, [x0, #8]
   8a3d0:	f9401fa0 	ldr	x0, [x29, #56]
   8a3d4:	d63f0020 	blr	x1
   8a3d8:	1400003a 	b	8a4c0 <CEcoInterfaceBus1_42757331_IEcoInterfaceBus1MemExt_QueryInterface+0x170>
   8a3dc:	b0000420 	adrp	x0, 10f000 <BitFont+0x788>
   8a3e0:	912d4000 	add	x0, x0, #0xb50
   8a3e4:	aa0003e1 	mov	x1, x0
   8a3e8:	f94013a0 	ldr	x0, [x29, #32]
   8a3ec:	97fffb8a 	bl	89214 <IsEqualUGUID_00000000000000000000000042757331>
   8a3f0:	12001c00 	and	w0, w0, #0xff
   8a3f4:	7100001f 	cmp	w0, #0x0
   8a3f8:	54000160 	b.eq	8a424 <CEcoInterfaceBus1_42757331_IEcoInterfaceBus1MemExt_QueryInterface+0xd4>  // b.none
   8a3fc:	f9401fa0 	ldr	x0, [x29, #56]
   8a400:	91002001 	add	x1, x0, #0x8
   8a404:	f9400fa0 	ldr	x0, [x29, #24]
   8a408:	f9000001 	str	x1, [x0]
   8a40c:	f9401fa0 	ldr	x0, [x29, #56]
   8a410:	f9400000 	ldr	x0, [x0]
   8a414:	f9400401 	ldr	x1, [x0, #8]
   8a418:	f9401fa0 	ldr	x0, [x29, #56]
   8a41c:	d63f0020 	blr	x1
   8a420:	14000028 	b	8a4c0 <CEcoInterfaceBus1_42757331_IEcoInterfaceBus1MemExt_QueryInterface+0x170>
   8a424:	b0000420 	adrp	x0, 10f000 <BitFont+0x788>
   8a428:	912e6000 	add	x0, x0, #0xb98
   8a42c:	aa0003e1 	mov	x1, x0
   8a430:	f94013a0 	ldr	x0, [x29, #32]
   8a434:	97fffb78 	bl	89214 <IsEqualUGUID_00000000000000000000000042757331>
   8a438:	12001c00 	and	w0, w0, #0xff
   8a43c:	7100001f 	cmp	w0, #0x0
   8a440:	54000160 	b.eq	8a46c <CEcoInterfaceBus1_42757331_IEcoInterfaceBus1MemExt_QueryInterface+0x11c>  // b.none
   8a444:	f9401fa0 	ldr	x0, [x29, #56]
   8a448:	91004001 	add	x1, x0, #0x10
   8a44c:	f9400fa0 	ldr	x0, [x29, #24]
   8a450:	f9000001 	str	x1, [x0]
   8a454:	f9401fa0 	ldr	x0, [x29, #56]
   8a458:	f9400000 	ldr	x0, [x0]
   8a45c:	f9400401 	ldr	x1, [x0, #8]
   8a460:	f9401fa0 	ldr	x0, [x29, #56]
   8a464:	d63f0020 	blr	x1
   8a468:	14000016 	b	8a4c0 <CEcoInterfaceBus1_42757331_IEcoInterfaceBus1MemExt_QueryInterface+0x170>
   8a46c:	b0000420 	adrp	x0, 10f000 <BitFont+0x788>
   8a470:	912bc000 	add	x0, x0, #0xaf0
   8a474:	aa0003e1 	mov	x1, x0
   8a478:	f94013a0 	ldr	x0, [x29, #32]
   8a47c:	97fffb66 	bl	89214 <IsEqualUGUID_00000000000000000000000042757331>
   8a480:	12001c00 	and	w0, w0, #0xff
   8a484:	7100001f 	cmp	w0, #0x0
   8a488:	54000140 	b.eq	8a4b0 <CEcoInterfaceBus1_42757331_IEcoInterfaceBus1MemExt_QueryInterface+0x160>  // b.none
   8a48c:	f9401fa1 	ldr	x1, [x29, #56]
   8a490:	f9400fa0 	ldr	x0, [x29, #24]
   8a494:	f9000001 	str	x1, [x0]
   8a498:	f9401fa0 	ldr	x0, [x29, #56]
   8a49c:	f9400000 	ldr	x0, [x0]
   8a4a0:	f9400401 	ldr	x1, [x0, #8]
   8a4a4:	f9401fa0 	ldr	x0, [x29, #56]
   8a4a8:	d63f0020 	blr	x1
   8a4ac:	14000005 	b	8a4c0 <CEcoInterfaceBus1_42757331_IEcoInterfaceBus1MemExt_QueryInterface+0x170>
   8a4b0:	f9400fa0 	ldr	x0, [x29, #24]
   8a4b4:	f900001f 	str	xzr, [x0]
   8a4b8:	12800000 	mov	w0, #0xffffffff            	// #-1
   8a4bc:	14000002 	b	8a4c4 <CEcoInterfaceBus1_42757331_IEcoInterfaceBus1MemExt_QueryInterface+0x174>
   8a4c0:	52800000 	mov	w0, #0x0                   	// #0
   8a4c4:	a8c47bfd 	ldp	x29, x30, [sp], #64
   8a4c8:	d65f03c0 	ret

000000000008a4cc <CEcoInterfaceBus1_42757331_IEcoInterfaceBus1MemExt_AddRef>:
   8a4cc:	d10083ff 	sub	sp, sp, #0x20
   8a4d0:	f90007e0 	str	x0, [sp, #8]
   8a4d4:	f94007e0 	ldr	x0, [sp, #8]
   8a4d8:	d1004000 	sub	x0, x0, #0x10
   8a4dc:	f9000fe0 	str	x0, [sp, #24]
   8a4e0:	f94007e0 	ldr	x0, [sp, #8]
   8a4e4:	f100001f 	cmp	x0, #0x0
   8a4e8:	54000061 	b.ne	8a4f4 <CEcoInterfaceBus1_42757331_IEcoInterfaceBus1MemExt_AddRef+0x28>  // b.any
   8a4ec:	12800000 	mov	w0, #0xffffffff            	// #-1
   8a4f0:	14000008 	b	8a510 <CEcoInterfaceBus1_42757331_IEcoInterfaceBus1MemExt_AddRef+0x44>
   8a4f4:	f9400fe0 	ldr	x0, [sp, #24]
   8a4f8:	b9401800 	ldr	w0, [x0, #24]
   8a4fc:	11000401 	add	w1, w0, #0x1
   8a500:	f9400fe0 	ldr	x0, [sp, #24]
   8a504:	b9001801 	str	w1, [x0, #24]
   8a508:	f9400fe0 	ldr	x0, [sp, #24]
   8a50c:	b9401800 	ldr	w0, [x0, #24]
   8a510:	910083ff 	add	sp, sp, #0x20
   8a514:	d65f03c0 	ret

000000000008a518 <CEcoInterfaceBus1_42757331_IEcoInterfaceBus1MemExt_Release>:
   8a518:	a9bd7bfd 	stp	x29, x30, [sp, #-48]!
   8a51c:	910003fd 	mov	x29, sp
   8a520:	f9000fa0 	str	x0, [x29, #24]
   8a524:	f9400fa0 	ldr	x0, [x29, #24]
   8a528:	d1004000 	sub	x0, x0, #0x10
   8a52c:	f90017a0 	str	x0, [x29, #40]
   8a530:	f9400fa0 	ldr	x0, [x29, #24]
   8a534:	f100001f 	cmp	x0, #0x0
   8a538:	54000061 	b.ne	8a544 <CEcoInterfaceBus1_42757331_IEcoInterfaceBus1MemExt_Release+0x2c>  // b.any
   8a53c:	12800000 	mov	w0, #0xffffffff            	// #-1
   8a540:	14000010 	b	8a580 <CEcoInterfaceBus1_42757331_IEcoInterfaceBus1MemExt_Release+0x68>
   8a544:	f94017a0 	ldr	x0, [x29, #40]
   8a548:	b9401800 	ldr	w0, [x0, #24]
   8a54c:	51000401 	sub	w1, w0, #0x1
   8a550:	f94017a0 	ldr	x0, [x29, #40]
   8a554:	b9001801 	str	w1, [x0, #24]
   8a558:	f94017a0 	ldr	x0, [x29, #40]
   8a55c:	b9401800 	ldr	w0, [x0, #24]
   8a560:	7100001f 	cmp	w0, #0x0
   8a564:	540000a1 	b.ne	8a578 <CEcoInterfaceBus1_42757331_IEcoInterfaceBus1MemExt_Release+0x60>  // b.any
   8a568:	f94017a0 	ldr	x0, [x29, #40]
   8a56c:	9400007b 	bl	8a758 <deleteCEcoInterfaceBus1_42757331>
   8a570:	52800000 	mov	w0, #0x0                   	// #0
   8a574:	14000003 	b	8a580 <CEcoInterfaceBus1_42757331_IEcoInterfaceBus1MemExt_Release+0x68>
   8a578:	f94017a0 	ldr	x0, [x29, #40]
   8a57c:	b9401800 	ldr	w0, [x0, #24]
   8a580:	a8c37bfd 	ldp	x29, x30, [sp], #48
   8a584:	d65f03c0 	ret

000000000008a588 <CEcoInterfaceBus1_42757331_IEcoInterfaceBus1MemExt_set_Manager>:
   8a588:	d10083ff 	sub	sp, sp, #0x20
   8a58c:	f90007e0 	str	x0, [sp, #8]
   8a590:	f90003e1 	str	x1, [sp]
   8a594:	f94007e0 	ldr	x0, [sp, #8]
   8a598:	d1004000 	sub	x0, x0, #0x10
   8a59c:	f9000fe0 	str	x0, [sp, #24]
   8a5a0:	f94007e0 	ldr	x0, [sp, #8]
   8a5a4:	f100001f 	cmp	x0, #0x0
   8a5a8:	54000080 	b.eq	8a5b8 <CEcoInterfaceBus1_42757331_IEcoInterfaceBus1MemExt_set_Manager+0x30>  // b.none
   8a5ac:	f94003e0 	ldr	x0, [sp]
   8a5b0:	f100001f 	cmp	x0, #0x0
   8a5b4:	54000061 	b.ne	8a5c0 <CEcoInterfaceBus1_42757331_IEcoInterfaceBus1MemExt_set_Manager+0x38>  // b.any
   8a5b8:	12800000 	mov	w0, #0xffffffff            	// #-1
   8a5bc:	14000005 	b	8a5d0 <CEcoInterfaceBus1_42757331_IEcoInterfaceBus1MemExt_set_Manager+0x48>
   8a5c0:	f9400fe0 	ldr	x0, [sp, #24]
   8a5c4:	f94003e1 	ldr	x1, [sp]
   8a5c8:	f9002c01 	str	x1, [x0, #88]
   8a5cc:	52800000 	mov	w0, #0x0                   	// #0
   8a5d0:	910083ff 	add	sp, sp, #0x20
   8a5d4:	d65f03c0 	ret

000000000008a5d8 <CEcoInterfaceBus1_42757331_IEcoInterfaceBus1MemExt_get_Manager>:
   8a5d8:	d10083ff 	sub	sp, sp, #0x20
   8a5dc:	f90007e0 	str	x0, [sp, #8]
   8a5e0:	f94007e0 	ldr	x0, [sp, #8]
   8a5e4:	d1004000 	sub	x0, x0, #0x10
   8a5e8:	f9000fe0 	str	x0, [sp, #24]
   8a5ec:	f94007e0 	ldr	x0, [sp, #8]
   8a5f0:	f100001f 	cmp	x0, #0x0
   8a5f4:	54000061 	b.ne	8a600 <CEcoInterfaceBus1_42757331_IEcoInterfaceBus1MemExt_get_Manager+0x28>  // b.any
   8a5f8:	d2800000 	mov	x0, #0x0                   	// #0
   8a5fc:	14000003 	b	8a608 <CEcoInterfaceBus1_42757331_IEcoInterfaceBus1MemExt_get_Manager+0x30>
   8a600:	f9400fe0 	ldr	x0, [sp, #24]
   8a604:	f9402c00 	ldr	x0, [x0, #88]
   8a608:	910083ff 	add	sp, sp, #0x20
   8a60c:	d65f03c0 	ret

000000000008a610 <CEcoInterfaceBus1_42757331_IEcoInterfaceBus1MemExt_set_ExpandPool>:
   8a610:	d10083ff 	sub	sp, sp, #0x20
   8a614:	f90007e0 	str	x0, [sp, #8]
   8a618:	39001fe1 	strb	w1, [sp, #7]
   8a61c:	f94007e0 	ldr	x0, [sp, #8]
   8a620:	d1004000 	sub	x0, x0, #0x10
   8a624:	f9000fe0 	str	x0, [sp, #24]
   8a628:	f94007e0 	ldr	x0, [sp, #8]
   8a62c:	f100001f 	cmp	x0, #0x0
   8a630:	54000061 	b.ne	8a63c <CEcoInterfaceBus1_42757331_IEcoInterfaceBus1MemExt_set_ExpandPool+0x2c>  // b.any
   8a634:	12800000 	mov	w0, #0xffffffff            	// #-1
   8a638:	14000005 	b	8a64c <CEcoInterfaceBus1_42757331_IEcoInterfaceBus1MemExt_set_ExpandPool+0x3c>
   8a63c:	f9400fe0 	ldr	x0, [sp, #24]
   8a640:	39401fe1 	ldrb	w1, [sp, #7]
   8a644:	39018001 	strb	w1, [x0, #96]
   8a648:	52800000 	mov	w0, #0x0                   	// #0
   8a64c:	910083ff 	add	sp, sp, #0x20
   8a650:	d65f03c0 	ret

000000000008a654 <initCEcoInterfaceBus1_42757331>:
   8a654:	d10083ff 	sub	sp, sp, #0x20
   8a658:	f90007e0 	str	x0, [sp, #8]
   8a65c:	f90003e1 	str	x1, [sp]
   8a660:	f94007e0 	ldr	x0, [sp, #8]
   8a664:	f9000fe0 	str	x0, [sp, #24]
   8a668:	12800000 	mov	w0, #0xffffffff            	// #-1
   8a66c:	79002fe0 	strh	w0, [sp, #22]
   8a670:	f94007e0 	ldr	x0, [sp, #8]
   8a674:	f100001f 	cmp	x0, #0x0
   8a678:	54000061 	b.ne	8a684 <initCEcoInterfaceBus1_42757331+0x30>  // b.any
   8a67c:	79c02fe0 	ldrsh	w0, [sp, #22]
   8a680:	14000005 	b	8a694 <initCEcoInterfaceBus1_42757331+0x40>
   8a684:	f9400fe0 	ldr	x0, [sp, #24]
   8a688:	f94003e1 	ldr	x1, [sp]
   8a68c:	f9001001 	str	x1, [x0, #32]
   8a690:	52800000 	mov	w0, #0x0                   	// #0
   8a694:	910083ff 	add	sp, sp, #0x20
   8a698:	d65f03c0 	ret

000000000008a69c <createCEcoInterfaceBus1_42757331>:
   8a69c:	d100c3ff 	sub	sp, sp, #0x30
   8a6a0:	f9000fe0 	str	x0, [sp, #24]
   8a6a4:	f9000be1 	str	x1, [sp, #16]
   8a6a8:	f90007e2 	str	x2, [sp, #8]
   8a6ac:	f90017ff 	str	xzr, [sp, #40]
   8a6b0:	d0000020 	adrp	x0, 90000 <impure_data+0x270>
   8a6b4:	91158000 	add	x0, x0, #0x560
   8a6b8:	f90017e0 	str	x0, [sp, #40]
   8a6bc:	f94017e0 	ldr	x0, [sp, #40]
   8a6c0:	b9401800 	ldr	w0, [x0, #24]
   8a6c4:	7100001f 	cmp	w0, #0x0
   8a6c8:	540003c1 	b.ne	8a740 <createCEcoInterfaceBus1_42757331+0xa4>  // b.any
   8a6cc:	f94017e0 	ldr	x0, [sp, #40]
   8a6d0:	52800021 	mov	w1, #0x1                   	// #1
   8a6d4:	b9001801 	str	w1, [x0, #24]
   8a6d8:	f94017e0 	ldr	x0, [sp, #40]
   8a6dc:	f900101f 	str	xzr, [x0, #32]
   8a6e0:	f94017e0 	ldr	x0, [sp, #40]
   8a6e4:	f900281f 	str	xzr, [x0, #80]
   8a6e8:	f94017e0 	ldr	x0, [sp, #40]
   8a6ec:	f900181f 	str	xzr, [x0, #48]
   8a6f0:	f94017e0 	ldr	x0, [sp, #40]
   8a6f4:	b900381f 	str	wzr, [x0, #56]
   8a6f8:	f94017e0 	ldr	x0, [sp, #40]
   8a6fc:	b0000021 	adrp	x1, 8f000 <g_x939B1DCDB6404F7D9C072291AF252188Factory+0xa0>
   8a700:	910cc021 	add	x1, x1, #0x330
   8a704:	f9000001 	str	x1, [x0]
   8a708:	f94017e0 	ldr	x0, [sp, #40]
   8a70c:	b0000021 	adrp	x1, 8f000 <g_x939B1DCDB6404F7D9C072291AF252188Factory+0xa0>
   8a710:	910dc021 	add	x1, x1, #0x370
   8a714:	f9000401 	str	x1, [x0, #8]
   8a718:	f94017e0 	ldr	x0, [sp, #40]
   8a71c:	b0000021 	adrp	x1, 8f000 <g_x939B1DCDB6404F7D9C072291AF252188Factory+0xa0>
   8a720:	910e4021 	add	x1, x1, #0x390
   8a724:	f9000801 	str	x1, [x0, #16]
   8a728:	f94017e0 	ldr	x0, [sp, #40]
   8a72c:	f9002c1f 	str	xzr, [x0, #88]
   8a730:	f94017e0 	ldr	x0, [sp, #40]
   8a734:	d0000021 	adrp	x1, 90000 <impure_data+0x270>
   8a738:	91172021 	add	x1, x1, #0x5c8
   8a73c:	f9001401 	str	x1, [x0, #40]
   8a740:	f94007e0 	ldr	x0, [sp, #8]
   8a744:	f94017e1 	ldr	x1, [sp, #40]
   8a748:	f9000001 	str	x1, [x0]
   8a74c:	52800000 	mov	w0, #0x0                   	// #0
   8a750:	9100c3ff 	add	sp, sp, #0x30
   8a754:	d65f03c0 	ret

000000000008a758 <deleteCEcoInterfaceBus1_42757331>:
   8a758:	a9bc7bfd 	stp	x29, x30, [sp, #-64]!
   8a75c:	910003fd 	mov	x29, sp
   8a760:	f9000fa0 	str	x0, [x29, #24]
   8a764:	f9400fa0 	ldr	x0, [x29, #24]
   8a768:	f9001ba0 	str	x0, [x29, #48]
   8a76c:	f9001fbf 	str	xzr, [x29, #56]
   8a770:	f90017bf 	str	xzr, [x29, #40]
   8a774:	f9400fa0 	ldr	x0, [x29, #24]
   8a778:	f100001f 	cmp	x0, #0x0
   8a77c:	54000580 	b.eq	8a82c <deleteCEcoInterfaceBus1_42757331+0xd4>  // b.none
   8a780:	f9401ba0 	ldr	x0, [x29, #48]
   8a784:	f9402800 	ldr	x0, [x0, #80]
   8a788:	f100001f 	cmp	x0, #0x0
   8a78c:	54000500 	b.eq	8a82c <deleteCEcoInterfaceBus1_42757331+0xd4>  // b.none
   8a790:	f9401ba0 	ldr	x0, [x29, #48]
   8a794:	f9401400 	ldr	x0, [x0, #40]
   8a798:	91038000 	add	x0, x0, #0xe0
   8a79c:	f9001fa0 	str	x0, [x29, #56]
   8a7a0:	f9401fa0 	ldr	x0, [x29, #56]
   8a7a4:	f100001f 	cmp	x0, #0x0
   8a7a8:	54000340 	b.eq	8a810 <deleteCEcoInterfaceBus1_42757331+0xb8>  // b.none
   8a7ac:	f9401fa0 	ldr	x0, [x29, #56]
   8a7b0:	f9401800 	ldr	x0, [x0, #48]
   8a7b4:	f9001fa0 	str	x0, [x29, #56]
   8a7b8:	14000011 	b	8a7fc <deleteCEcoInterfaceBus1_42757331+0xa4>
   8a7bc:	f9401fa0 	ldr	x0, [x29, #56]
   8a7c0:	f90017a0 	str	x0, [x29, #40]
   8a7c4:	f94017a0 	ldr	x0, [x29, #40]
   8a7c8:	f100001f 	cmp	x0, #0x0
   8a7cc:	54000200 	b.eq	8a80c <deleteCEcoInterfaceBus1_42757331+0xb4>  // b.none
   8a7d0:	f94017a0 	ldr	x0, [x29, #40]
   8a7d4:	f9401800 	ldr	x0, [x0, #48]
   8a7d8:	f9001fa0 	str	x0, [x29, #56]
   8a7dc:	f9401ba0 	ldr	x0, [x29, #48]
   8a7e0:	f9402800 	ldr	x0, [x0, #80]
   8a7e4:	f9400000 	ldr	x0, [x0]
   8a7e8:	f9401002 	ldr	x2, [x0, #32]
   8a7ec:	f9401ba0 	ldr	x0, [x29, #48]
   8a7f0:	f9402800 	ldr	x0, [x0, #80]
   8a7f4:	f94017a1 	ldr	x1, [x29, #40]
   8a7f8:	d63f0040 	blr	x2
   8a7fc:	f9401fa0 	ldr	x0, [x29, #56]
   8a800:	f100001f 	cmp	x0, #0x0
   8a804:	54fffdc1 	b.ne	8a7bc <deleteCEcoInterfaceBus1_42757331+0x64>  // b.any
   8a808:	14000002 	b	8a810 <deleteCEcoInterfaceBus1_42757331+0xb8>
   8a80c:	d503201f 	nop
   8a810:	f9401ba0 	ldr	x0, [x29, #48]
   8a814:	f9402800 	ldr	x0, [x0, #80]
   8a818:	f9400000 	ldr	x0, [x0]
   8a81c:	f9400801 	ldr	x1, [x0, #16]
   8a820:	f9401ba0 	ldr	x0, [x29, #48]
   8a824:	f9402800 	ldr	x0, [x0, #80]
   8a828:	d63f0020 	blr	x1
   8a82c:	d503201f 	nop
   8a830:	a8c47bfd 	ldp	x29, x30, [sp], #64
   8a834:	d65f03c0 	ret

000000000008a838 <CEcoMemoryManager1Lab_623E1838Factory_QueryInterface>:
   8a838:	a9bd7bfd 	stp	x29, x30, [sp, #-48]!
   8a83c:	910003fd 	mov	x29, sp
   8a840:	f90017a0 	str	x0, [x29, #40]
   8a844:	f90013a1 	str	x1, [x29, #32]
   8a848:	f9000fa2 	str	x2, [x29, #24]
   8a84c:	f94013a0 	ldr	x0, [x29, #32]
   8a850:	39400001 	ldrb	w1, [x0]
   8a854:	b0000420 	adrp	x0, 10f000 <BitFont+0x788>
   8a858:	91314000 	add	x0, x0, #0xc50
   8a85c:	39400000 	ldrb	w0, [x0]
   8a860:	6b00003f 	cmp	w1, w0
   8a864:	54001121 	b.ne	8aa88 <CEcoMemoryManager1Lab_623E1838Factory_QueryInterface+0x250>  // b.any
   8a868:	f94013a0 	ldr	x0, [x29, #32]
   8a86c:	91000400 	add	x0, x0, #0x1
   8a870:	39400001 	ldrb	w1, [x0]
   8a874:	b0000420 	adrp	x0, 10f000 <BitFont+0x788>
   8a878:	91314400 	add	x0, x0, #0xc51
   8a87c:	39400000 	ldrb	w0, [x0]
   8a880:	6b00003f 	cmp	w1, w0
   8a884:	54001021 	b.ne	8aa88 <CEcoMemoryManager1Lab_623E1838Factory_QueryInterface+0x250>  // b.any
   8a888:	f94013a0 	ldr	x0, [x29, #32]
   8a88c:	91000800 	add	x0, x0, #0x2
   8a890:	39400001 	ldrb	w1, [x0]
   8a894:	b0000420 	adrp	x0, 10f000 <BitFont+0x788>
   8a898:	91314800 	add	x0, x0, #0xc52
   8a89c:	39400000 	ldrb	w0, [x0]
   8a8a0:	6b00003f 	cmp	w1, w0
   8a8a4:	54000f21 	b.ne	8aa88 <CEcoMemoryManager1Lab_623E1838Factory_QueryInterface+0x250>  // b.any
   8a8a8:	f94013a0 	ldr	x0, [x29, #32]
   8a8ac:	91000c00 	add	x0, x0, #0x3
   8a8b0:	39400001 	ldrb	w1, [x0]
   8a8b4:	b0000420 	adrp	x0, 10f000 <BitFont+0x788>
   8a8b8:	91314c00 	add	x0, x0, #0xc53
   8a8bc:	39400000 	ldrb	w0, [x0]
   8a8c0:	6b00003f 	cmp	w1, w0
   8a8c4:	54000e21 	b.ne	8aa88 <CEcoMemoryManager1Lab_623E1838Factory_QueryInterface+0x250>  // b.any
   8a8c8:	f94013a0 	ldr	x0, [x29, #32]
   8a8cc:	91001000 	add	x0, x0, #0x4
   8a8d0:	39400001 	ldrb	w1, [x0]
   8a8d4:	b0000420 	adrp	x0, 10f000 <BitFont+0x788>
   8a8d8:	91315000 	add	x0, x0, #0xc54
   8a8dc:	39400000 	ldrb	w0, [x0]
   8a8e0:	6b00003f 	cmp	w1, w0
   8a8e4:	54000d21 	b.ne	8aa88 <CEcoMemoryManager1Lab_623E1838Factory_QueryInterface+0x250>  // b.any
   8a8e8:	f94013a0 	ldr	x0, [x29, #32]
   8a8ec:	91001400 	add	x0, x0, #0x5
   8a8f0:	39400001 	ldrb	w1, [x0]
   8a8f4:	b0000420 	adrp	x0, 10f000 <BitFont+0x788>
   8a8f8:	91315400 	add	x0, x0, #0xc55
   8a8fc:	39400000 	ldrb	w0, [x0]
   8a900:	6b00003f 	cmp	w1, w0
   8a904:	54000c21 	b.ne	8aa88 <CEcoMemoryManager1Lab_623E1838Factory_QueryInterface+0x250>  // b.any
   8a908:	f94013a0 	ldr	x0, [x29, #32]
   8a90c:	91001800 	add	x0, x0, #0x6
   8a910:	39400001 	ldrb	w1, [x0]
   8a914:	b0000420 	adrp	x0, 10f000 <BitFont+0x788>
   8a918:	91315800 	add	x0, x0, #0xc56
   8a91c:	39400000 	ldrb	w0, [x0]
   8a920:	6b00003f 	cmp	w1, w0
   8a924:	54000b21 	b.ne	8aa88 <CEcoMemoryManager1Lab_623E1838Factory_QueryInterface+0x250>  // b.any
   8a928:	f94013a0 	ldr	x0, [x29, #32]
   8a92c:	91001c00 	add	x0, x0, #0x7
   8a930:	39400001 	ldrb	w1, [x0]
   8a934:	b0000420 	adrp	x0, 10f000 <BitFont+0x788>
   8a938:	91315c00 	add	x0, x0, #0xc57
   8a93c:	39400000 	ldrb	w0, [x0]
   8a940:	6b00003f 	cmp	w1, w0
   8a944:	54000a21 	b.ne	8aa88 <CEcoMemoryManager1Lab_623E1838Factory_QueryInterface+0x250>  // b.any
   8a948:	f94013a0 	ldr	x0, [x29, #32]
   8a94c:	91002000 	add	x0, x0, #0x8
   8a950:	39400001 	ldrb	w1, [x0]
   8a954:	b0000420 	adrp	x0, 10f000 <BitFont+0x788>
   8a958:	91316000 	add	x0, x0, #0xc58
   8a95c:	39400000 	ldrb	w0, [x0]
   8a960:	6b00003f 	cmp	w1, w0
   8a964:	54000921 	b.ne	8aa88 <CEcoMemoryManager1Lab_623E1838Factory_QueryInterface+0x250>  // b.any
   8a968:	f94013a0 	ldr	x0, [x29, #32]
   8a96c:	91002400 	add	x0, x0, #0x9
   8a970:	39400001 	ldrb	w1, [x0]
   8a974:	b0000420 	adrp	x0, 10f000 <BitFont+0x788>
   8a978:	91316400 	add	x0, x0, #0xc59
   8a97c:	39400000 	ldrb	w0, [x0]
   8a980:	6b00003f 	cmp	w1, w0
   8a984:	54000821 	b.ne	8aa88 <CEcoMemoryManager1Lab_623E1838Factory_QueryInterface+0x250>  // b.any
   8a988:	f94013a0 	ldr	x0, [x29, #32]
   8a98c:	91002800 	add	x0, x0, #0xa
   8a990:	39400001 	ldrb	w1, [x0]
   8a994:	b0000420 	adrp	x0, 10f000 <BitFont+0x788>
   8a998:	91316800 	add	x0, x0, #0xc5a
   8a99c:	39400000 	ldrb	w0, [x0]
   8a9a0:	6b00003f 	cmp	w1, w0
   8a9a4:	54000721 	b.ne	8aa88 <CEcoMemoryManager1Lab_623E1838Factory_QueryInterface+0x250>  // b.any
   8a9a8:	f94013a0 	ldr	x0, [x29, #32]
   8a9ac:	91002c00 	add	x0, x0, #0xb
   8a9b0:	39400001 	ldrb	w1, [x0]
   8a9b4:	b0000420 	adrp	x0, 10f000 <BitFont+0x788>
   8a9b8:	91316c00 	add	x0, x0, #0xc5b
   8a9bc:	39400000 	ldrb	w0, [x0]
   8a9c0:	6b00003f 	cmp	w1, w0
   8a9c4:	54000621 	b.ne	8aa88 <CEcoMemoryManager1Lab_623E1838Factory_QueryInterface+0x250>  // b.any
   8a9c8:	f94013a0 	ldr	x0, [x29, #32]
   8a9cc:	91003000 	add	x0, x0, #0xc
   8a9d0:	39400001 	ldrb	w1, [x0]
   8a9d4:	b0000420 	adrp	x0, 10f000 <BitFont+0x788>
   8a9d8:	91317000 	add	x0, x0, #0xc5c
   8a9dc:	39400000 	ldrb	w0, [x0]
   8a9e0:	6b00003f 	cmp	w1, w0
   8a9e4:	54000521 	b.ne	8aa88 <CEcoMemoryManager1Lab_623E1838Factory_QueryInterface+0x250>  // b.any
   8a9e8:	f94013a0 	ldr	x0, [x29, #32]
   8a9ec:	91003400 	add	x0, x0, #0xd
   8a9f0:	39400001 	ldrb	w1, [x0]
   8a9f4:	b0000420 	adrp	x0, 10f000 <BitFont+0x788>
   8a9f8:	91317400 	add	x0, x0, #0xc5d
   8a9fc:	39400000 	ldrb	w0, [x0]
   8aa00:	6b00003f 	cmp	w1, w0
   8aa04:	54000421 	b.ne	8aa88 <CEcoMemoryManager1Lab_623E1838Factory_QueryInterface+0x250>  // b.any
   8aa08:	f94013a0 	ldr	x0, [x29, #32]
   8aa0c:	91003800 	add	x0, x0, #0xe
   8aa10:	39400001 	ldrb	w1, [x0]
   8aa14:	b0000420 	adrp	x0, 10f000 <BitFont+0x788>
   8aa18:	91317800 	add	x0, x0, #0xc5e
   8aa1c:	39400000 	ldrb	w0, [x0]
   8aa20:	6b00003f 	cmp	w1, w0
   8aa24:	54000321 	b.ne	8aa88 <CEcoMemoryManager1Lab_623E1838Factory_QueryInterface+0x250>  // b.any
   8aa28:	f94013a0 	ldr	x0, [x29, #32]
   8aa2c:	91003c00 	add	x0, x0, #0xf
   8aa30:	39400001 	ldrb	w1, [x0]
   8aa34:	b0000420 	adrp	x0, 10f000 <BitFont+0x788>
   8aa38:	91317c00 	add	x0, x0, #0xc5f
   8aa3c:	39400000 	ldrb	w0, [x0]
   8aa40:	6b00003f 	cmp	w1, w0
   8aa44:	54000221 	b.ne	8aa88 <CEcoMemoryManager1Lab_623E1838Factory_QueryInterface+0x250>  // b.any
   8aa48:	f94013a0 	ldr	x0, [x29, #32]
   8aa4c:	91004000 	add	x0, x0, #0x10
   8aa50:	39400001 	ldrb	w1, [x0]
   8aa54:	b0000420 	adrp	x0, 10f000 <BitFont+0x788>
   8aa58:	91318000 	add	x0, x0, #0xc60
   8aa5c:	39400000 	ldrb	w0, [x0]
   8aa60:	6b00003f 	cmp	w1, w0
   8aa64:	54000121 	b.ne	8aa88 <CEcoMemoryManager1Lab_623E1838Factory_QueryInterface+0x250>  // b.any
   8aa68:	f94013a0 	ldr	x0, [x29, #32]
   8aa6c:	91004400 	add	x0, x0, #0x11
   8aa70:	39400001 	ldrb	w1, [x0]
   8aa74:	b0000420 	adrp	x0, 10f000 <BitFont+0x788>
   8aa78:	91318400 	add	x0, x0, #0xc61
   8aa7c:	39400000 	ldrb	w0, [x0]
   8aa80:	6b00003f 	cmp	w1, w0
   8aa84:	54001200 	b.eq	8acc4 <CEcoMemoryManager1Lab_623E1838Factory_QueryInterface+0x48c>  // b.none
   8aa88:	f94013a0 	ldr	x0, [x29, #32]
   8aa8c:	39400001 	ldrb	w1, [x0]
   8aa90:	b0000420 	adrp	x0, 10f000 <BitFont+0x788>
   8aa94:	9131a000 	add	x0, x0, #0xc68
   8aa98:	39400000 	ldrb	w0, [x0]
   8aa9c:	6b00003f 	cmp	w1, w0
   8aaa0:	540012a1 	b.ne	8acf4 <CEcoMemoryManager1Lab_623E1838Factory_QueryInterface+0x4bc>  // b.any
   8aaa4:	f94013a0 	ldr	x0, [x29, #32]
   8aaa8:	91000400 	add	x0, x0, #0x1
   8aaac:	39400001 	ldrb	w1, [x0]
   8aab0:	b0000420 	adrp	x0, 10f000 <BitFont+0x788>
   8aab4:	9131a400 	add	x0, x0, #0xc69
   8aab8:	39400000 	ldrb	w0, [x0]
   8aabc:	6b00003f 	cmp	w1, w0
   8aac0:	540011a1 	b.ne	8acf4 <CEcoMemoryManager1Lab_623E1838Factory_QueryInterface+0x4bc>  // b.any
   8aac4:	f94013a0 	ldr	x0, [x29, #32]
   8aac8:	91000800 	add	x0, x0, #0x2
   8aacc:	39400001 	ldrb	w1, [x0]
   8aad0:	b0000420 	adrp	x0, 10f000 <BitFont+0x788>
   8aad4:	9131a800 	add	x0, x0, #0xc6a
   8aad8:	39400000 	ldrb	w0, [x0]
   8aadc:	6b00003f 	cmp	w1, w0
   8aae0:	540010a1 	b.ne	8acf4 <CEcoMemoryManager1Lab_623E1838Factory_QueryInterface+0x4bc>  // b.any
   8aae4:	f94013a0 	ldr	x0, [x29, #32]
   8aae8:	91000c00 	add	x0, x0, #0x3
   8aaec:	39400001 	ldrb	w1, [x0]
   8aaf0:	b0000420 	adrp	x0, 10f000 <BitFont+0x788>
   8aaf4:	9131ac00 	add	x0, x0, #0xc6b
   8aaf8:	39400000 	ldrb	w0, [x0]
   8aafc:	6b00003f 	cmp	w1, w0
   8ab00:	54000fa1 	b.ne	8acf4 <CEcoMemoryManager1Lab_623E1838Factory_QueryInterface+0x4bc>  // b.any
   8ab04:	f94013a0 	ldr	x0, [x29, #32]
   8ab08:	91001000 	add	x0, x0, #0x4
   8ab0c:	39400001 	ldrb	w1, [x0]
   8ab10:	b0000420 	adrp	x0, 10f000 <BitFont+0x788>
   8ab14:	9131b000 	add	x0, x0, #0xc6c
   8ab18:	39400000 	ldrb	w0, [x0]
   8ab1c:	6b00003f 	cmp	w1, w0
   8ab20:	54000ea1 	b.ne	8acf4 <CEcoMemoryManager1Lab_623E1838Factory_QueryInterface+0x4bc>  // b.any
   8ab24:	f94013a0 	ldr	x0, [x29, #32]
   8ab28:	91001400 	add	x0, x0, #0x5
   8ab2c:	39400001 	ldrb	w1, [x0]
   8ab30:	b0000420 	adrp	x0, 10f000 <BitFont+0x788>
   8ab34:	9131b400 	add	x0, x0, #0xc6d
   8ab38:	39400000 	ldrb	w0, [x0]
   8ab3c:	6b00003f 	cmp	w1, w0
   8ab40:	54000da1 	b.ne	8acf4 <CEcoMemoryManager1Lab_623E1838Factory_QueryInterface+0x4bc>  // b.any
   8ab44:	f94013a0 	ldr	x0, [x29, #32]
   8ab48:	91001800 	add	x0, x0, #0x6
   8ab4c:	39400001 	ldrb	w1, [x0]
   8ab50:	b0000420 	adrp	x0, 10f000 <BitFont+0x788>
   8ab54:	9131b800 	add	x0, x0, #0xc6e
   8ab58:	39400000 	ldrb	w0, [x0]
   8ab5c:	6b00003f 	cmp	w1, w0
   8ab60:	54000ca1 	b.ne	8acf4 <CEcoMemoryManager1Lab_623E1838Factory_QueryInterface+0x4bc>  // b.any
   8ab64:	f94013a0 	ldr	x0, [x29, #32]
   8ab68:	91001c00 	add	x0, x0, #0x7
   8ab6c:	39400001 	ldrb	w1, [x0]
   8ab70:	b0000420 	adrp	x0, 10f000 <BitFont+0x788>
   8ab74:	9131bc00 	add	x0, x0, #0xc6f
   8ab78:	39400000 	ldrb	w0, [x0]
   8ab7c:	6b00003f 	cmp	w1, w0
   8ab80:	54000ba1 	b.ne	8acf4 <CEcoMemoryManager1Lab_623E1838Factory_QueryInterface+0x4bc>  // b.any
   8ab84:	f94013a0 	ldr	x0, [x29, #32]
   8ab88:	91002000 	add	x0, x0, #0x8
   8ab8c:	39400001 	ldrb	w1, [x0]
   8ab90:	b0000420 	adrp	x0, 10f000 <BitFont+0x788>
   8ab94:	9131c000 	add	x0, x0, #0xc70
   8ab98:	39400000 	ldrb	w0, [x0]
   8ab9c:	6b00003f 	cmp	w1, w0
   8aba0:	54000aa1 	b.ne	8acf4 <CEcoMemoryManager1Lab_623E1838Factory_QueryInterface+0x4bc>  // b.any
   8aba4:	f94013a0 	ldr	x0, [x29, #32]
   8aba8:	91002400 	add	x0, x0, #0x9
   8abac:	39400001 	ldrb	w1, [x0]
   8abb0:	b0000420 	adrp	x0, 10f000 <BitFont+0x788>
   8abb4:	9131c400 	add	x0, x0, #0xc71
   8abb8:	39400000 	ldrb	w0, [x0]
   8abbc:	6b00003f 	cmp	w1, w0
   8abc0:	540009a1 	b.ne	8acf4 <CEcoMemoryManager1Lab_623E1838Factory_QueryInterface+0x4bc>  // b.any
   8abc4:	f94013a0 	ldr	x0, [x29, #32]
   8abc8:	91002800 	add	x0, x0, #0xa
   8abcc:	39400001 	ldrb	w1, [x0]
   8abd0:	b0000420 	adrp	x0, 10f000 <BitFont+0x788>
   8abd4:	9131c800 	add	x0, x0, #0xc72
   8abd8:	39400000 	ldrb	w0, [x0]
   8abdc:	6b00003f 	cmp	w1, w0
   8abe0:	540008a1 	b.ne	8acf4 <CEcoMemoryManager1Lab_623E1838Factory_QueryInterface+0x4bc>  // b.any
   8abe4:	f94013a0 	ldr	x0, [x29, #32]
   8abe8:	91002c00 	add	x0, x0, #0xb
   8abec:	39400001 	ldrb	w1, [x0]
   8abf0:	b0000420 	adrp	x0, 10f000 <BitFont+0x788>
   8abf4:	9131cc00 	add	x0, x0, #0xc73
   8abf8:	39400000 	ldrb	w0, [x0]
   8abfc:	6b00003f 	cmp	w1, w0
   8ac00:	540007a1 	b.ne	8acf4 <CEcoMemoryManager1Lab_623E1838Factory_QueryInterface+0x4bc>  // b.any
   8ac04:	f94013a0 	ldr	x0, [x29, #32]
   8ac08:	91003000 	add	x0, x0, #0xc
   8ac0c:	39400001 	ldrb	w1, [x0]
   8ac10:	b0000420 	adrp	x0, 10f000 <BitFont+0x788>
   8ac14:	9131d000 	add	x0, x0, #0xc74
   8ac18:	39400000 	ldrb	w0, [x0]
   8ac1c:	6b00003f 	cmp	w1, w0
   8ac20:	540006a1 	b.ne	8acf4 <CEcoMemoryManager1Lab_623E1838Factory_QueryInterface+0x4bc>  // b.any
   8ac24:	f94013a0 	ldr	x0, [x29, #32]
   8ac28:	91003400 	add	x0, x0, #0xd
   8ac2c:	39400001 	ldrb	w1, [x0]
   8ac30:	b0000420 	adrp	x0, 10f000 <BitFont+0x788>
   8ac34:	9131d400 	add	x0, x0, #0xc75
   8ac38:	39400000 	ldrb	w0, [x0]
   8ac3c:	6b00003f 	cmp	w1, w0
   8ac40:	540005a1 	b.ne	8acf4 <CEcoMemoryManager1Lab_623E1838Factory_QueryInterface+0x4bc>  // b.any
   8ac44:	f94013a0 	ldr	x0, [x29, #32]
   8ac48:	91003800 	add	x0, x0, #0xe
   8ac4c:	39400001 	ldrb	w1, [x0]
   8ac50:	b0000420 	adrp	x0, 10f000 <BitFont+0x788>
   8ac54:	9131d800 	add	x0, x0, #0xc76
   8ac58:	39400000 	ldrb	w0, [x0]
   8ac5c:	6b00003f 	cmp	w1, w0
   8ac60:	540004a1 	b.ne	8acf4 <CEcoMemoryManager1Lab_623E1838Factory_QueryInterface+0x4bc>  // b.any
   8ac64:	f94013a0 	ldr	x0, [x29, #32]
   8ac68:	91003c00 	add	x0, x0, #0xf
   8ac6c:	39400001 	ldrb	w1, [x0]
   8ac70:	b0000420 	adrp	x0, 10f000 <BitFont+0x788>
   8ac74:	9131dc00 	add	x0, x0, #0xc77
   8ac78:	39400000 	ldrb	w0, [x0]
   8ac7c:	6b00003f 	cmp	w1, w0
   8ac80:	540003a1 	b.ne	8acf4 <CEcoMemoryManager1Lab_623E1838Factory_QueryInterface+0x4bc>  // b.any
   8ac84:	f94013a0 	ldr	x0, [x29, #32]
   8ac88:	91004000 	add	x0, x0, #0x10
   8ac8c:	39400001 	ldrb	w1, [x0]
   8ac90:	b0000420 	adrp	x0, 10f000 <BitFont+0x788>
   8ac94:	9131e000 	add	x0, x0, #0xc78
   8ac98:	39400000 	ldrb	w0, [x0]
   8ac9c:	6b00003f 	cmp	w1, w0
   8aca0:	540002a1 	b.ne	8acf4 <CEcoMemoryManager1Lab_623E1838Factory_QueryInterface+0x4bc>  // b.any
   8aca4:	f94013a0 	ldr	x0, [x29, #32]
   8aca8:	91004400 	add	x0, x0, #0x11
   8acac:	39400001 	ldrb	w1, [x0]
   8acb0:	b0000420 	adrp	x0, 10f000 <BitFont+0x788>
   8acb4:	9131e400 	add	x0, x0, #0xc79
   8acb8:	39400000 	ldrb	w0, [x0]
   8acbc:	6b00003f 	cmp	w1, w0
   8acc0:	540001a1 	b.ne	8acf4 <CEcoMemoryManager1Lab_623E1838Factory_QueryInterface+0x4bc>  // b.any
   8acc4:	f9400fa0 	ldr	x0, [x29, #24]
   8acc8:	f94017a1 	ldr	x1, [x29, #40]
   8accc:	f9000001 	str	x1, [x0]
   8acd0:	f9400fa0 	ldr	x0, [x29, #24]
   8acd4:	f9400000 	ldr	x0, [x0]
   8acd8:	f9400000 	ldr	x0, [x0]
   8acdc:	f9400401 	ldr	x1, [x0, #8]
   8ace0:	f9400fa0 	ldr	x0, [x29, #24]
   8ace4:	f9400000 	ldr	x0, [x0]
   8ace8:	d63f0020 	blr	x1
   8acec:	52800000 	mov	w0, #0x0                   	// #0
   8acf0:	14000004 	b	8ad00 <CEcoMemoryManager1Lab_623E1838Factory_QueryInterface+0x4c8>
   8acf4:	f9400fa0 	ldr	x0, [x29, #24]
   8acf8:	f900001f 	str	xzr, [x0]
   8acfc:	12800000 	mov	w0, #0xffffffff            	// #-1
   8ad00:	a8c37bfd 	ldp	x29, x30, [sp], #48
   8ad04:	d65f03c0 	ret

000000000008ad08 <CEcoMemoryManager1Lab_623E1838Factory_AddRef>:
   8ad08:	d10083ff 	sub	sp, sp, #0x20
   8ad0c:	f90007e0 	str	x0, [sp, #8]
   8ad10:	f94007e0 	ldr	x0, [sp, #8]
   8ad14:	f9000fe0 	str	x0, [sp, #24]
   8ad18:	f94007e0 	ldr	x0, [sp, #8]
   8ad1c:	f100001f 	cmp	x0, #0x0
   8ad20:	54000061 	b.ne	8ad2c <CEcoMemoryManager1Lab_623E1838Factory_AddRef+0x24>  // b.any
   8ad24:	12800000 	mov	w0, #0xffffffff            	// #-1
   8ad28:	14000008 	b	8ad48 <CEcoMemoryManager1Lab_623E1838Factory_AddRef+0x40>
   8ad2c:	f9400fe0 	ldr	x0, [sp, #24]
   8ad30:	b9400800 	ldr	w0, [x0, #8]
   8ad34:	11000401 	add	w1, w0, #0x1
   8ad38:	f9400fe0 	ldr	x0, [sp, #24]
   8ad3c:	b9000801 	str	w1, [x0, #8]
   8ad40:	f9400fe0 	ldr	x0, [sp, #24]
   8ad44:	b9400800 	ldr	w0, [x0, #8]
   8ad48:	910083ff 	add	sp, sp, #0x20
   8ad4c:	d65f03c0 	ret

000000000008ad50 <CEcoMemoryManager1Lab_623E1838Factory_Release>:
   8ad50:	d10083ff 	sub	sp, sp, #0x20
   8ad54:	f90007e0 	str	x0, [sp, #8]
   8ad58:	f94007e0 	ldr	x0, [sp, #8]
   8ad5c:	f9000fe0 	str	x0, [sp, #24]
   8ad60:	f94007e0 	ldr	x0, [sp, #8]
   8ad64:	f100001f 	cmp	x0, #0x0
   8ad68:	54000061 	b.ne	8ad74 <CEcoMemoryManager1Lab_623E1838Factory_Release+0x24>  // b.any
   8ad6c:	12800000 	mov	w0, #0xffffffff            	// #-1
   8ad70:	1400000e 	b	8ada8 <CEcoMemoryManager1Lab_623E1838Factory_Release+0x58>
   8ad74:	f9400fe0 	ldr	x0, [sp, #24]
   8ad78:	b9400800 	ldr	w0, [x0, #8]
   8ad7c:	51000401 	sub	w1, w0, #0x1
   8ad80:	f9400fe0 	ldr	x0, [sp, #24]
   8ad84:	b9000801 	str	w1, [x0, #8]
   8ad88:	f9400fe0 	ldr	x0, [sp, #24]
   8ad8c:	b9400800 	ldr	w0, [x0, #8]
   8ad90:	7100001f 	cmp	w0, #0x0
   8ad94:	54000061 	b.ne	8ada0 <CEcoMemoryManager1Lab_623E1838Factory_Release+0x50>  // b.any
   8ad98:	52800000 	mov	w0, #0x0                   	// #0
   8ad9c:	14000003 	b	8ada8 <CEcoMemoryManager1Lab_623E1838Factory_Release+0x58>
   8ada0:	f9400fe0 	ldr	x0, [sp, #24]
   8ada4:	b9400800 	ldr	w0, [x0, #8]
   8ada8:	910083ff 	add	sp, sp, #0x20
   8adac:	d65f03c0 	ret

000000000008adb0 <CEcoMemoryManager1Lab_623E1838Factory_Init>:
   8adb0:	a9bc7bfd 	stp	x29, x30, [sp, #-64]!
   8adb4:	910003fd 	mov	x29, sp
   8adb8:	f90017a0 	str	x0, [x29, #40]
   8adbc:	f90013a1 	str	x1, [x29, #32]
   8adc0:	f9000fa2 	str	x2, [x29, #24]
   8adc4:	f94017a0 	ldr	x0, [x29, #40]
   8adc8:	f9001fa0 	str	x0, [x29, #56]
   8adcc:	12800000 	mov	w0, #0xffffffff            	// #-1
   8add0:	79006fa0 	strh	w0, [x29, #54]
   8add4:	f94017a0 	ldr	x0, [x29, #40]
   8add8:	f100001f 	cmp	x0, #0x0
   8addc:	54000061 	b.ne	8ade8 <CEcoMemoryManager1Lab_623E1838Factory_Init+0x38>  // b.any
   8ade0:	12800000 	mov	w0, #0xffffffff            	// #-1
   8ade4:	14000008 	b	8ae04 <CEcoMemoryManager1Lab_623E1838Factory_Init+0x54>
   8ade8:	f9401fa0 	ldr	x0, [x29, #56]
   8adec:	f9400c02 	ldr	x2, [x0, #24]
   8adf0:	f94013a1 	ldr	x1, [x29, #32]
   8adf4:	f9400fa0 	ldr	x0, [x29, #24]
   8adf8:	d63f0040 	blr	x2
   8adfc:	79006fa0 	strh	w0, [x29, #54]
   8ae00:	79c06fa0 	ldrsh	w0, [x29, #54]
   8ae04:	a8c47bfd 	ldp	x29, x30, [sp], #64
   8ae08:	d65f03c0 	ret

000000000008ae0c <CEcoMemoryManager1Lab_623E1838Factory_Alloc>:
   8ae0c:	a9ba7bfd 	stp	x29, x30, [sp, #-96]!
   8ae10:	910003fd 	mov	x29, sp
   8ae14:	f9001fa0 	str	x0, [x29, #56]
   8ae18:	f9001ba1 	str	x1, [x29, #48]
   8ae1c:	f90017a2 	str	x2, [x29, #40]
   8ae20:	f90013a3 	str	x3, [x29, #32]
   8ae24:	f9000fa4 	str	x4, [x29, #24]
   8ae28:	f9401fa0 	ldr	x0, [x29, #56]
   8ae2c:	f9002fa0 	str	x0, [x29, #88]
   8ae30:	f90027bf 	str	xzr, [x29, #72]
   8ae34:	12800000 	mov	w0, #0xffffffff            	// #-1
   8ae38:	7900afa0 	strh	w0, [x29, #86]
   8ae3c:	f9401fa0 	ldr	x0, [x29, #56]
   8ae40:	f100001f 	cmp	x0, #0x0
   8ae44:	54000061 	b.ne	8ae50 <CEcoMemoryManager1Lab_623E1838Factory_Alloc+0x44>  // b.any
   8ae48:	12800000 	mov	w0, #0xffffffff            	// #-1
   8ae4c:	140000bc 	b	8b13c <CEcoMemoryManager1Lab_623E1838Factory_Alloc+0x330>
   8ae50:	f94017a0 	ldr	x0, [x29, #40]
   8ae54:	f100001f 	cmp	x0, #0x0
   8ae58:	54001240 	b.eq	8b0a0 <CEcoMemoryManager1Lab_623E1838Factory_Alloc+0x294>  // b.none
   8ae5c:	f94013a0 	ldr	x0, [x29, #32]
   8ae60:	39400001 	ldrb	w1, [x0]
   8ae64:	b0000420 	adrp	x0, 10f000 <BitFont+0x788>
   8ae68:	91314000 	add	x0, x0, #0xc50
   8ae6c:	39400000 	ldrb	w0, [x0]
   8ae70:	6b00003f 	cmp	w1, w0
   8ae74:	54001121 	b.ne	8b098 <CEcoMemoryManager1Lab_623E1838Factory_Alloc+0x28c>  // b.any
   8ae78:	f94013a0 	ldr	x0, [x29, #32]
   8ae7c:	91000400 	add	x0, x0, #0x1
   8ae80:	39400001 	ldrb	w1, [x0]
   8ae84:	b0000420 	adrp	x0, 10f000 <BitFont+0x788>
   8ae88:	91314400 	add	x0, x0, #0xc51
   8ae8c:	39400000 	ldrb	w0, [x0]
   8ae90:	6b00003f 	cmp	w1, w0
   8ae94:	54001021 	b.ne	8b098 <CEcoMemoryManager1Lab_623E1838Factory_Alloc+0x28c>  // b.any
   8ae98:	f94013a0 	ldr	x0, [x29, #32]
   8ae9c:	91000800 	add	x0, x0, #0x2
   8aea0:	39400001 	ldrb	w1, [x0]
   8aea4:	b0000420 	adrp	x0, 10f000 <BitFont+0x788>
   8aea8:	91314800 	add	x0, x0, #0xc52
   8aeac:	39400000 	ldrb	w0, [x0]
   8aeb0:	6b00003f 	cmp	w1, w0
   8aeb4:	54000f21 	b.ne	8b098 <CEcoMemoryManager1Lab_623E1838Factory_Alloc+0x28c>  // b.any
   8aeb8:	f94013a0 	ldr	x0, [x29, #32]
   8aebc:	91000c00 	add	x0, x0, #0x3
   8aec0:	39400001 	ldrb	w1, [x0]
   8aec4:	b0000420 	adrp	x0, 10f000 <BitFont+0x788>
   8aec8:	91314c00 	add	x0, x0, #0xc53
   8aecc:	39400000 	ldrb	w0, [x0]
   8aed0:	6b00003f 	cmp	w1, w0
   8aed4:	54000e21 	b.ne	8b098 <CEcoMemoryManager1Lab_623E1838Factory_Alloc+0x28c>  // b.any
   8aed8:	f94013a0 	ldr	x0, [x29, #32]
   8aedc:	91001000 	add	x0, x0, #0x4
   8aee0:	39400001 	ldrb	w1, [x0]
   8aee4:	b0000420 	adrp	x0, 10f000 <BitFont+0x788>
   8aee8:	91315000 	add	x0, x0, #0xc54
   8aeec:	39400000 	ldrb	w0, [x0]
   8aef0:	6b00003f 	cmp	w1, w0
   8aef4:	54000d21 	b.ne	8b098 <CEcoMemoryManager1Lab_623E1838Factory_Alloc+0x28c>  // b.any
   8aef8:	f94013a0 	ldr	x0, [x29, #32]
   8aefc:	91001400 	add	x0, x0, #0x5
   8af00:	39400001 	ldrb	w1, [x0]
   8af04:	b0000420 	adrp	x0, 10f000 <BitFont+0x788>
   8af08:	91315400 	add	x0, x0, #0xc55
   8af0c:	39400000 	ldrb	w0, [x0]
   8af10:	6b00003f 	cmp	w1, w0
   8af14:	54000c21 	b.ne	8b098 <CEcoMemoryManager1Lab_623E1838Factory_Alloc+0x28c>  // b.any
   8af18:	f94013a0 	ldr	x0, [x29, #32]
   8af1c:	91001800 	add	x0, x0, #0x6
   8af20:	39400001 	ldrb	w1, [x0]
   8af24:	b0000420 	adrp	x0, 10f000 <BitFont+0x788>
   8af28:	91315800 	add	x0, x0, #0xc56
   8af2c:	39400000 	ldrb	w0, [x0]
   8af30:	6b00003f 	cmp	w1, w0
   8af34:	54000b21 	b.ne	8b098 <CEcoMemoryManager1Lab_623E1838Factory_Alloc+0x28c>  // b.any
   8af38:	f94013a0 	ldr	x0, [x29, #32]
   8af3c:	91001c00 	add	x0, x0, #0x7
   8af40:	39400001 	ldrb	w1, [x0]
   8af44:	b0000420 	adrp	x0, 10f000 <BitFont+0x788>
   8af48:	91315c00 	add	x0, x0, #0xc57
   8af4c:	39400000 	ldrb	w0, [x0]
   8af50:	6b00003f 	cmp	w1, w0
   8af54:	54000a21 	b.ne	8b098 <CEcoMemoryManager1Lab_623E1838Factory_Alloc+0x28c>  // b.any
   8af58:	f94013a0 	ldr	x0, [x29, #32]
   8af5c:	91002000 	add	x0, x0, #0x8
   8af60:	39400001 	ldrb	w1, [x0]
   8af64:	b0000420 	adrp	x0, 10f000 <BitFont+0x788>
   8af68:	91316000 	add	x0, x0, #0xc58
   8af6c:	39400000 	ldrb	w0, [x0]
   8af70:	6b00003f 	cmp	w1, w0
   8af74:	54000921 	b.ne	8b098 <CEcoMemoryManager1Lab_623E1838Factory_Alloc+0x28c>  // b.any
   8af78:	f94013a0 	ldr	x0, [x29, #32]
   8af7c:	91002400 	add	x0, x0, #0x9
   8af80:	39400001 	ldrb	w1, [x0]
   8af84:	b0000420 	adrp	x0, 10f000 <BitFont+0x788>
   8af88:	91316400 	add	x0, x0, #0xc59
   8af8c:	39400000 	ldrb	w0, [x0]
   8af90:	6b00003f 	cmp	w1, w0
   8af94:	54000821 	b.ne	8b098 <CEcoMemoryManager1Lab_623E1838Factory_Alloc+0x28c>  // b.any
   8af98:	f94013a0 	ldr	x0, [x29, #32]
   8af9c:	91002800 	add	x0, x0, #0xa
   8afa0:	39400001 	ldrb	w1, [x0]
   8afa4:	b0000420 	adrp	x0, 10f000 <BitFont+0x788>
   8afa8:	91316800 	add	x0, x0, #0xc5a
   8afac:	39400000 	ldrb	w0, [x0]
   8afb0:	6b00003f 	cmp	w1, w0
   8afb4:	54000721 	b.ne	8b098 <CEcoMemoryManager1Lab_623E1838Factory_Alloc+0x28c>  // b.any
   8afb8:	f94013a0 	ldr	x0, [x29, #32]
   8afbc:	91002c00 	add	x0, x0, #0xb
   8afc0:	39400001 	ldrb	w1, [x0]
   8afc4:	b0000420 	adrp	x0, 10f000 <BitFont+0x788>
   8afc8:	91316c00 	add	x0, x0, #0xc5b
   8afcc:	39400000 	ldrb	w0, [x0]
   8afd0:	6b00003f 	cmp	w1, w0
   8afd4:	54000621 	b.ne	8b098 <CEcoMemoryManager1Lab_623E1838Factory_Alloc+0x28c>  // b.any
   8afd8:	f94013a0 	ldr	x0, [x29, #32]
   8afdc:	91003000 	add	x0, x0, #0xc
   8afe0:	39400001 	ldrb	w1, [x0]
   8afe4:	b0000420 	adrp	x0, 10f000 <BitFont+0x788>
   8afe8:	91317000 	add	x0, x0, #0xc5c
   8afec:	39400000 	ldrb	w0, [x0]
   8aff0:	6b00003f 	cmp	w1, w0
   8aff4:	54000521 	b.ne	8b098 <CEcoMemoryManager1Lab_623E1838Factory_Alloc+0x28c>  // b.any
   8aff8:	f94013a0 	ldr	x0, [x29, #32]
   8affc:	91003400 	add	x0, x0, #0xd
   8b000:	39400001 	ldrb	w1, [x0]
   8b004:	90000420 	adrp	x0, 10f000 <BitFont+0x788>
   8b008:	91317400 	add	x0, x0, #0xc5d
   8b00c:	39400000 	ldrb	w0, [x0]
   8b010:	6b00003f 	cmp	w1, w0
   8b014:	54000421 	b.ne	8b098 <CEcoMemoryManager1Lab_623E1838Factory_Alloc+0x28c>  // b.any
   8b018:	f94013a0 	ldr	x0, [x29, #32]
   8b01c:	91003800 	add	x0, x0, #0xe
   8b020:	39400001 	ldrb	w1, [x0]
   8b024:	90000420 	adrp	x0, 10f000 <BitFont+0x788>
   8b028:	91317800 	add	x0, x0, #0xc5e
   8b02c:	39400000 	ldrb	w0, [x0]
   8b030:	6b00003f 	cmp	w1, w0
   8b034:	54000321 	b.ne	8b098 <CEcoMemoryManager1Lab_623E1838Factory_Alloc+0x28c>  // b.any
   8b038:	f94013a0 	ldr	x0, [x29, #32]
   8b03c:	91003c00 	add	x0, x0, #0xf
   8b040:	39400001 	ldrb	w1, [x0]
   8b044:	90000420 	adrp	x0, 10f000 <BitFont+0x788>
   8b048:	91317c00 	add	x0, x0, #0xc5f
   8b04c:	39400000 	ldrb	w0, [x0]
   8b050:	6b00003f 	cmp	w1, w0
   8b054:	54000221 	b.ne	8b098 <CEcoMemoryManager1Lab_623E1838Factory_Alloc+0x28c>  // b.any
   8b058:	f94013a0 	ldr	x0, [x29, #32]
   8b05c:	91004000 	add	x0, x0, #0x10
   8b060:	39400001 	ldrb	w1, [x0]
   8b064:	90000420 	adrp	x0, 10f000 <BitFont+0x788>
   8b068:	91318000 	add	x0, x0, #0xc60
   8b06c:	39400000 	ldrb	w0, [x0]
   8b070:	6b00003f 	cmp	w1, w0
   8b074:	54000121 	b.ne	8b098 <CEcoMemoryManager1Lab_623E1838Factory_Alloc+0x28c>  // b.any
   8b078:	f94013a0 	ldr	x0, [x29, #32]
   8b07c:	91004400 	add	x0, x0, #0x11
   8b080:	39400001 	ldrb	w1, [x0]
   8b084:	90000420 	adrp	x0, 10f000 <BitFont+0x788>
   8b088:	91318400 	add	x0, x0, #0xc61
   8b08c:	39400000 	ldrb	w0, [x0]
   8b090:	6b00003f 	cmp	w1, w0
   8b094:	54000060 	b.eq	8b0a0 <CEcoMemoryManager1Lab_623E1838Factory_Alloc+0x294>  // b.none
   8b098:	12800000 	mov	w0, #0xffffffff            	// #-1
   8b09c:	14000028 	b	8b13c <CEcoMemoryManager1Lab_623E1838Factory_Alloc+0x330>
   8b0a0:	f9402fa0 	ldr	x0, [x29, #88]
   8b0a4:	f9400803 	ldr	x3, [x0, #16]
   8b0a8:	910123a0 	add	x0, x29, #0x48
   8b0ac:	aa0003e2 	mov	x2, x0
   8b0b0:	f94017a1 	ldr	x1, [x29, #40]
   8b0b4:	f9401ba0 	ldr	x0, [x29, #48]
   8b0b8:	d63f0060 	blr	x3
   8b0bc:	7900afa0 	strh	w0, [x29, #86]
   8b0c0:	79c0afa0 	ldrsh	w0, [x29, #86]
   8b0c4:	7100001f 	cmp	w0, #0x0
   8b0c8:	54000081 	b.ne	8b0d8 <CEcoMemoryManager1Lab_623E1838Factory_Alloc+0x2cc>  // b.any
   8b0cc:	f94027a0 	ldr	x0, [x29, #72]
   8b0d0:	f100001f 	cmp	x0, #0x0
   8b0d4:	54000061 	b.ne	8b0e0 <CEcoMemoryManager1Lab_623E1838Factory_Alloc+0x2d4>  // b.any
   8b0d8:	12800000 	mov	w0, #0xffffffff            	// #-1
   8b0dc:	14000018 	b	8b13c <CEcoMemoryManager1Lab_623E1838Factory_Alloc+0x330>
   8b0e0:	f9401fa0 	ldr	x0, [x29, #56]
   8b0e4:	f9400000 	ldr	x0, [x0]
   8b0e8:	f9401003 	ldr	x3, [x0, #32]
   8b0ec:	f94027a0 	ldr	x0, [x29, #72]
   8b0f0:	aa0003e2 	mov	x2, x0
   8b0f4:	f9401ba1 	ldr	x1, [x29, #48]
   8b0f8:	f9401fa0 	ldr	x0, [x29, #56]
   8b0fc:	d63f0060 	blr	x3
   8b100:	7900afa0 	strh	w0, [x29, #86]
   8b104:	f94027a0 	ldr	x0, [x29, #72]
   8b108:	f9400000 	ldr	x0, [x0]
   8b10c:	f9400003 	ldr	x3, [x0]
   8b110:	f94027a0 	ldr	x0, [x29, #72]
   8b114:	f9400fa2 	ldr	x2, [x29, #24]
   8b118:	f94013a1 	ldr	x1, [x29, #32]
   8b11c:	d63f0060 	blr	x3
   8b120:	7900afa0 	strh	w0, [x29, #86]
   8b124:	f94027a0 	ldr	x0, [x29, #72]
   8b128:	f9400000 	ldr	x0, [x0]
   8b12c:	f9400801 	ldr	x1, [x0, #16]
   8b130:	f94027a0 	ldr	x0, [x29, #72]
   8b134:	d63f0020 	blr	x1
   8b138:	79c0afa0 	ldrsh	w0, [x29, #86]
   8b13c:	a8c67bfd 	ldp	x29, x30, [sp], #96
   8b140:	d65f03c0 	ret

000000000008b144 <CEcoMemoryManager1Lab_623E1838Factory_get_Name>:
   8b144:	d10083ff 	sub	sp, sp, #0x20
   8b148:	f90007e0 	str	x0, [sp, #8]
   8b14c:	f94007e0 	ldr	x0, [sp, #8]
   8b150:	f9000fe0 	str	x0, [sp, #24]
   8b154:	f94007e0 	ldr	x0, [sp, #8]
   8b158:	f100001f 	cmp	x0, #0x0
   8b15c:	54000061 	b.ne	8b168 <CEcoMemoryManager1Lab_623E1838Factory_get_Name+0x24>  // b.any
   8b160:	d2800000 	mov	x0, #0x0                   	// #0
   8b164:	14000003 	b	8b170 <CEcoMemoryManager1Lab_623E1838Factory_get_Name+0x2c>
   8b168:	f9400fe0 	ldr	x0, [sp, #24]
   8b16c:	91008000 	add	x0, x0, #0x20
   8b170:	910083ff 	add	sp, sp, #0x20
   8b174:	d65f03c0 	ret

000000000008b178 <CEcoMemoryManager1Lab_623E1838Factory_get_Version>:
   8b178:	d10083ff 	sub	sp, sp, #0x20
   8b17c:	f90007e0 	str	x0, [sp, #8]
   8b180:	f94007e0 	ldr	x0, [sp, #8]
   8b184:	f9000fe0 	str	x0, [sp, #24]
   8b188:	f94007e0 	ldr	x0, [sp, #8]
   8b18c:	f100001f 	cmp	x0, #0x0
   8b190:	54000061 	b.ne	8b19c <CEcoMemoryManager1Lab_623E1838Factory_get_Version+0x24>  // b.any
   8b194:	d2800000 	mov	x0, #0x0                   	// #0
   8b198:	14000003 	b	8b1a4 <CEcoMemoryManager1Lab_623E1838Factory_get_Version+0x2c>
   8b19c:	f9400fe0 	ldr	x0, [sp, #24]
   8b1a0:	91018000 	add	x0, x0, #0x60
   8b1a4:	910083ff 	add	sp, sp, #0x20
   8b1a8:	d65f03c0 	ret

000000000008b1ac <CEcoMemoryManager1Lab_623E1838Factory_get_Manufacturer>:
   8b1ac:	d10083ff 	sub	sp, sp, #0x20
   8b1b0:	f90007e0 	str	x0, [sp, #8]
   8b1b4:	f94007e0 	ldr	x0, [sp, #8]
   8b1b8:	f9000fe0 	str	x0, [sp, #24]
   8b1bc:	f94007e0 	ldr	x0, [sp, #8]
   8b1c0:	f100001f 	cmp	x0, #0x0
   8b1c4:	54000061 	b.ne	8b1d0 <CEcoMemoryManager1Lab_623E1838Factory_get_Manufacturer+0x24>  // b.any
   8b1c8:	d2800000 	mov	x0, #0x0                   	// #0
   8b1cc:	14000003 	b	8b1d8 <CEcoMemoryManager1Lab_623E1838Factory_get_Manufacturer+0x2c>
   8b1d0:	f9400fe0 	ldr	x0, [sp, #24]
   8b1d4:	9101c000 	add	x0, x0, #0x70
   8b1d8:	910083ff 	add	sp, sp, #0x20
   8b1dc:	d65f03c0 	ret

000000000008b1e0 <CEcoMemoryManager1Lab_623E1838_QueryInterface>:
   8b1e0:	a9bc7bfd 	stp	x29, x30, [sp, #-64]!
   8b1e4:	910003fd 	mov	x29, sp
   8b1e8:	f90017a0 	str	x0, [x29, #40]
   8b1ec:	f90013a1 	str	x1, [x29, #32]
   8b1f0:	f9000fa2 	str	x2, [x29, #24]
   8b1f4:	f94017a0 	ldr	x0, [x29, #40]
   8b1f8:	f9001fa0 	str	x0, [x29, #56]
   8b1fc:	f94017a0 	ldr	x0, [x29, #40]
   8b200:	f100001f 	cmp	x0, #0x0
   8b204:	54000080 	b.eq	8b214 <CEcoMemoryManager1Lab_623E1838_QueryInterface+0x34>  // b.none
   8b208:	f9400fa0 	ldr	x0, [x29, #24]
   8b20c:	f100001f 	cmp	x0, #0x0
   8b210:	54000061 	b.ne	8b21c <CEcoMemoryManager1Lab_623E1838_QueryInterface+0x3c>  // b.any
   8b214:	12800000 	mov	w0, #0xffffffff            	// #-1
   8b218:	14000268 	b	8bbb8 <CEcoMemoryManager1Lab_623E1838_QueryInterface+0x9d8>
   8b21c:	f94013a0 	ldr	x0, [x29, #32]
   8b220:	39400001 	ldrb	w1, [x0]
   8b224:	90000420 	adrp	x0, 10f000 <BitFont+0x788>
   8b228:	91374000 	add	x0, x0, #0xdd0
   8b22c:	39400000 	ldrb	w0, [x0]
   8b230:	6b00003f 	cmp	w1, w0
   8b234:	54001241 	b.ne	8b47c <CEcoMemoryManager1Lab_623E1838_QueryInterface+0x29c>  // b.any
   8b238:	f94013a0 	ldr	x0, [x29, #32]
   8b23c:	91000400 	add	x0, x0, #0x1
   8b240:	39400001 	ldrb	w1, [x0]
   8b244:	90000420 	adrp	x0, 10f000 <BitFont+0x788>
   8b248:	91374400 	add	x0, x0, #0xdd1
   8b24c:	39400000 	ldrb	w0, [x0]
   8b250:	6b00003f 	cmp	w1, w0
   8b254:	54001141 	b.ne	8b47c <CEcoMemoryManager1Lab_623E1838_QueryInterface+0x29c>  // b.any
   8b258:	f94013a0 	ldr	x0, [x29, #32]
   8b25c:	91000800 	add	x0, x0, #0x2
   8b260:	39400001 	ldrb	w1, [x0]
   8b264:	90000420 	adrp	x0, 10f000 <BitFont+0x788>
   8b268:	91374800 	add	x0, x0, #0xdd2
   8b26c:	39400000 	ldrb	w0, [x0]
   8b270:	6b00003f 	cmp	w1, w0
   8b274:	54001041 	b.ne	8b47c <CEcoMemoryManager1Lab_623E1838_QueryInterface+0x29c>  // b.any
   8b278:	f94013a0 	ldr	x0, [x29, #32]
   8b27c:	91000c00 	add	x0, x0, #0x3
   8b280:	39400001 	ldrb	w1, [x0]
   8b284:	90000420 	adrp	x0, 10f000 <BitFont+0x788>
   8b288:	91374c00 	add	x0, x0, #0xdd3
   8b28c:	39400000 	ldrb	w0, [x0]
   8b290:	6b00003f 	cmp	w1, w0
   8b294:	54000f41 	b.ne	8b47c <CEcoMemoryManager1Lab_623E1838_QueryInterface+0x29c>  // b.any
   8b298:	f94013a0 	ldr	x0, [x29, #32]
   8b29c:	91001000 	add	x0, x0, #0x4
   8b2a0:	39400001 	ldrb	w1, [x0]
   8b2a4:	90000420 	adrp	x0, 10f000 <BitFont+0x788>
   8b2a8:	91375000 	add	x0, x0, #0xdd4
   8b2ac:	39400000 	ldrb	w0, [x0]
   8b2b0:	6b00003f 	cmp	w1, w0
   8b2b4:	54000e41 	b.ne	8b47c <CEcoMemoryManager1Lab_623E1838_QueryInterface+0x29c>  // b.any
   8b2b8:	f94013a0 	ldr	x0, [x29, #32]
   8b2bc:	91001400 	add	x0, x0, #0x5
   8b2c0:	39400001 	ldrb	w1, [x0]
   8b2c4:	90000420 	adrp	x0, 10f000 <BitFont+0x788>
   8b2c8:	91375400 	add	x0, x0, #0xdd5
   8b2cc:	39400000 	ldrb	w0, [x0]
   8b2d0:	6b00003f 	cmp	w1, w0
   8b2d4:	54000d41 	b.ne	8b47c <CEcoMemoryManager1Lab_623E1838_QueryInterface+0x29c>  // b.any
   8b2d8:	f94013a0 	ldr	x0, [x29, #32]
   8b2dc:	91001800 	add	x0, x0, #0x6
   8b2e0:	39400001 	ldrb	w1, [x0]
   8b2e4:	90000420 	adrp	x0, 10f000 <BitFont+0x788>
   8b2e8:	91375800 	add	x0, x0, #0xdd6
   8b2ec:	39400000 	ldrb	w0, [x0]
   8b2f0:	6b00003f 	cmp	w1, w0
   8b2f4:	54000c41 	b.ne	8b47c <CEcoMemoryManager1Lab_623E1838_QueryInterface+0x29c>  // b.any
   8b2f8:	f94013a0 	ldr	x0, [x29, #32]
   8b2fc:	91001c00 	add	x0, x0, #0x7
   8b300:	39400001 	ldrb	w1, [x0]
   8b304:	90000420 	adrp	x0, 10f000 <BitFont+0x788>
   8b308:	91375c00 	add	x0, x0, #0xdd7
   8b30c:	39400000 	ldrb	w0, [x0]
   8b310:	6b00003f 	cmp	w1, w0
   8b314:	54000b41 	b.ne	8b47c <CEcoMemoryManager1Lab_623E1838_QueryInterface+0x29c>  // b.any
   8b318:	f94013a0 	ldr	x0, [x29, #32]
   8b31c:	91002000 	add	x0, x0, #0x8
   8b320:	39400001 	ldrb	w1, [x0]
   8b324:	90000420 	adrp	x0, 10f000 <BitFont+0x788>
   8b328:	91376000 	add	x0, x0, #0xdd8
   8b32c:	39400000 	ldrb	w0, [x0]
   8b330:	6b00003f 	cmp	w1, w0
   8b334:	54000a41 	b.ne	8b47c <CEcoMemoryManager1Lab_623E1838_QueryInterface+0x29c>  // b.any
   8b338:	f94013a0 	ldr	x0, [x29, #32]
   8b33c:	91002400 	add	x0, x0, #0x9
   8b340:	39400001 	ldrb	w1, [x0]
   8b344:	90000420 	adrp	x0, 10f000 <BitFont+0x788>
   8b348:	91376400 	add	x0, x0, #0xdd9
   8b34c:	39400000 	ldrb	w0, [x0]
   8b350:	6b00003f 	cmp	w1, w0
   8b354:	54000941 	b.ne	8b47c <CEcoMemoryManager1Lab_623E1838_QueryInterface+0x29c>  // b.any
   8b358:	f94013a0 	ldr	x0, [x29, #32]
   8b35c:	91002800 	add	x0, x0, #0xa
   8b360:	39400001 	ldrb	w1, [x0]
   8b364:	90000420 	adrp	x0, 10f000 <BitFont+0x788>
   8b368:	91376800 	add	x0, x0, #0xdda
   8b36c:	39400000 	ldrb	w0, [x0]
   8b370:	6b00003f 	cmp	w1, w0
   8b374:	54000841 	b.ne	8b47c <CEcoMemoryManager1Lab_623E1838_QueryInterface+0x29c>  // b.any
   8b378:	f94013a0 	ldr	x0, [x29, #32]
   8b37c:	91002c00 	add	x0, x0, #0xb
   8b380:	39400001 	ldrb	w1, [x0]
   8b384:	90000420 	adrp	x0, 10f000 <BitFont+0x788>
   8b388:	91376c00 	add	x0, x0, #0xddb
   8b38c:	39400000 	ldrb	w0, [x0]
   8b390:	6b00003f 	cmp	w1, w0
   8b394:	54000741 	b.ne	8b47c <CEcoMemoryManager1Lab_623E1838_QueryInterface+0x29c>  // b.any
   8b398:	f94013a0 	ldr	x0, [x29, #32]
   8b39c:	91003000 	add	x0, x0, #0xc
   8b3a0:	39400001 	ldrb	w1, [x0]
   8b3a4:	90000420 	adrp	x0, 10f000 <BitFont+0x788>
   8b3a8:	91377000 	add	x0, x0, #0xddc
   8b3ac:	39400000 	ldrb	w0, [x0]
   8b3b0:	6b00003f 	cmp	w1, w0
   8b3b4:	54000641 	b.ne	8b47c <CEcoMemoryManager1Lab_623E1838_QueryInterface+0x29c>  // b.any
   8b3b8:	f94013a0 	ldr	x0, [x29, #32]
   8b3bc:	91003400 	add	x0, x0, #0xd
   8b3c0:	39400001 	ldrb	w1, [x0]
   8b3c4:	90000420 	adrp	x0, 10f000 <BitFont+0x788>
   8b3c8:	91377400 	add	x0, x0, #0xddd
   8b3cc:	39400000 	ldrb	w0, [x0]
   8b3d0:	6b00003f 	cmp	w1, w0
   8b3d4:	54000541 	b.ne	8b47c <CEcoMemoryManager1Lab_623E1838_QueryInterface+0x29c>  // b.any
   8b3d8:	f94013a0 	ldr	x0, [x29, #32]
   8b3dc:	91003800 	add	x0, x0, #0xe
   8b3e0:	39400001 	ldrb	w1, [x0]
   8b3e4:	90000420 	adrp	x0, 10f000 <BitFont+0x788>
   8b3e8:	91377800 	add	x0, x0, #0xdde
   8b3ec:	39400000 	ldrb	w0, [x0]
   8b3f0:	6b00003f 	cmp	w1, w0
   8b3f4:	54000441 	b.ne	8b47c <CEcoMemoryManager1Lab_623E1838_QueryInterface+0x29c>  // b.any
   8b3f8:	f94013a0 	ldr	x0, [x29, #32]
   8b3fc:	91003c00 	add	x0, x0, #0xf
   8b400:	39400001 	ldrb	w1, [x0]
   8b404:	90000420 	adrp	x0, 10f000 <BitFont+0x788>
   8b408:	91377c00 	add	x0, x0, #0xddf
   8b40c:	39400000 	ldrb	w0, [x0]
   8b410:	6b00003f 	cmp	w1, w0
   8b414:	54000341 	b.ne	8b47c <CEcoMemoryManager1Lab_623E1838_QueryInterface+0x29c>  // b.any
   8b418:	f94013a0 	ldr	x0, [x29, #32]
   8b41c:	91004000 	add	x0, x0, #0x10
   8b420:	39400001 	ldrb	w1, [x0]
   8b424:	90000420 	adrp	x0, 10f000 <BitFont+0x788>
   8b428:	91378000 	add	x0, x0, #0xde0
   8b42c:	39400000 	ldrb	w0, [x0]
   8b430:	6b00003f 	cmp	w1, w0
   8b434:	54000241 	b.ne	8b47c <CEcoMemoryManager1Lab_623E1838_QueryInterface+0x29c>  // b.any
   8b438:	f94013a0 	ldr	x0, [x29, #32]
   8b43c:	91004400 	add	x0, x0, #0x11
   8b440:	39400001 	ldrb	w1, [x0]
   8b444:	90000420 	adrp	x0, 10f000 <BitFont+0x788>
   8b448:	91378400 	add	x0, x0, #0xde1
   8b44c:	39400000 	ldrb	w0, [x0]
   8b450:	6b00003f 	cmp	w1, w0
   8b454:	54000141 	b.ne	8b47c <CEcoMemoryManager1Lab_623E1838_QueryInterface+0x29c>  // b.any
   8b458:	f9401fa1 	ldr	x1, [x29, #56]
   8b45c:	f9400fa0 	ldr	x0, [x29, #24]
   8b460:	f9000001 	str	x1, [x0]
   8b464:	f9401fa0 	ldr	x0, [x29, #56]
   8b468:	f9400000 	ldr	x0, [x0]
   8b46c:	f9400401 	ldr	x1, [x0, #8]
   8b470:	f9401fa0 	ldr	x0, [x29, #56]
   8b474:	d63f0020 	blr	x1
   8b478:	140001cf 	b	8bbb4 <CEcoMemoryManager1Lab_623E1838_QueryInterface+0x9d4>
   8b47c:	f94013a0 	ldr	x0, [x29, #32]
   8b480:	39400001 	ldrb	w1, [x0]
   8b484:	90000420 	adrp	x0, 10f000 <BitFont+0x788>
   8b488:	9136e000 	add	x0, x0, #0xdb8
   8b48c:	39400000 	ldrb	w0, [x0]
   8b490:	6b00003f 	cmp	w1, w0
   8b494:	54001261 	b.ne	8b6e0 <CEcoMemoryManager1Lab_623E1838_QueryInterface+0x500>  // b.any
   8b498:	f94013a0 	ldr	x0, [x29, #32]
   8b49c:	91000400 	add	x0, x0, #0x1
   8b4a0:	39400001 	ldrb	w1, [x0]
   8b4a4:	90000420 	adrp	x0, 10f000 <BitFont+0x788>
   8b4a8:	9136e400 	add	x0, x0, #0xdb9
   8b4ac:	39400000 	ldrb	w0, [x0]
   8b4b0:	6b00003f 	cmp	w1, w0
   8b4b4:	54001161 	b.ne	8b6e0 <CEcoMemoryManager1Lab_623E1838_QueryInterface+0x500>  // b.any
   8b4b8:	f94013a0 	ldr	x0, [x29, #32]
   8b4bc:	91000800 	add	x0, x0, #0x2
   8b4c0:	39400001 	ldrb	w1, [x0]
   8b4c4:	90000420 	adrp	x0, 10f000 <BitFont+0x788>
   8b4c8:	9136e800 	add	x0, x0, #0xdba
   8b4cc:	39400000 	ldrb	w0, [x0]
   8b4d0:	6b00003f 	cmp	w1, w0
   8b4d4:	54001061 	b.ne	8b6e0 <CEcoMemoryManager1Lab_623E1838_QueryInterface+0x500>  // b.any
   8b4d8:	f94013a0 	ldr	x0, [x29, #32]
   8b4dc:	91000c00 	add	x0, x0, #0x3
   8b4e0:	39400001 	ldrb	w1, [x0]
   8b4e4:	90000420 	adrp	x0, 10f000 <BitFont+0x788>
   8b4e8:	9136ec00 	add	x0, x0, #0xdbb
   8b4ec:	39400000 	ldrb	w0, [x0]
   8b4f0:	6b00003f 	cmp	w1, w0
   8b4f4:	54000f61 	b.ne	8b6e0 <CEcoMemoryManager1Lab_623E1838_QueryInterface+0x500>  // b.any
   8b4f8:	f94013a0 	ldr	x0, [x29, #32]
   8b4fc:	91001000 	add	x0, x0, #0x4
   8b500:	39400001 	ldrb	w1, [x0]
   8b504:	90000420 	adrp	x0, 10f000 <BitFont+0x788>
   8b508:	9136f000 	add	x0, x0, #0xdbc
   8b50c:	39400000 	ldrb	w0, [x0]
   8b510:	6b00003f 	cmp	w1, w0
   8b514:	54000e61 	b.ne	8b6e0 <CEcoMemoryManager1Lab_623E1838_QueryInterface+0x500>  // b.any
   8b518:	f94013a0 	ldr	x0, [x29, #32]
   8b51c:	91001400 	add	x0, x0, #0x5
   8b520:	39400001 	ldrb	w1, [x0]
   8b524:	90000420 	adrp	x0, 10f000 <BitFont+0x788>
   8b528:	9136f400 	add	x0, x0, #0xdbd
   8b52c:	39400000 	ldrb	w0, [x0]
   8b530:	6b00003f 	cmp	w1, w0
   8b534:	54000d61 	b.ne	8b6e0 <CEcoMemoryManager1Lab_623E1838_QueryInterface+0x500>  // b.any
   8b538:	f94013a0 	ldr	x0, [x29, #32]
   8b53c:	91001800 	add	x0, x0, #0x6
   8b540:	39400001 	ldrb	w1, [x0]
   8b544:	90000420 	adrp	x0, 10f000 <BitFont+0x788>
   8b548:	9136f800 	add	x0, x0, #0xdbe
   8b54c:	39400000 	ldrb	w0, [x0]
   8b550:	6b00003f 	cmp	w1, w0
   8b554:	54000c61 	b.ne	8b6e0 <CEcoMemoryManager1Lab_623E1838_QueryInterface+0x500>  // b.any
   8b558:	f94013a0 	ldr	x0, [x29, #32]
   8b55c:	91001c00 	add	x0, x0, #0x7
   8b560:	39400001 	ldrb	w1, [x0]
   8b564:	90000420 	adrp	x0, 10f000 <BitFont+0x788>
   8b568:	9136fc00 	add	x0, x0, #0xdbf
   8b56c:	39400000 	ldrb	w0, [x0]
   8b570:	6b00003f 	cmp	w1, w0
   8b574:	54000b61 	b.ne	8b6e0 <CEcoMemoryManager1Lab_623E1838_QueryInterface+0x500>  // b.any
   8b578:	f94013a0 	ldr	x0, [x29, #32]
   8b57c:	91002000 	add	x0, x0, #0x8
   8b580:	39400001 	ldrb	w1, [x0]
   8b584:	90000420 	adrp	x0, 10f000 <BitFont+0x788>
   8b588:	91370000 	add	x0, x0, #0xdc0
   8b58c:	39400000 	ldrb	w0, [x0]
   8b590:	6b00003f 	cmp	w1, w0
   8b594:	54000a61 	b.ne	8b6e0 <CEcoMemoryManager1Lab_623E1838_QueryInterface+0x500>  // b.any
   8b598:	f94013a0 	ldr	x0, [x29, #32]
   8b59c:	91002400 	add	x0, x0, #0x9
   8b5a0:	39400001 	ldrb	w1, [x0]
   8b5a4:	90000420 	adrp	x0, 10f000 <BitFont+0x788>
   8b5a8:	91370400 	add	x0, x0, #0xdc1
   8b5ac:	39400000 	ldrb	w0, [x0]
   8b5b0:	6b00003f 	cmp	w1, w0
   8b5b4:	54000961 	b.ne	8b6e0 <CEcoMemoryManager1Lab_623E1838_QueryInterface+0x500>  // b.any
   8b5b8:	f94013a0 	ldr	x0, [x29, #32]
   8b5bc:	91002800 	add	x0, x0, #0xa
   8b5c0:	39400001 	ldrb	w1, [x0]
   8b5c4:	90000420 	adrp	x0, 10f000 <BitFont+0x788>
   8b5c8:	91370800 	add	x0, x0, #0xdc2
   8b5cc:	39400000 	ldrb	w0, [x0]
   8b5d0:	6b00003f 	cmp	w1, w0
   8b5d4:	54000861 	b.ne	8b6e0 <CEcoMemoryManager1Lab_623E1838_QueryInterface+0x500>  // b.any
   8b5d8:	f94013a0 	ldr	x0, [x29, #32]
   8b5dc:	91002c00 	add	x0, x0, #0xb
   8b5e0:	39400001 	ldrb	w1, [x0]
   8b5e4:	90000420 	adrp	x0, 10f000 <BitFont+0x788>
   8b5e8:	91370c00 	add	x0, x0, #0xdc3
   8b5ec:	39400000 	ldrb	w0, [x0]
   8b5f0:	6b00003f 	cmp	w1, w0
   8b5f4:	54000761 	b.ne	8b6e0 <CEcoMemoryManager1Lab_623E1838_QueryInterface+0x500>  // b.any
   8b5f8:	f94013a0 	ldr	x0, [x29, #32]
   8b5fc:	91003000 	add	x0, x0, #0xc
   8b600:	39400001 	ldrb	w1, [x0]
   8b604:	90000420 	adrp	x0, 10f000 <BitFont+0x788>
   8b608:	91371000 	add	x0, x0, #0xdc4
   8b60c:	39400000 	ldrb	w0, [x0]
   8b610:	6b00003f 	cmp	w1, w0
   8b614:	54000661 	b.ne	8b6e0 <CEcoMemoryManager1Lab_623E1838_QueryInterface+0x500>  // b.any
   8b618:	f94013a0 	ldr	x0, [x29, #32]
   8b61c:	91003400 	add	x0, x0, #0xd
   8b620:	39400001 	ldrb	w1, [x0]
   8b624:	90000420 	adrp	x0, 10f000 <BitFont+0x788>
   8b628:	91371400 	add	x0, x0, #0xdc5
   8b62c:	39400000 	ldrb	w0, [x0]
   8b630:	6b00003f 	cmp	w1, w0
   8b634:	54000561 	b.ne	8b6e0 <CEcoMemoryManager1Lab_623E1838_QueryInterface+0x500>  // b.any
   8b638:	f94013a0 	ldr	x0, [x29, #32]
   8b63c:	91003800 	add	x0, x0, #0xe
   8b640:	39400001 	ldrb	w1, [x0]
   8b644:	90000420 	adrp	x0, 10f000 <BitFont+0x788>
   8b648:	91371800 	add	x0, x0, #0xdc6
   8b64c:	39400000 	ldrb	w0, [x0]
   8b650:	6b00003f 	cmp	w1, w0
   8b654:	54000461 	b.ne	8b6e0 <CEcoMemoryManager1Lab_623E1838_QueryInterface+0x500>  // b.any
   8b658:	f94013a0 	ldr	x0, [x29, #32]
   8b65c:	91003c00 	add	x0, x0, #0xf
   8b660:	39400001 	ldrb	w1, [x0]
   8b664:	90000420 	adrp	x0, 10f000 <BitFont+0x788>
   8b668:	91371c00 	add	x0, x0, #0xdc7
   8b66c:	39400000 	ldrb	w0, [x0]
   8b670:	6b00003f 	cmp	w1, w0
   8b674:	54000361 	b.ne	8b6e0 <CEcoMemoryManager1Lab_623E1838_QueryInterface+0x500>  // b.any
   8b678:	f94013a0 	ldr	x0, [x29, #32]
   8b67c:	91004000 	add	x0, x0, #0x10
   8b680:	39400001 	ldrb	w1, [x0]
   8b684:	90000420 	adrp	x0, 10f000 <BitFont+0x788>
   8b688:	91372000 	add	x0, x0, #0xdc8
   8b68c:	39400000 	ldrb	w0, [x0]
   8b690:	6b00003f 	cmp	w1, w0
   8b694:	54000261 	b.ne	8b6e0 <CEcoMemoryManager1Lab_623E1838_QueryInterface+0x500>  // b.any
   8b698:	f94013a0 	ldr	x0, [x29, #32]
   8b69c:	91004400 	add	x0, x0, #0x11
   8b6a0:	39400001 	ldrb	w1, [x0]
   8b6a4:	90000420 	adrp	x0, 10f000 <BitFont+0x788>
   8b6a8:	91372400 	add	x0, x0, #0xdc9
   8b6ac:	39400000 	ldrb	w0, [x0]
   8b6b0:	6b00003f 	cmp	w1, w0
   8b6b4:	54000161 	b.ne	8b6e0 <CEcoMemoryManager1Lab_623E1838_QueryInterface+0x500>  // b.any
   8b6b8:	f9401fa0 	ldr	x0, [x29, #56]
   8b6bc:	91002001 	add	x1, x0, #0x8
   8b6c0:	f9400fa0 	ldr	x0, [x29, #24]
   8b6c4:	f9000001 	str	x1, [x0]
   8b6c8:	f9401fa0 	ldr	x0, [x29, #56]
   8b6cc:	f9400000 	ldr	x0, [x0]
   8b6d0:	f9400401 	ldr	x1, [x0, #8]
   8b6d4:	f9401fa0 	ldr	x0, [x29, #56]
   8b6d8:	d63f0020 	blr	x1
   8b6dc:	14000136 	b	8bbb4 <CEcoMemoryManager1Lab_623E1838_QueryInterface+0x9d4>
   8b6e0:	f94013a0 	ldr	x0, [x29, #32]
   8b6e4:	39400001 	ldrb	w1, [x0]
   8b6e8:	90000420 	adrp	x0, 10f000 <BitFont+0x788>
   8b6ec:	91380000 	add	x0, x0, #0xe00
   8b6f0:	39400000 	ldrb	w0, [x0]
   8b6f4:	6b00003f 	cmp	w1, w0
   8b6f8:	54001261 	b.ne	8b944 <CEcoMemoryManager1Lab_623E1838_QueryInterface+0x764>  // b.any
   8b6fc:	f94013a0 	ldr	x0, [x29, #32]
   8b700:	91000400 	add	x0, x0, #0x1
   8b704:	39400001 	ldrb	w1, [x0]
   8b708:	90000420 	adrp	x0, 10f000 <BitFont+0x788>
   8b70c:	91380400 	add	x0, x0, #0xe01
   8b710:	39400000 	ldrb	w0, [x0]
   8b714:	6b00003f 	cmp	w1, w0
   8b718:	54001161 	b.ne	8b944 <CEcoMemoryManager1Lab_623E1838_QueryInterface+0x764>  // b.any
   8b71c:	f94013a0 	ldr	x0, [x29, #32]
   8b720:	91000800 	add	x0, x0, #0x2
   8b724:	39400001 	ldrb	w1, [x0]
   8b728:	90000420 	adrp	x0, 10f000 <BitFont+0x788>
   8b72c:	91380800 	add	x0, x0, #0xe02
   8b730:	39400000 	ldrb	w0, [x0]
   8b734:	6b00003f 	cmp	w1, w0
   8b738:	54001061 	b.ne	8b944 <CEcoMemoryManager1Lab_623E1838_QueryInterface+0x764>  // b.any
   8b73c:	f94013a0 	ldr	x0, [x29, #32]
   8b740:	91000c00 	add	x0, x0, #0x3
   8b744:	39400001 	ldrb	w1, [x0]
   8b748:	90000420 	adrp	x0, 10f000 <BitFont+0x788>
   8b74c:	91380c00 	add	x0, x0, #0xe03
   8b750:	39400000 	ldrb	w0, [x0]
   8b754:	6b00003f 	cmp	w1, w0
   8b758:	54000f61 	b.ne	8b944 <CEcoMemoryManager1Lab_623E1838_QueryInterface+0x764>  // b.any
   8b75c:	f94013a0 	ldr	x0, [x29, #32]
   8b760:	91001000 	add	x0, x0, #0x4
   8b764:	39400001 	ldrb	w1, [x0]
   8b768:	90000420 	adrp	x0, 10f000 <BitFont+0x788>
   8b76c:	91381000 	add	x0, x0, #0xe04
   8b770:	39400000 	ldrb	w0, [x0]
   8b774:	6b00003f 	cmp	w1, w0
   8b778:	54000e61 	b.ne	8b944 <CEcoMemoryManager1Lab_623E1838_QueryInterface+0x764>  // b.any
   8b77c:	f94013a0 	ldr	x0, [x29, #32]
   8b780:	91001400 	add	x0, x0, #0x5
   8b784:	39400001 	ldrb	w1, [x0]
   8b788:	90000420 	adrp	x0, 10f000 <BitFont+0x788>
   8b78c:	91381400 	add	x0, x0, #0xe05
   8b790:	39400000 	ldrb	w0, [x0]
   8b794:	6b00003f 	cmp	w1, w0
   8b798:	54000d61 	b.ne	8b944 <CEcoMemoryManager1Lab_623E1838_QueryInterface+0x764>  // b.any
   8b79c:	f94013a0 	ldr	x0, [x29, #32]
   8b7a0:	91001800 	add	x0, x0, #0x6
   8b7a4:	39400001 	ldrb	w1, [x0]
   8b7a8:	90000420 	adrp	x0, 10f000 <BitFont+0x788>
   8b7ac:	91381800 	add	x0, x0, #0xe06
   8b7b0:	39400000 	ldrb	w0, [x0]
   8b7b4:	6b00003f 	cmp	w1, w0
   8b7b8:	54000c61 	b.ne	8b944 <CEcoMemoryManager1Lab_623E1838_QueryInterface+0x764>  // b.any
   8b7bc:	f94013a0 	ldr	x0, [x29, #32]
   8b7c0:	91001c00 	add	x0, x0, #0x7
   8b7c4:	39400001 	ldrb	w1, [x0]
   8b7c8:	90000420 	adrp	x0, 10f000 <BitFont+0x788>
   8b7cc:	91381c00 	add	x0, x0, #0xe07
   8b7d0:	39400000 	ldrb	w0, [x0]
   8b7d4:	6b00003f 	cmp	w1, w0
   8b7d8:	54000b61 	b.ne	8b944 <CEcoMemoryManager1Lab_623E1838_QueryInterface+0x764>  // b.any
   8b7dc:	f94013a0 	ldr	x0, [x29, #32]
   8b7e0:	91002000 	add	x0, x0, #0x8
   8b7e4:	39400001 	ldrb	w1, [x0]
   8b7e8:	90000420 	adrp	x0, 10f000 <BitFont+0x788>
   8b7ec:	91382000 	add	x0, x0, #0xe08
   8b7f0:	39400000 	ldrb	w0, [x0]
   8b7f4:	6b00003f 	cmp	w1, w0
   8b7f8:	54000a61 	b.ne	8b944 <CEcoMemoryManager1Lab_623E1838_QueryInterface+0x764>  // b.any
   8b7fc:	f94013a0 	ldr	x0, [x29, #32]
   8b800:	91002400 	add	x0, x0, #0x9
   8b804:	39400001 	ldrb	w1, [x0]
   8b808:	90000420 	adrp	x0, 10f000 <BitFont+0x788>
   8b80c:	91382400 	add	x0, x0, #0xe09
   8b810:	39400000 	ldrb	w0, [x0]
   8b814:	6b00003f 	cmp	w1, w0
   8b818:	54000961 	b.ne	8b944 <CEcoMemoryManager1Lab_623E1838_QueryInterface+0x764>  // b.any
   8b81c:	f94013a0 	ldr	x0, [x29, #32]
   8b820:	91002800 	add	x0, x0, #0xa
   8b824:	39400001 	ldrb	w1, [x0]
   8b828:	90000420 	adrp	x0, 10f000 <BitFont+0x788>
   8b82c:	91382800 	add	x0, x0, #0xe0a
   8b830:	39400000 	ldrb	w0, [x0]
   8b834:	6b00003f 	cmp	w1, w0
   8b838:	54000861 	b.ne	8b944 <CEcoMemoryManager1Lab_623E1838_QueryInterface+0x764>  // b.any
   8b83c:	f94013a0 	ldr	x0, [x29, #32]
   8b840:	91002c00 	add	x0, x0, #0xb
   8b844:	39400001 	ldrb	w1, [x0]
   8b848:	90000420 	adrp	x0, 10f000 <BitFont+0x788>
   8b84c:	91382c00 	add	x0, x0, #0xe0b
   8b850:	39400000 	ldrb	w0, [x0]
   8b854:	6b00003f 	cmp	w1, w0
   8b858:	54000761 	b.ne	8b944 <CEcoMemoryManager1Lab_623E1838_QueryInterface+0x764>  // b.any
   8b85c:	f94013a0 	ldr	x0, [x29, #32]
   8b860:	91003000 	add	x0, x0, #0xc
   8b864:	39400001 	ldrb	w1, [x0]
   8b868:	90000420 	adrp	x0, 10f000 <BitFont+0x788>
   8b86c:	91383000 	add	x0, x0, #0xe0c
   8b870:	39400000 	ldrb	w0, [x0]
   8b874:	6b00003f 	cmp	w1, w0
   8b878:	54000661 	b.ne	8b944 <CEcoMemoryManager1Lab_623E1838_QueryInterface+0x764>  // b.any
   8b87c:	f94013a0 	ldr	x0, [x29, #32]
   8b880:	91003400 	add	x0, x0, #0xd
   8b884:	39400001 	ldrb	w1, [x0]
   8b888:	90000420 	adrp	x0, 10f000 <BitFont+0x788>
   8b88c:	91383400 	add	x0, x0, #0xe0d
   8b890:	39400000 	ldrb	w0, [x0]
   8b894:	6b00003f 	cmp	w1, w0
   8b898:	54000561 	b.ne	8b944 <CEcoMemoryManager1Lab_623E1838_QueryInterface+0x764>  // b.any
   8b89c:	f94013a0 	ldr	x0, [x29, #32]
   8b8a0:	91003800 	add	x0, x0, #0xe
   8b8a4:	39400001 	ldrb	w1, [x0]
   8b8a8:	90000420 	adrp	x0, 10f000 <BitFont+0x788>
   8b8ac:	91383800 	add	x0, x0, #0xe0e
   8b8b0:	39400000 	ldrb	w0, [x0]
   8b8b4:	6b00003f 	cmp	w1, w0
   8b8b8:	54000461 	b.ne	8b944 <CEcoMemoryManager1Lab_623E1838_QueryInterface+0x764>  // b.any
   8b8bc:	f94013a0 	ldr	x0, [x29, #32]
   8b8c0:	91003c00 	add	x0, x0, #0xf
   8b8c4:	39400001 	ldrb	w1, [x0]
   8b8c8:	90000420 	adrp	x0, 10f000 <BitFont+0x788>
   8b8cc:	91383c00 	add	x0, x0, #0xe0f
   8b8d0:	39400000 	ldrb	w0, [x0]
   8b8d4:	6b00003f 	cmp	w1, w0
   8b8d8:	54000361 	b.ne	8b944 <CEcoMemoryManager1Lab_623E1838_QueryInterface+0x764>  // b.any
   8b8dc:	f94013a0 	ldr	x0, [x29, #32]
   8b8e0:	91004000 	add	x0, x0, #0x10
   8b8e4:	39400001 	ldrb	w1, [x0]
   8b8e8:	90000420 	adrp	x0, 10f000 <BitFont+0x788>
   8b8ec:	91384000 	add	x0, x0, #0xe10
   8b8f0:	39400000 	ldrb	w0, [x0]
   8b8f4:	6b00003f 	cmp	w1, w0
   8b8f8:	54000261 	b.ne	8b944 <CEcoMemoryManager1Lab_623E1838_QueryInterface+0x764>  // b.any
   8b8fc:	f94013a0 	ldr	x0, [x29, #32]
   8b900:	91004400 	add	x0, x0, #0x11
   8b904:	39400001 	ldrb	w1, [x0]
   8b908:	90000420 	adrp	x0, 10f000 <BitFont+0x788>
   8b90c:	91384400 	add	x0, x0, #0xe11
   8b910:	39400000 	ldrb	w0, [x0]
   8b914:	6b00003f 	cmp	w1, w0
   8b918:	54000161 	b.ne	8b944 <CEcoMemoryManager1Lab_623E1838_QueryInterface+0x764>  // b.any
   8b91c:	f9401fa0 	ldr	x0, [x29, #56]
   8b920:	91004001 	add	x1, x0, #0x10
   8b924:	f9400fa0 	ldr	x0, [x29, #24]
   8b928:	f9000001 	str	x1, [x0]
   8b92c:	f9401fa0 	ldr	x0, [x29, #56]
   8b930:	f9400000 	ldr	x0, [x0]
   8b934:	f9400401 	ldr	x1, [x0, #8]
   8b938:	f9401fa0 	ldr	x0, [x29, #56]
   8b93c:	d63f0020 	blr	x1
   8b940:	1400009d 	b	8bbb4 <CEcoMemoryManager1Lab_623E1838_QueryInterface+0x9d4>
   8b944:	f94013a0 	ldr	x0, [x29, #32]
   8b948:	39400001 	ldrb	w1, [x0]
   8b94c:	90000420 	adrp	x0, 10f000 <BitFont+0x788>
   8b950:	9134a000 	add	x0, x0, #0xd28
   8b954:	39400000 	ldrb	w0, [x0]
   8b958:	6b00003f 	cmp	w1, w0
   8b95c:	54001241 	b.ne	8bba4 <CEcoMemoryManager1Lab_623E1838_QueryInterface+0x9c4>  // b.any
   8b960:	f94013a0 	ldr	x0, [x29, #32]
   8b964:	91000400 	add	x0, x0, #0x1
   8b968:	39400001 	ldrb	w1, [x0]
   8b96c:	90000420 	adrp	x0, 10f000 <BitFont+0x788>
   8b970:	9134a400 	add	x0, x0, #0xd29
   8b974:	39400000 	ldrb	w0, [x0]
   8b978:	6b00003f 	cmp	w1, w0
   8b97c:	54001141 	b.ne	8bba4 <CEcoMemoryManager1Lab_623E1838_QueryInterface+0x9c4>  // b.any
   8b980:	f94013a0 	ldr	x0, [x29, #32]
   8b984:	91000800 	add	x0, x0, #0x2
   8b988:	39400001 	ldrb	w1, [x0]
   8b98c:	90000420 	adrp	x0, 10f000 <BitFont+0x788>
   8b990:	9134a800 	add	x0, x0, #0xd2a
   8b994:	39400000 	ldrb	w0, [x0]
   8b998:	6b00003f 	cmp	w1, w0
   8b99c:	54001041 	b.ne	8bba4 <CEcoMemoryManager1Lab_623E1838_QueryInterface+0x9c4>  // b.any
   8b9a0:	f94013a0 	ldr	x0, [x29, #32]
   8b9a4:	91000c00 	add	x0, x0, #0x3
   8b9a8:	39400001 	ldrb	w1, [x0]
   8b9ac:	90000420 	adrp	x0, 10f000 <BitFont+0x788>
   8b9b0:	9134ac00 	add	x0, x0, #0xd2b
   8b9b4:	39400000 	ldrb	w0, [x0]
   8b9b8:	6b00003f 	cmp	w1, w0
   8b9bc:	54000f41 	b.ne	8bba4 <CEcoMemoryManager1Lab_623E1838_QueryInterface+0x9c4>  // b.any
   8b9c0:	f94013a0 	ldr	x0, [x29, #32]
   8b9c4:	91001000 	add	x0, x0, #0x4
   8b9c8:	39400001 	ldrb	w1, [x0]
   8b9cc:	90000420 	adrp	x0, 10f000 <BitFont+0x788>
   8b9d0:	9134b000 	add	x0, x0, #0xd2c
   8b9d4:	39400000 	ldrb	w0, [x0]
   8b9d8:	6b00003f 	cmp	w1, w0
   8b9dc:	54000e41 	b.ne	8bba4 <CEcoMemoryManager1Lab_623E1838_QueryInterface+0x9c4>  // b.any
   8b9e0:	f94013a0 	ldr	x0, [x29, #32]
   8b9e4:	91001400 	add	x0, x0, #0x5
   8b9e8:	39400001 	ldrb	w1, [x0]
   8b9ec:	90000420 	adrp	x0, 10f000 <BitFont+0x788>
   8b9f0:	9134b400 	add	x0, x0, #0xd2d
   8b9f4:	39400000 	ldrb	w0, [x0]
   8b9f8:	6b00003f 	cmp	w1, w0
   8b9fc:	54000d41 	b.ne	8bba4 <CEcoMemoryManager1Lab_623E1838_QueryInterface+0x9c4>  // b.any
   8ba00:	f94013a0 	ldr	x0, [x29, #32]
   8ba04:	91001800 	add	x0, x0, #0x6
   8ba08:	39400001 	ldrb	w1, [x0]
   8ba0c:	90000420 	adrp	x0, 10f000 <BitFont+0x788>
   8ba10:	9134b800 	add	x0, x0, #0xd2e
   8ba14:	39400000 	ldrb	w0, [x0]
   8ba18:	6b00003f 	cmp	w1, w0
   8ba1c:	54000c41 	b.ne	8bba4 <CEcoMemoryManager1Lab_623E1838_QueryInterface+0x9c4>  // b.any
   8ba20:	f94013a0 	ldr	x0, [x29, #32]
   8ba24:	91001c00 	add	x0, x0, #0x7
   8ba28:	39400001 	ldrb	w1, [x0]
   8ba2c:	90000420 	adrp	x0, 10f000 <BitFont+0x788>
   8ba30:	9134bc00 	add	x0, x0, #0xd2f
   8ba34:	39400000 	ldrb	w0, [x0]
   8ba38:	6b00003f 	cmp	w1, w0
   8ba3c:	54000b41 	b.ne	8bba4 <CEcoMemoryManager1Lab_623E1838_QueryInterface+0x9c4>  // b.any
   8ba40:	f94013a0 	ldr	x0, [x29, #32]
   8ba44:	91002000 	add	x0, x0, #0x8
   8ba48:	39400001 	ldrb	w1, [x0]
   8ba4c:	90000420 	adrp	x0, 10f000 <BitFont+0x788>
   8ba50:	9134c000 	add	x0, x0, #0xd30
   8ba54:	39400000 	ldrb	w0, [x0]
   8ba58:	6b00003f 	cmp	w1, w0
   8ba5c:	54000a41 	b.ne	8bba4 <CEcoMemoryManager1Lab_623E1838_QueryInterface+0x9c4>  // b.any
   8ba60:	f94013a0 	ldr	x0, [x29, #32]
   8ba64:	91002400 	add	x0, x0, #0x9
   8ba68:	39400001 	ldrb	w1, [x0]
   8ba6c:	90000420 	adrp	x0, 10f000 <BitFont+0x788>
   8ba70:	9134c400 	add	x0, x0, #0xd31
   8ba74:	39400000 	ldrb	w0, [x0]
   8ba78:	6b00003f 	cmp	w1, w0
   8ba7c:	54000941 	b.ne	8bba4 <CEcoMemoryManager1Lab_623E1838_QueryInterface+0x9c4>  // b.any
   8ba80:	f94013a0 	ldr	x0, [x29, #32]
   8ba84:	91002800 	add	x0, x0, #0xa
   8ba88:	39400001 	ldrb	w1, [x0]
   8ba8c:	90000420 	adrp	x0, 10f000 <BitFont+0x788>
   8ba90:	9134c800 	add	x0, x0, #0xd32
   8ba94:	39400000 	ldrb	w0, [x0]
   8ba98:	6b00003f 	cmp	w1, w0
   8ba9c:	54000841 	b.ne	8bba4 <CEcoMemoryManager1Lab_623E1838_QueryInterface+0x9c4>  // b.any
   8baa0:	f94013a0 	ldr	x0, [x29, #32]
   8baa4:	91002c00 	add	x0, x0, #0xb
   8baa8:	39400001 	ldrb	w1, [x0]
   8baac:	90000420 	adrp	x0, 10f000 <BitFont+0x788>
   8bab0:	9134cc00 	add	x0, x0, #0xd33
   8bab4:	39400000 	ldrb	w0, [x0]
   8bab8:	6b00003f 	cmp	w1, w0
   8babc:	54000741 	b.ne	8bba4 <CEcoMemoryManager1Lab_623E1838_QueryInterface+0x9c4>  // b.any
   8bac0:	f94013a0 	ldr	x0, [x29, #32]
   8bac4:	91003000 	add	x0, x0, #0xc
   8bac8:	39400001 	ldrb	w1, [x0]
   8bacc:	90000420 	adrp	x0, 10f000 <BitFont+0x788>
   8bad0:	9134d000 	add	x0, x0, #0xd34
   8bad4:	39400000 	ldrb	w0, [x0]
   8bad8:	6b00003f 	cmp	w1, w0
   8badc:	54000641 	b.ne	8bba4 <CEcoMemoryManager1Lab_623E1838_QueryInterface+0x9c4>  // b.any
   8bae0:	f94013a0 	ldr	x0, [x29, #32]
   8bae4:	91003400 	add	x0, x0, #0xd
   8bae8:	39400001 	ldrb	w1, [x0]
   8baec:	90000420 	adrp	x0, 10f000 <BitFont+0x788>
   8baf0:	9134d400 	add	x0, x0, #0xd35
   8baf4:	39400000 	ldrb	w0, [x0]
   8baf8:	6b00003f 	cmp	w1, w0
   8bafc:	54000541 	b.ne	8bba4 <CEcoMemoryManager1Lab_623E1838_QueryInterface+0x9c4>  // b.any
   8bb00:	f94013a0 	ldr	x0, [x29, #32]
   8bb04:	91003800 	add	x0, x0, #0xe
   8bb08:	39400001 	ldrb	w1, [x0]
   8bb0c:	90000420 	adrp	x0, 10f000 <BitFont+0x788>
   8bb10:	9134d800 	add	x0, x0, #0xd36
   8bb14:	39400000 	ldrb	w0, [x0]
   8bb18:	6b00003f 	cmp	w1, w0
   8bb1c:	54000441 	b.ne	8bba4 <CEcoMemoryManager1Lab_623E1838_QueryInterface+0x9c4>  // b.any
   8bb20:	f94013a0 	ldr	x0, [x29, #32]
   8bb24:	91003c00 	add	x0, x0, #0xf
   8bb28:	39400001 	ldrb	w1, [x0]
   8bb2c:	90000420 	adrp	x0, 10f000 <BitFont+0x788>
   8bb30:	9134dc00 	add	x0, x0, #0xd37
   8bb34:	39400000 	ldrb	w0, [x0]
   8bb38:	6b00003f 	cmp	w1, w0
   8bb3c:	54000341 	b.ne	8bba4 <CEcoMemoryManager1Lab_623E1838_QueryInterface+0x9c4>  // b.any
   8bb40:	f94013a0 	ldr	x0, [x29, #32]
   8bb44:	91004000 	add	x0, x0, #0x10
   8bb48:	39400001 	ldrb	w1, [x0]
   8bb4c:	90000420 	adrp	x0, 10f000 <BitFont+0x788>
   8bb50:	9134e000 	add	x0, x0, #0xd38
   8bb54:	39400000 	ldrb	w0, [x0]
   8bb58:	6b00003f 	cmp	w1, w0
   8bb5c:	54000241 	b.ne	8bba4 <CEcoMemoryManager1Lab_623E1838_QueryInterface+0x9c4>  // b.any
   8bb60:	f94013a0 	ldr	x0, [x29, #32]
   8bb64:	91004400 	add	x0, x0, #0x11
   8bb68:	39400001 	ldrb	w1, [x0]
   8bb6c:	90000420 	adrp	x0, 10f000 <BitFont+0x788>
   8bb70:	9134e400 	add	x0, x0, #0xd39
   8bb74:	39400000 	ldrb	w0, [x0]
   8bb78:	6b00003f 	cmp	w1, w0
   8bb7c:	54000141 	b.ne	8bba4 <CEcoMemoryManager1Lab_623E1838_QueryInterface+0x9c4>  // b.any
   8bb80:	f9401fa1 	ldr	x1, [x29, #56]
   8bb84:	f9400fa0 	ldr	x0, [x29, #24]
   8bb88:	f9000001 	str	x1, [x0]
   8bb8c:	f9401fa0 	ldr	x0, [x29, #56]
   8bb90:	f9400000 	ldr	x0, [x0]
   8bb94:	f9400401 	ldr	x1, [x0, #8]
   8bb98:	f9401fa0 	ldr	x0, [x29, #56]
   8bb9c:	d63f0020 	blr	x1
   8bba0:	14000005 	b	8bbb4 <CEcoMemoryManager1Lab_623E1838_QueryInterface+0x9d4>
   8bba4:	f9400fa0 	ldr	x0, [x29, #24]
   8bba8:	f900001f 	str	xzr, [x0]
   8bbac:	12800000 	mov	w0, #0xffffffff            	// #-1
   8bbb0:	14000002 	b	8bbb8 <CEcoMemoryManager1Lab_623E1838_QueryInterface+0x9d8>
   8bbb4:	52800000 	mov	w0, #0x0                   	// #0
   8bbb8:	a8c47bfd 	ldp	x29, x30, [sp], #64
   8bbbc:	d65f03c0 	ret

000000000008bbc0 <CEcoMemoryManager1Lab_623E1838_AddRef>:
   8bbc0:	d10083ff 	sub	sp, sp, #0x20
   8bbc4:	f90007e0 	str	x0, [sp, #8]
   8bbc8:	f94007e0 	ldr	x0, [sp, #8]
   8bbcc:	f9000fe0 	str	x0, [sp, #24]
   8bbd0:	f94007e0 	ldr	x0, [sp, #8]
   8bbd4:	f100001f 	cmp	x0, #0x0
   8bbd8:	54000061 	b.ne	8bbe4 <CEcoMemoryManager1Lab_623E1838_AddRef+0x24>  // b.any
   8bbdc:	12800000 	mov	w0, #0xffffffff            	// #-1
   8bbe0:	14000008 	b	8bc00 <CEcoMemoryManager1Lab_623E1838_AddRef+0x40>
   8bbe4:	f9400fe0 	ldr	x0, [sp, #24]
   8bbe8:	b9401800 	ldr	w0, [x0, #24]
   8bbec:	11000401 	add	w1, w0, #0x1
   8bbf0:	f9400fe0 	ldr	x0, [sp, #24]
   8bbf4:	b9001801 	str	w1, [x0, #24]
   8bbf8:	f9400fe0 	ldr	x0, [sp, #24]
   8bbfc:	b9401800 	ldr	w0, [x0, #24]
   8bc00:	910083ff 	add	sp, sp, #0x20
   8bc04:	d65f03c0 	ret

000000000008bc08 <CEcoMemoryManager1Lab_623E1838_Release>:
   8bc08:	a9bd7bfd 	stp	x29, x30, [sp, #-48]!
   8bc0c:	910003fd 	mov	x29, sp
   8bc10:	f9000fa0 	str	x0, [x29, #24]
   8bc14:	f9400fa0 	ldr	x0, [x29, #24]
   8bc18:	f90017a0 	str	x0, [x29, #40]
   8bc1c:	f9400fa0 	ldr	x0, [x29, #24]
   8bc20:	f100001f 	cmp	x0, #0x0
   8bc24:	54000061 	b.ne	8bc30 <CEcoMemoryManager1Lab_623E1838_Release+0x28>  // b.any
   8bc28:	12800000 	mov	w0, #0xffffffff            	// #-1
   8bc2c:	14000010 	b	8bc6c <CEcoMemoryManager1Lab_623E1838_Release+0x64>
   8bc30:	f94017a0 	ldr	x0, [x29, #40]
   8bc34:	b9401800 	ldr	w0, [x0, #24]
   8bc38:	51000401 	sub	w1, w0, #0x1
   8bc3c:	f94017a0 	ldr	x0, [x29, #40]
   8bc40:	b9001801 	str	w1, [x0, #24]
   8bc44:	f94017a0 	ldr	x0, [x29, #40]
   8bc48:	b9401800 	ldr	w0, [x0, #24]
   8bc4c:	7100001f 	cmp	w0, #0x0
   8bc50:	540000a1 	b.ne	8bc64 <CEcoMemoryManager1Lab_623E1838_Release+0x5c>  // b.any
   8bc54:	f94017a0 	ldr	x0, [x29, #40]
   8bc58:	94000104 	bl	8c068 <deleteCEcoMemoryManager1Lab_623E1838>
   8bc5c:	52800000 	mov	w0, #0x0                   	// #0
   8bc60:	14000003 	b	8bc6c <CEcoMemoryManager1Lab_623E1838_Release+0x64>
   8bc64:	f94017a0 	ldr	x0, [x29, #40]
   8bc68:	b9401800 	ldr	w0, [x0, #24]
   8bc6c:	a8c37bfd 	ldp	x29, x30, [sp], #48
   8bc70:	d65f03c0 	ret

000000000008bc74 <CEcoMemoryManager1Lab_623E1838_Init>:
   8bc74:	a9bc7bfd 	stp	x29, x30, [sp, #-64]!
   8bc78:	910003fd 	mov	x29, sp
   8bc7c:	f90017a0 	str	x0, [x29, #40]
   8bc80:	f90013a1 	str	x1, [x29, #32]
   8bc84:	b9001fa2 	str	w2, [x29, #28]
   8bc88:	f94017a0 	ldr	x0, [x29, #40]
   8bc8c:	f9001fa0 	str	x0, [x29, #56]
   8bc90:	f94017a0 	ldr	x0, [x29, #40]
   8bc94:	f100001f 	cmp	x0, #0x0
   8bc98:	54000061 	b.ne	8bca4 <CEcoMemoryManager1Lab_623E1838_Init+0x30>  // b.any
   8bc9c:	12800000 	mov	w0, #0xffffffff            	// #-1
   8bca0:	14000029 	b	8bd44 <CEcoMemoryManager1Lab_623E1838_Init+0xd0>
   8bca4:	f9401fa0 	ldr	x0, [x29, #56]
   8bca8:	f94013a1 	ldr	x1, [x29, #32]
   8bcac:	f9005001 	str	x1, [x0, #160]
   8bcb0:	f9401fa0 	ldr	x0, [x29, #56]
   8bcb4:	f9405401 	ldr	x1, [x0, #168]
   8bcb8:	d2800500 	mov	x0, #0x28                  	// #40
   8bcbc:	9b007c20 	mul	x0, x1, x0
   8bcc0:	f94013a1 	ldr	x1, [x29, #32]
   8bcc4:	8b000021 	add	x1, x1, x0
   8bcc8:	f9401fa0 	ldr	x0, [x29, #56]
   8bccc:	f9004001 	str	x1, [x0, #128]
   8bcd0:	b9401fa0 	ldr	w0, [x29, #28]
   8bcd4:	f94013a1 	ldr	x1, [x29, #32]
   8bcd8:	8b000021 	add	x1, x1, x0
   8bcdc:	f9401fa0 	ldr	x0, [x29, #56]
   8bce0:	f9004401 	str	x1, [x0, #136]
   8bce4:	f9401fa0 	ldr	x0, [x29, #56]
   8bce8:	f9401c00 	ldr	x0, [x0, #56]
   8bcec:	f9400000 	ldr	x0, [x0]
   8bcf0:	f9400c03 	ldr	x3, [x0, #24]
   8bcf4:	f9401fa0 	ldr	x0, [x29, #56]
   8bcf8:	f9401c00 	ldr	x0, [x0, #56]
   8bcfc:	b9401fa2 	ldr	w2, [x29, #28]
   8bd00:	f94013a1 	ldr	x1, [x29, #32]
   8bd04:	d63f0060 	blr	x3
   8bd08:	f9401fa0 	ldr	x0, [x29, #56]
   8bd0c:	f9401c00 	ldr	x0, [x0, #56]
   8bd10:	f9400000 	ldr	x0, [x0]
   8bd14:	f9400003 	ldr	x3, [x0]
   8bd18:	f9401fa0 	ldr	x0, [x29, #56]
   8bd1c:	f9401c04 	ldr	x4, [x0, #56]
   8bd20:	f9401fa0 	ldr	x0, [x29, #56]
   8bd24:	91010001 	add	x1, x0, #0x40
   8bd28:	90000420 	adrp	x0, 10f000 <BitFont+0x788>
   8bd2c:	9136e000 	add	x0, x0, #0xdb8
   8bd30:	aa0103e2 	mov	x2, x1
   8bd34:	aa0003e1 	mov	x1, x0
   8bd38:	aa0403e0 	mov	x0, x4
   8bd3c:	d63f0060 	blr	x3
   8bd40:	52800000 	mov	w0, #0x0                   	// #0
   8bd44:	a8c47bfd 	ldp	x29, x30, [sp], #64
   8bd48:	d65f03c0 	ret

000000000008bd4c <CEcoMemoryManager1Lab_623E1838_get_Status>:
   8bd4c:	d10083ff 	sub	sp, sp, #0x20
   8bd50:	f90007e0 	str	x0, [sp, #8]
   8bd54:	f90003e1 	str	x1, [sp]
   8bd58:	f94007e0 	ldr	x0, [sp, #8]
   8bd5c:	f9000fe0 	str	x0, [sp, #24]
   8bd60:	f94007e0 	ldr	x0, [sp, #8]
   8bd64:	f100001f 	cmp	x0, #0x0
   8bd68:	54000080 	b.eq	8bd78 <CEcoMemoryManager1Lab_623E1838_get_Status+0x2c>  // b.none
   8bd6c:	f94003e0 	ldr	x0, [sp]
   8bd70:	f100001f 	cmp	x0, #0x0
   8bd74:	54000061 	b.ne	8bd80 <CEcoMemoryManager1Lab_623E1838_get_Status+0x34>  // b.any
   8bd78:	52800000 	mov	w0, #0x0                   	// #0
   8bd7c:	1400001c 	b	8bdec <CEcoMemoryManager1Lab_623E1838_get_Status+0xa0>
   8bd80:	f9400fe0 	ldr	x0, [sp, #24]
   8bd84:	f9403000 	ldr	x0, [x0, #96]
   8bd88:	2a0003e1 	mov	w1, w0
   8bd8c:	f94003e0 	ldr	x0, [sp]
   8bd90:	b9000001 	str	w1, [x0]
   8bd94:	f9400fe0 	ldr	x0, [sp, #24]
   8bd98:	f9403000 	ldr	x0, [x0, #96]
   8bd9c:	d360fc00 	lsr	x0, x0, #32
   8bda0:	2a0003e1 	mov	w1, w0
   8bda4:	f94003e0 	ldr	x0, [sp]
   8bda8:	b9000401 	str	w1, [x0, #4]
   8bdac:	f9400fe0 	ldr	x0, [sp, #24]
   8bdb0:	b9405401 	ldr	w1, [x0, #84]
   8bdb4:	f94003e0 	ldr	x0, [sp]
   8bdb8:	b9000801 	str	w1, [x0, #8]
   8bdbc:	f94003e0 	ldr	x0, [sp]
   8bdc0:	b9400801 	ldr	w1, [x0, #8]
   8bdc4:	f9400fe0 	ldr	x0, [sp, #24]
   8bdc8:	b9405800 	ldr	w0, [x0, #88]
   8bdcc:	4b000021 	sub	w1, w1, w0
   8bdd0:	f94003e0 	ldr	x0, [sp]
   8bdd4:	b9000c01 	str	w1, [x0, #12]
   8bdd8:	f9400fe0 	ldr	x0, [sp, #24]
   8bddc:	b9405001 	ldr	w1, [x0, #80]
   8bde0:	f94003e0 	ldr	x0, [sp]
   8bde4:	b9001001 	str	w1, [x0, #16]
   8bde8:	52800020 	mov	w0, #0x1                   	// #1
   8bdec:	910083ff 	add	sp, sp, #0x20
   8bdf0:	d65f03c0 	ret

000000000008bdf4 <CEcoMemoryManager1Lab_623E1838_get_UsedBlocks>:
   8bdf4:	d10083ff 	sub	sp, sp, #0x20
   8bdf8:	f9000fe0 	str	x0, [sp, #24]
   8bdfc:	f9000be1 	str	x1, [sp, #16]
   8be00:	f90007e2 	str	x2, [sp, #8]
   8be04:	f9400fe0 	ldr	x0, [sp, #24]
   8be08:	f100001f 	cmp	x0, #0x0
   8be0c:	54000061 	b.ne	8be18 <CEcoMemoryManager1Lab_623E1838_get_UsedBlocks+0x24>  // b.any
   8be10:	52801fe0 	mov	w0, #0xff                  	// #255
   8be14:	14000002 	b	8be1c <CEcoMemoryManager1Lab_623E1838_get_UsedBlocks+0x28>
   8be18:	52800000 	mov	w0, #0x0                   	// #0
   8be1c:	910083ff 	add	sp, sp, #0x20
   8be20:	d65f03c0 	ret

000000000008be24 <initCEcoMemoryManager1Lab_623E1838>:
   8be24:	d10083ff 	sub	sp, sp, #0x20
   8be28:	f90007e0 	str	x0, [sp, #8]
   8be2c:	f90003e1 	str	x1, [sp]
   8be30:	f94007e0 	ldr	x0, [sp, #8]
   8be34:	f9000fe0 	str	x0, [sp, #24]
   8be38:	f94007e0 	ldr	x0, [sp, #8]
   8be3c:	f100001f 	cmp	x0, #0x0
   8be40:	54000061 	b.ne	8be4c <initCEcoMemoryManager1Lab_623E1838+0x28>  // b.any
   8be44:	12800000 	mov	w0, #0xffffffff            	// #-1
   8be48:	14000009 	b	8be6c <initCEcoMemoryManager1Lab_623E1838+0x48>
   8be4c:	f9400fe0 	ldr	x0, [sp, #24]
   8be50:	d2807d01 	mov	x1, #0x3e8                 	// #1000
   8be54:	f9005401 	str	x1, [x0, #168]
   8be58:	f9400fe0 	ldr	x0, [sp, #24]
   8be5c:	f900481f 	str	xzr, [x0, #144]
   8be60:	f9400fe0 	ldr	x0, [sp, #24]
   8be64:	f9004c1f 	str	xzr, [x0, #152]
   8be68:	52800000 	mov	w0, #0x0                   	// #0
   8be6c:	910083ff 	add	sp, sp, #0x20
   8be70:	d65f03c0 	ret

000000000008be74 <createCEcoMemoryManager1Lab_623E1838>:
   8be74:	a9bb7bfd 	stp	x29, x30, [sp, #-80]!
   8be78:	910003fd 	mov	x29, sp
   8be7c:	f90017a0 	str	x0, [x29, #40]
   8be80:	f90013a1 	str	x1, [x29, #32]
   8be84:	f9000fa2 	str	x2, [x29, #24]
   8be88:	f90027bf 	str	xzr, [x29, #72]
   8be8c:	12800000 	mov	w0, #0xffffffff            	// #-1
   8be90:	79008fa0 	strh	w0, [x29, #70]
   8be94:	f9001fbf 	str	xzr, [x29, #56]
   8be98:	f9400fa0 	ldr	x0, [x29, #24]
   8be9c:	f100001f 	cmp	x0, #0x0
   8bea0:	54000061 	b.ne	8beac <createCEcoMemoryManager1Lab_623E1838+0x38>  // b.any
   8bea4:	79c08fa0 	ldrsh	w0, [x29, #70]
   8bea8:	1400006e 	b	8c060 <createCEcoMemoryManager1Lab_623E1838+0x1ec>
   8beac:	b0000020 	adrp	x0, 90000 <impure_data+0x270>
   8beb0:	911b8000 	add	x0, x0, #0x6e0
   8beb4:	f90027a0 	str	x0, [x29, #72]
   8beb8:	f94027a0 	ldr	x0, [x29, #72]
   8bebc:	b9401800 	ldr	w0, [x0, #24]
   8bec0:	7100001f 	cmp	w0, #0x0
   8bec4:	54000bc1 	b.ne	8c03c <createCEcoMemoryManager1Lab_623E1838+0x1c8>  // b.any
   8bec8:	f94027a0 	ldr	x0, [x29, #72]
   8becc:	52800021 	mov	w1, #0x1                   	// #1
   8bed0:	b9001801 	str	w1, [x0, #24]
   8bed4:	f94027a0 	ldr	x0, [x29, #72]
   8bed8:	f94017a1 	ldr	x1, [x29, #40]
   8bedc:	f9001801 	str	x1, [x0, #48]
   8bee0:	f94027a0 	ldr	x0, [x29, #72]
   8bee4:	90000021 	adrp	x1, 8f000 <g_x939B1DCDB6404F7D9C072291AF252188Factory+0xa0>
   8bee8:	9112e021 	add	x1, x1, #0x4b8
   8beec:	f9000001 	str	x1, [x0]
   8bef0:	f94027a0 	ldr	x0, [x29, #72]
   8bef4:	90000021 	adrp	x1, 8f000 <g_x939B1DCDB6404F7D9C072291AF252188Factory+0xa0>
   8bef8:	9113a021 	add	x1, x1, #0x4e8
   8befc:	f9000401 	str	x1, [x0, #8]
   8bf00:	f94027a0 	ldr	x0, [x29, #72]
   8bf04:	90000021 	adrp	x1, 8f000 <g_x939B1DCDB6404F7D9C072291AF252188Factory+0xa0>
   8bf08:	9114e021 	add	x1, x1, #0x538
   8bf0c:	f9000801 	str	x1, [x0, #16]
   8bf10:	f94027a0 	ldr	x0, [x29, #72]
   8bf14:	b900501f 	str	wzr, [x0, #80]
   8bf18:	f94027a0 	ldr	x0, [x29, #72]
   8bf1c:	b900541f 	str	wzr, [x0, #84]
   8bf20:	f94027a0 	ldr	x0, [x29, #72]
   8bf24:	b900581f 	str	wzr, [x0, #88]
   8bf28:	f94027a0 	ldr	x0, [x29, #72]
   8bf2c:	f900301f 	str	xzr, [x0, #96]
   8bf30:	f94027a0 	ldr	x0, [x29, #72]
   8bf34:	f900341f 	str	xzr, [x0, #104]
   8bf38:	f94027a0 	ldr	x0, [x29, #72]
   8bf3c:	f900381f 	str	xzr, [x0, #112]
   8bf40:	f94027a0 	ldr	x0, [x29, #72]
   8bf44:	3901e01f 	strb	wzr, [x0, #120]
   8bf48:	f94027a0 	ldr	x0, [x29, #72]
   8bf4c:	f9001c1f 	str	xzr, [x0, #56]
   8bf50:	f94027a0 	ldr	x0, [x29, #72]
   8bf54:	f9401800 	ldr	x0, [x0, #48]
   8bf58:	f9400000 	ldr	x0, [x0]
   8bf5c:	f9400003 	ldr	x3, [x0]
   8bf60:	f94027a0 	ldr	x0, [x29, #72]
   8bf64:	f9401804 	ldr	x4, [x0, #48]
   8bf68:	9100e3a1 	add	x1, x29, #0x38
   8bf6c:	90000420 	adrp	x0, 10f000 <BitFont+0x788>
   8bf70:	9135c000 	add	x0, x0, #0xd70
   8bf74:	aa0103e2 	mov	x2, x1
   8bf78:	aa0003e1 	mov	x1, x0
   8bf7c:	aa0403e0 	mov	x0, x4
   8bf80:	d63f0060 	blr	x3
   8bf84:	f9401fa0 	ldr	x0, [x29, #56]
   8bf88:	f9400000 	ldr	x0, [x0]
   8bf8c:	f9401c05 	ldr	x5, [x0, #56]
   8bf90:	f9401fa6 	ldr	x6, [x29, #56]
   8bf94:	f94027a0 	ldr	x0, [x29, #72]
   8bf98:	9100e002 	add	x2, x0, #0x38
   8bf9c:	90000420 	adrp	x0, 10f000 <BitFont+0x788>
   8bfa0:	91374001 	add	x1, x0, #0xdd0
   8bfa4:	90000420 	adrp	x0, 10f000 <BitFont+0x788>
   8bfa8:	9137a000 	add	x0, x0, #0xde8
   8bfac:	aa0203e4 	mov	x4, x2
   8bfb0:	aa0103e3 	mov	x3, x1
   8bfb4:	d2800002 	mov	x2, #0x0                   	// #0
   8bfb8:	aa0003e1 	mov	x1, x0
   8bfbc:	aa0603e0 	mov	x0, x6
   8bfc0:	d63f00a0 	blr	x5
   8bfc4:	79008fa0 	strh	w0, [x29, #70]
   8bfc8:	79c08fa0 	ldrsh	w0, [x29, #70]
   8bfcc:	7100001f 	cmp	w0, #0x0
   8bfd0:	540000a1 	b.ne	8bfe4 <createCEcoMemoryManager1Lab_623E1838+0x170>  // b.any
   8bfd4:	f94027a0 	ldr	x0, [x29, #72]
   8bfd8:	f9401c00 	ldr	x0, [x0, #56]
   8bfdc:	f100001f 	cmp	x0, #0x0
   8bfe0:	54000061 	b.ne	8bfec <createCEcoMemoryManager1Lab_623E1838+0x178>  // b.any
   8bfe4:	79c08fa0 	ldrsh	w0, [x29, #70]
   8bfe8:	1400001e 	b	8c060 <createCEcoMemoryManager1Lab_623E1838+0x1ec>
   8bfec:	f94027a0 	ldr	x0, [x29, #72]
   8bff0:	f900241f 	str	xzr, [x0, #72]
   8bff4:	f9401fa0 	ldr	x0, [x29, #56]
   8bff8:	f9400000 	ldr	x0, [x0]
   8bffc:	f9401c05 	ldr	x5, [x0, #56]
   8c000:	f9401fa6 	ldr	x6, [x29, #56]
   8c004:	f94027a0 	ldr	x0, [x29, #72]
   8c008:	91012002 	add	x2, x0, #0x48
   8c00c:	f0000400 	adrp	x0, 10f000 <BitFont+0x788>
   8c010:	91386001 	add	x1, x0, #0xe18
   8c014:	f0000400 	adrp	x0, 10f000 <BitFont+0x788>
   8c018:	9138c000 	add	x0, x0, #0xe30
   8c01c:	aa0203e4 	mov	x4, x2
   8c020:	aa0103e3 	mov	x3, x1
   8c024:	d2800002 	mov	x2, #0x0                   	// #0
   8c028:	aa0003e1 	mov	x1, x0
   8c02c:	aa0603e0 	mov	x0, x6
   8c030:	d63f00a0 	blr	x5
   8c034:	79008fa0 	strh	w0, [x29, #70]
   8c038:	14000006 	b	8c050 <createCEcoMemoryManager1Lab_623E1838+0x1dc>
   8c03c:	f94027a0 	ldr	x0, [x29, #72]
   8c040:	b9401800 	ldr	w0, [x0, #24]
   8c044:	11000401 	add	w1, w0, #0x1
   8c048:	f94027a0 	ldr	x0, [x29, #72]
   8c04c:	b9001801 	str	w1, [x0, #24]
   8c050:	f9400fa0 	ldr	x0, [x29, #24]
   8c054:	f94027a1 	ldr	x1, [x29, #72]
   8c058:	f9000001 	str	x1, [x0]
   8c05c:	52800000 	mov	w0, #0x0                   	// #0
   8c060:	a8c57bfd 	ldp	x29, x30, [sp], #80
   8c064:	d65f03c0 	ret

000000000008c068 <deleteCEcoMemoryManager1Lab_623E1838>:
   8c068:	d10043ff 	sub	sp, sp, #0x10
   8c06c:	f90007e0 	str	x0, [sp, #8]
   8c070:	d503201f 	nop
   8c074:	910043ff 	add	sp, sp, #0x10
   8c078:	d65f03c0 	ret

000000000008c07c <firstNotAllocated>:
   8c07c:	d10083ff 	sub	sp, sp, #0x20
   8c080:	f90007e0 	str	x0, [sp, #8]
   8c084:	f90003e1 	str	x1, [sp]
   8c088:	f94007e0 	ldr	x0, [sp, #8]
   8c08c:	f9000fe0 	str	x0, [sp, #24]
   8c090:	b90017ff 	str	wzr, [sp, #20]
   8c094:	1400000d 	b	8c0c8 <firstNotAllocated+0x4c>
   8c098:	f9400fe0 	ldr	x0, [sp, #24]
   8c09c:	39404000 	ldrb	w0, [x0, #16]
   8c0a0:	7100001f 	cmp	w0, #0x0
   8c0a4:	54000061 	b.ne	8c0b0 <firstNotAllocated+0x34>  // b.any
   8c0a8:	f9400fe0 	ldr	x0, [sp, #24]
   8c0ac:	1400000c 	b	8c0dc <firstNotAllocated+0x60>
   8c0b0:	f9400fe0 	ldr	x0, [sp, #24]
   8c0b4:	9100a000 	add	x0, x0, #0x28
   8c0b8:	f9000fe0 	str	x0, [sp, #24]
   8c0bc:	b94017e0 	ldr	w0, [sp, #20]
   8c0c0:	11000400 	add	w0, w0, #0x1
   8c0c4:	b90017e0 	str	w0, [sp, #20]
   8c0c8:	b98017e0 	ldrsw	x0, [sp, #20]
   8c0cc:	f94003e1 	ldr	x1, [sp]
   8c0d0:	eb00003f 	cmp	x1, x0
   8c0d4:	54fffe28 	b.hi	8c098 <firstNotAllocated+0x1c>  // b.pmore
   8c0d8:	d2800000 	mov	x0, #0x0                   	// #0
   8c0dc:	910083ff 	add	sp, sp, #0x20
   8c0e0:	d65f03c0 	ret

000000000008c0e4 <configureBlock>:
   8c0e4:	d100c3ff 	sub	sp, sp, #0x30
   8c0e8:	f90017e0 	str	x0, [sp, #40]
   8c0ec:	f90013e1 	str	x1, [sp, #32]
   8c0f0:	f9000fe2 	str	x2, [sp, #24]
   8c0f4:	f9000be3 	str	x3, [sp, #16]
   8c0f8:	f90007e4 	str	x4, [sp, #8]
   8c0fc:	f94017e0 	ldr	x0, [sp, #40]
   8c100:	52800021 	mov	w1, #0x1                   	// #1
   8c104:	39004001 	strb	w1, [x0, #16]
   8c108:	f94017e0 	ldr	x0, [sp, #40]
   8c10c:	f94013e1 	ldr	x1, [sp, #32]
   8c110:	f9000001 	str	x1, [x0]
   8c114:	f94013e1 	ldr	x1, [sp, #32]
   8c118:	f9400fe0 	ldr	x0, [sp, #24]
   8c11c:	8b000021 	add	x1, x1, x0
   8c120:	f94017e0 	ldr	x0, [sp, #40]
   8c124:	f9000401 	str	x1, [x0, #8]
   8c128:	f94017e0 	ldr	x0, [sp, #40]
   8c12c:	f9400be1 	ldr	x1, [sp, #16]
   8c130:	f9001001 	str	x1, [x0, #32]
   8c134:	f94017e0 	ldr	x0, [sp, #40]
   8c138:	f94007e1 	ldr	x1, [sp, #8]
   8c13c:	f9000c01 	str	x1, [x0, #24]
   8c140:	d503201f 	nop
   8c144:	9100c3ff 	add	sp, sp, #0x30
   8c148:	d65f03c0 	ret

000000000008c14c <allocBlock>:
   8c14c:	a9b97bfd 	stp	x29, x30, [sp, #-112]!
   8c150:	910003fd 	mov	x29, sp
   8c154:	f90027a0 	str	x0, [x29, #72]
   8c158:	f90023a1 	str	x1, [x29, #64]
   8c15c:	f9001fa2 	str	x2, [x29, #56]
   8c160:	f9001ba3 	str	x3, [x29, #48]
   8c164:	f90017a4 	str	x4, [x29, #40]
   8c168:	f90013a5 	str	x5, [x29, #32]
   8c16c:	f9000fa6 	str	x6, [x29, #24]
   8c170:	f9401fa0 	ldr	x0, [x29, #56]
   8c174:	f9400000 	ldr	x0, [x0]
   8c178:	f9002fa0 	str	x0, [x29, #88]
   8c17c:	f94023a0 	ldr	x0, [x29, #64]
   8c180:	f9400000 	ldr	x0, [x0]
   8c184:	f90037a0 	str	x0, [x29, #104]
   8c188:	39019fbf 	strb	wzr, [x29, #103]
   8c18c:	f9402fa0 	ldr	x0, [x29, #88]
   8c190:	f100001f 	cmp	x0, #0x0
   8c194:	540013c1 	b.ne	8c40c <allocBlock+0x2c0>  // b.any
   8c198:	f9400fa1 	ldr	x1, [x29, #24]
   8c19c:	f94013a0 	ldr	x0, [x29, #32]
   8c1a0:	cb000020 	sub	x0, x1, x0
   8c1a4:	aa0003e1 	mov	x1, x0
   8c1a8:	f94027a0 	ldr	x0, [x29, #72]
   8c1ac:	eb01001f 	cmp	x0, x1
   8c1b0:	54000322 	b.cs	8c214 <allocBlock+0xc8>  // b.hs, b.nlast
   8c1b4:	f94017a1 	ldr	x1, [x29, #40]
   8c1b8:	f9401ba0 	ldr	x0, [x29, #48]
   8c1bc:	97ffffb0 	bl	8c07c <firstNotAllocated>
   8c1c0:	f9002ba0 	str	x0, [x29, #80]
   8c1c4:	f9402ba0 	ldr	x0, [x29, #80]
   8c1c8:	f100001f 	cmp	x0, #0x0
   8c1cc:	54000061 	b.ne	8c1d8 <allocBlock+0x8c>  // b.any
   8c1d0:	d2800000 	mov	x0, #0x0                   	// #0
   8c1d4:	14000097 	b	8c430 <allocBlock+0x2e4>
   8c1d8:	d2800004 	mov	x4, #0x0                   	// #0
   8c1dc:	d2800003 	mov	x3, #0x0                   	// #0
   8c1e0:	f94027a2 	ldr	x2, [x29, #72]
   8c1e4:	f94013a1 	ldr	x1, [x29, #32]
   8c1e8:	f9402ba0 	ldr	x0, [x29, #80]
   8c1ec:	97ffffbe 	bl	8c0e4 <configureBlock>
   8c1f0:	f9401fa0 	ldr	x0, [x29, #56]
   8c1f4:	f9402ba1 	ldr	x1, [x29, #80]
   8c1f8:	f9000001 	str	x1, [x0]
   8c1fc:	f94023a0 	ldr	x0, [x29, #64]
   8c200:	f9402ba1 	ldr	x1, [x29, #80]
   8c204:	f9000001 	str	x1, [x0]
   8c208:	f9402ba0 	ldr	x0, [x29, #80]
   8c20c:	f9400000 	ldr	x0, [x0]
   8c210:	14000088 	b	8c430 <allocBlock+0x2e4>
   8c214:	d2800000 	mov	x0, #0x0                   	// #0
   8c218:	14000086 	b	8c430 <allocBlock+0x2e4>
   8c21c:	f94037a0 	ldr	x0, [x29, #104]
   8c220:	f9400c00 	ldr	x0, [x0, #24]
   8c224:	f100001f 	cmp	x0, #0x0
   8c228:	540005e0 	b.eq	8c2e4 <allocBlock+0x198>  // b.none
   8c22c:	f94037a0 	ldr	x0, [x29, #104]
   8c230:	f9400c00 	ldr	x0, [x0, #24]
   8c234:	f9400000 	ldr	x0, [x0]
   8c238:	aa0003e1 	mov	x1, x0
   8c23c:	f94037a0 	ldr	x0, [x29, #104]
   8c240:	f9400400 	ldr	x0, [x0, #8]
   8c244:	cb000020 	sub	x0, x1, x0
   8c248:	aa0003e1 	mov	x1, x0
   8c24c:	f94027a0 	ldr	x0, [x29, #72]
   8c250:	eb01001f 	cmp	x0, x1
   8c254:	54000402 	b.cs	8c2d4 <allocBlock+0x188>  // b.hs, b.nlast
   8c258:	f94017a1 	ldr	x1, [x29, #40]
   8c25c:	f9401ba0 	ldr	x0, [x29, #48]
   8c260:	97ffff87 	bl	8c07c <firstNotAllocated>
   8c264:	f9002ba0 	str	x0, [x29, #80]
   8c268:	f9402ba0 	ldr	x0, [x29, #80]
   8c26c:	f100001f 	cmp	x0, #0x0
   8c270:	54000061 	b.ne	8c27c <allocBlock+0x130>  // b.any
   8c274:	d2800000 	mov	x0, #0x0                   	// #0
   8c278:	1400006e 	b	8c430 <allocBlock+0x2e4>
   8c27c:	f94037a0 	ldr	x0, [x29, #104]
   8c280:	f9400401 	ldr	x1, [x0, #8]
   8c284:	f94037a0 	ldr	x0, [x29, #104]
   8c288:	f9400c00 	ldr	x0, [x0, #24]
   8c28c:	aa0003e4 	mov	x4, x0
   8c290:	f94037a3 	ldr	x3, [x29, #104]
   8c294:	f94027a2 	ldr	x2, [x29, #72]
   8c298:	f9402ba0 	ldr	x0, [x29, #80]
   8c29c:	97ffff92 	bl	8c0e4 <configureBlock>
   8c2a0:	f94037a0 	ldr	x0, [x29, #104]
   8c2a4:	f9400c00 	ldr	x0, [x0, #24]
   8c2a8:	f9402ba1 	ldr	x1, [x29, #80]
   8c2ac:	f9001001 	str	x1, [x0, #32]
   8c2b0:	f94037a0 	ldr	x0, [x29, #104]
   8c2b4:	f9402ba1 	ldr	x1, [x29, #80]
   8c2b8:	f9000c01 	str	x1, [x0, #24]
   8c2bc:	f94023a0 	ldr	x0, [x29, #64]
   8c2c0:	f9402ba1 	ldr	x1, [x29, #80]
   8c2c4:	f9000001 	str	x1, [x0]
   8c2c8:	f9402ba0 	ldr	x0, [x29, #80]
   8c2cc:	f9400000 	ldr	x0, [x0]
   8c2d0:	14000058 	b	8c430 <allocBlock+0x2e4>
   8c2d4:	f94037a0 	ldr	x0, [x29, #104]
   8c2d8:	f9400c00 	ldr	x0, [x0, #24]
   8c2dc:	f90037a0 	str	x0, [x29, #104]
   8c2e0:	1400004b 	b	8c40c <allocBlock+0x2c0>
   8c2e4:	f9400fa0 	ldr	x0, [x29, #24]
   8c2e8:	f94037a1 	ldr	x1, [x29, #104]
   8c2ec:	f9400421 	ldr	x1, [x1, #8]
   8c2f0:	cb010000 	sub	x0, x0, x1
   8c2f4:	aa0003e1 	mov	x1, x0
   8c2f8:	f94027a0 	ldr	x0, [x29, #72]
   8c2fc:	eb01001f 	cmp	x0, x1
   8c300:	54000362 	b.cs	8c36c <allocBlock+0x220>  // b.hs, b.nlast
   8c304:	f94017a1 	ldr	x1, [x29, #40]
   8c308:	f9401ba0 	ldr	x0, [x29, #48]
   8c30c:	97ffff5c 	bl	8c07c <firstNotAllocated>
   8c310:	f9002ba0 	str	x0, [x29, #80]
   8c314:	f9402ba0 	ldr	x0, [x29, #80]
   8c318:	f100001f 	cmp	x0, #0x0
   8c31c:	54000061 	b.ne	8c328 <allocBlock+0x1dc>  // b.any
   8c320:	d2800000 	mov	x0, #0x0                   	// #0
   8c324:	14000043 	b	8c430 <allocBlock+0x2e4>
   8c328:	f94037a0 	ldr	x0, [x29, #104]
   8c32c:	f9400400 	ldr	x0, [x0, #8]
   8c330:	d2800004 	mov	x4, #0x0                   	// #0
   8c334:	f94037a3 	ldr	x3, [x29, #104]
   8c338:	f94027a2 	ldr	x2, [x29, #72]
   8c33c:	aa0003e1 	mov	x1, x0
   8c340:	f9402ba0 	ldr	x0, [x29, #80]
   8c344:	97ffff68 	bl	8c0e4 <configureBlock>
   8c348:	f94037a0 	ldr	x0, [x29, #104]
   8c34c:	f9402ba1 	ldr	x1, [x29, #80]
   8c350:	f9000c01 	str	x1, [x0, #24]
   8c354:	f94023a0 	ldr	x0, [x29, #64]
   8c358:	f9402ba1 	ldr	x1, [x29, #80]
   8c35c:	f9000001 	str	x1, [x0]
   8c360:	f9402ba0 	ldr	x0, [x29, #80]
   8c364:	f9400000 	ldr	x0, [x0]
   8c368:	14000032 	b	8c430 <allocBlock+0x2e4>
   8c36c:	52800020 	mov	w0, #0x1                   	// #1
   8c370:	39019fa0 	strb	w0, [x29, #103]
   8c374:	f9402fa0 	ldr	x0, [x29, #88]
   8c378:	f90037a0 	str	x0, [x29, #104]
   8c37c:	f94037a0 	ldr	x0, [x29, #104]
   8c380:	f9400000 	ldr	x0, [x0]
   8c384:	aa0003e1 	mov	x1, x0
   8c388:	f94013a0 	ldr	x0, [x29, #32]
   8c38c:	cb000020 	sub	x0, x1, x0
   8c390:	aa0003e1 	mov	x1, x0
   8c394:	f94027a0 	ldr	x0, [x29, #72]
   8c398:	eb01001f 	cmp	x0, x1
   8c39c:	54000382 	b.cs	8c40c <allocBlock+0x2c0>  // b.hs, b.nlast
   8c3a0:	f94017a1 	ldr	x1, [x29, #40]
   8c3a4:	f9401ba0 	ldr	x0, [x29, #48]
   8c3a8:	97ffff35 	bl	8c07c <firstNotAllocated>
   8c3ac:	f9002ba0 	str	x0, [x29, #80]
   8c3b0:	f9402ba0 	ldr	x0, [x29, #80]
   8c3b4:	f100001f 	cmp	x0, #0x0
   8c3b8:	54000061 	b.ne	8c3c4 <allocBlock+0x278>  // b.any
   8c3bc:	d2800000 	mov	x0, #0x0                   	// #0
   8c3c0:	1400001c 	b	8c430 <allocBlock+0x2e4>
   8c3c4:	f94037a4 	ldr	x4, [x29, #104]
   8c3c8:	d2800003 	mov	x3, #0x0                   	// #0
   8c3cc:	f94027a2 	ldr	x2, [x29, #72]
   8c3d0:	f94013a1 	ldr	x1, [x29, #32]
   8c3d4:	f9402ba0 	ldr	x0, [x29, #80]
   8c3d8:	97ffff43 	bl	8c0e4 <configureBlock>
   8c3dc:	f94037a0 	ldr	x0, [x29, #104]
   8c3e0:	f9402ba1 	ldr	x1, [x29, #80]
   8c3e4:	f9001001 	str	x1, [x0, #32]
   8c3e8:	f94023a0 	ldr	x0, [x29, #64]
   8c3ec:	f9402ba1 	ldr	x1, [x29, #80]
   8c3f0:	f9000001 	str	x1, [x0]
   8c3f4:	f9401fa0 	ldr	x0, [x29, #56]
   8c3f8:	f9402ba1 	ldr	x1, [x29, #80]
   8c3fc:	f9000001 	str	x1, [x0]
   8c400:	f9402ba0 	ldr	x0, [x29, #80]
   8c404:	f9400000 	ldr	x0, [x0]
   8c408:	1400000a 	b	8c430 <allocBlock+0x2e4>
   8c40c:	39419fa0 	ldrb	w0, [x29, #103]
   8c410:	7100001f 	cmp	w0, #0x0
   8c414:	54fff040 	b.eq	8c21c <allocBlock+0xd0>  // b.none
   8c418:	f94023a0 	ldr	x0, [x29, #64]
   8c41c:	f9400000 	ldr	x0, [x0]
   8c420:	f94037a1 	ldr	x1, [x29, #104]
   8c424:	eb00003f 	cmp	x1, x0
   8c428:	54ffefa1 	b.ne	8c21c <allocBlock+0xd0>  // b.any
   8c42c:	d2800000 	mov	x0, #0x0                   	// #0
   8c430:	a8c77bfd 	ldp	x29, x30, [sp], #112
   8c434:	d65f03c0 	ret

000000000008c438 <freeBlock>:
   8c438:	d10083ff 	sub	sp, sp, #0x20
   8c43c:	f90007e0 	str	x0, [sp, #8]
   8c440:	f90003e1 	str	x1, [sp]
   8c444:	f94003e0 	ldr	x0, [sp]
   8c448:	f9400000 	ldr	x0, [x0]
   8c44c:	f9000fe0 	str	x0, [sp, #24]
   8c450:	f9400fe0 	ldr	x0, [sp, #24]
   8c454:	f9400000 	ldr	x0, [x0]
   8c458:	f94007e1 	ldr	x1, [sp, #8]
   8c45c:	eb00003f 	cmp	x1, x0
   8c460:	540005e1 	b.ne	8c51c <freeBlock+0xe4>  // b.any
   8c464:	f9400fe0 	ldr	x0, [sp, #24]
   8c468:	3900401f 	strb	wzr, [x0, #16]
   8c46c:	f9400fe0 	ldr	x0, [sp, #24]
   8c470:	f9400c00 	ldr	x0, [x0, #24]
   8c474:	f100001f 	cmp	x0, #0x0
   8c478:	54000120 	b.eq	8c49c <freeBlock+0x64>  // b.none
   8c47c:	f9400fe0 	ldr	x0, [sp, #24]
   8c480:	f9400c00 	ldr	x0, [x0, #24]
   8c484:	f900101f 	str	xzr, [x0, #32]
   8c488:	f9400fe0 	ldr	x0, [sp, #24]
   8c48c:	f9400c01 	ldr	x1, [x0, #24]
   8c490:	f94003e0 	ldr	x0, [sp]
   8c494:	f9000001 	str	x1, [x0]
   8c498:	14000026 	b	8c530 <freeBlock+0xf8>
   8c49c:	f94003e0 	ldr	x0, [sp]
   8c4a0:	f900001f 	str	xzr, [x0]
   8c4a4:	14000023 	b	8c530 <freeBlock+0xf8>
   8c4a8:	f9400fe0 	ldr	x0, [sp, #24]
   8c4ac:	f9400000 	ldr	x0, [x0]
   8c4b0:	f94007e1 	ldr	x1, [sp, #8]
   8c4b4:	eb00003f 	cmp	x1, x0
   8c4b8:	540002c1 	b.ne	8c510 <freeBlock+0xd8>  // b.any
   8c4bc:	f9400fe0 	ldr	x0, [sp, #24]
   8c4c0:	3900401f 	strb	wzr, [x0, #16]
   8c4c4:	f9400fe0 	ldr	x0, [sp, #24]
   8c4c8:	f9400c00 	ldr	x0, [x0, #24]
   8c4cc:	f100001f 	cmp	x0, #0x0
   8c4d0:	540000c0 	b.eq	8c4e8 <freeBlock+0xb0>  // b.none
   8c4d4:	f9400fe0 	ldr	x0, [sp, #24]
   8c4d8:	f9400c00 	ldr	x0, [x0, #24]
   8c4dc:	f9400fe1 	ldr	x1, [sp, #24]
   8c4e0:	f9401021 	ldr	x1, [x1, #32]
   8c4e4:	f9001001 	str	x1, [x0, #32]
   8c4e8:	f9400fe0 	ldr	x0, [sp, #24]
   8c4ec:	f9401000 	ldr	x0, [x0, #32]
   8c4f0:	f100001f 	cmp	x0, #0x0
   8c4f4:	540001c0 	b.eq	8c52c <freeBlock+0xf4>  // b.none
   8c4f8:	f9400fe0 	ldr	x0, [sp, #24]
   8c4fc:	f9401000 	ldr	x0, [x0, #32]
   8c500:	f9400fe1 	ldr	x1, [sp, #24]
   8c504:	f9400c21 	ldr	x1, [x1, #24]
   8c508:	f9000c01 	str	x1, [x0, #24]
   8c50c:	14000008 	b	8c52c <freeBlock+0xf4>
   8c510:	f9400fe0 	ldr	x0, [sp, #24]
   8c514:	f9400c00 	ldr	x0, [x0, #24]
   8c518:	f9000fe0 	str	x0, [sp, #24]
   8c51c:	f9400fe0 	ldr	x0, [sp, #24]
   8c520:	f100001f 	cmp	x0, #0x0
   8c524:	54fffc21 	b.ne	8c4a8 <freeBlock+0x70>  // b.any
   8c528:	14000002 	b	8c530 <freeBlock+0xf8>
   8c52c:	d503201f 	nop
   8c530:	910083ff 	add	sp, sp, #0x20
   8c534:	d65f03c0 	ret

000000000008c538 <CEcoMemoryAllocator1Lab_623E1838_QueryInterface>:
   8c538:	a9bc7bfd 	stp	x29, x30, [sp, #-64]!
   8c53c:	910003fd 	mov	x29, sp
   8c540:	f90017a0 	str	x0, [x29, #40]
   8c544:	f90013a1 	str	x1, [x29, #32]
   8c548:	f9000fa2 	str	x2, [x29, #24]
   8c54c:	f94017a0 	ldr	x0, [x29, #40]
   8c550:	d1002000 	sub	x0, x0, #0x8
   8c554:	f9001fa0 	str	x0, [x29, #56]
   8c558:	f94017a0 	ldr	x0, [x29, #40]
   8c55c:	f100001f 	cmp	x0, #0x0
   8c560:	54000080 	b.eq	8c570 <CEcoMemoryAllocator1Lab_623E1838_QueryInterface+0x38>  // b.none
   8c564:	f9400fa0 	ldr	x0, [x29, #24]
   8c568:	f100001f 	cmp	x0, #0x0
   8c56c:	54000061 	b.ne	8c578 <CEcoMemoryAllocator1Lab_623E1838_QueryInterface+0x40>  // b.any
   8c570:	12800000 	mov	w0, #0xffffffff            	// #-1
   8c574:	14000268 	b	8cf14 <CEcoMemoryAllocator1Lab_623E1838_QueryInterface+0x9dc>
   8c578:	f94013a0 	ldr	x0, [x29, #32]
   8c57c:	39400001 	ldrb	w1, [x0]
   8c580:	f0000400 	adrp	x0, 10f000 <BitFont+0x788>
   8c584:	913aa000 	add	x0, x0, #0xea8
   8c588:	39400000 	ldrb	w0, [x0]
   8c58c:	6b00003f 	cmp	w1, w0
   8c590:	54001241 	b.ne	8c7d8 <CEcoMemoryAllocator1Lab_623E1838_QueryInterface+0x2a0>  // b.any
   8c594:	f94013a0 	ldr	x0, [x29, #32]
   8c598:	91000400 	add	x0, x0, #0x1
   8c59c:	39400001 	ldrb	w1, [x0]
   8c5a0:	f0000400 	adrp	x0, 10f000 <BitFont+0x788>
   8c5a4:	913aa400 	add	x0, x0, #0xea9
   8c5a8:	39400000 	ldrb	w0, [x0]
   8c5ac:	6b00003f 	cmp	w1, w0
   8c5b0:	54001141 	b.ne	8c7d8 <CEcoMemoryAllocator1Lab_623E1838_QueryInterface+0x2a0>  // b.any
   8c5b4:	f94013a0 	ldr	x0, [x29, #32]
   8c5b8:	91000800 	add	x0, x0, #0x2
   8c5bc:	39400001 	ldrb	w1, [x0]
   8c5c0:	f0000400 	adrp	x0, 10f000 <BitFont+0x788>
   8c5c4:	913aa800 	add	x0, x0, #0xeaa
   8c5c8:	39400000 	ldrb	w0, [x0]
   8c5cc:	6b00003f 	cmp	w1, w0
   8c5d0:	54001041 	b.ne	8c7d8 <CEcoMemoryAllocator1Lab_623E1838_QueryInterface+0x2a0>  // b.any
   8c5d4:	f94013a0 	ldr	x0, [x29, #32]
   8c5d8:	91000c00 	add	x0, x0, #0x3
   8c5dc:	39400001 	ldrb	w1, [x0]
   8c5e0:	f0000400 	adrp	x0, 10f000 <BitFont+0x788>
   8c5e4:	913aac00 	add	x0, x0, #0xeab
   8c5e8:	39400000 	ldrb	w0, [x0]
   8c5ec:	6b00003f 	cmp	w1, w0
   8c5f0:	54000f41 	b.ne	8c7d8 <CEcoMemoryAllocator1Lab_623E1838_QueryInterface+0x2a0>  // b.any
   8c5f4:	f94013a0 	ldr	x0, [x29, #32]
   8c5f8:	91001000 	add	x0, x0, #0x4
   8c5fc:	39400001 	ldrb	w1, [x0]
   8c600:	f0000400 	adrp	x0, 10f000 <BitFont+0x788>
   8c604:	913ab000 	add	x0, x0, #0xeac
   8c608:	39400000 	ldrb	w0, [x0]
   8c60c:	6b00003f 	cmp	w1, w0
   8c610:	54000e41 	b.ne	8c7d8 <CEcoMemoryAllocator1Lab_623E1838_QueryInterface+0x2a0>  // b.any
   8c614:	f94013a0 	ldr	x0, [x29, #32]
   8c618:	91001400 	add	x0, x0, #0x5
   8c61c:	39400001 	ldrb	w1, [x0]
   8c620:	f0000400 	adrp	x0, 10f000 <BitFont+0x788>
   8c624:	913ab400 	add	x0, x0, #0xead
   8c628:	39400000 	ldrb	w0, [x0]
   8c62c:	6b00003f 	cmp	w1, w0
   8c630:	54000d41 	b.ne	8c7d8 <CEcoMemoryAllocator1Lab_623E1838_QueryInterface+0x2a0>  // b.any
   8c634:	f94013a0 	ldr	x0, [x29, #32]
   8c638:	91001800 	add	x0, x0, #0x6
   8c63c:	39400001 	ldrb	w1, [x0]
   8c640:	f0000400 	adrp	x0, 10f000 <BitFont+0x788>
   8c644:	913ab800 	add	x0, x0, #0xeae
   8c648:	39400000 	ldrb	w0, [x0]
   8c64c:	6b00003f 	cmp	w1, w0
   8c650:	54000c41 	b.ne	8c7d8 <CEcoMemoryAllocator1Lab_623E1838_QueryInterface+0x2a0>  // b.any
   8c654:	f94013a0 	ldr	x0, [x29, #32]
   8c658:	91001c00 	add	x0, x0, #0x7
   8c65c:	39400001 	ldrb	w1, [x0]
   8c660:	f0000400 	adrp	x0, 10f000 <BitFont+0x788>
   8c664:	913abc00 	add	x0, x0, #0xeaf
   8c668:	39400000 	ldrb	w0, [x0]
   8c66c:	6b00003f 	cmp	w1, w0
   8c670:	54000b41 	b.ne	8c7d8 <CEcoMemoryAllocator1Lab_623E1838_QueryInterface+0x2a0>  // b.any
   8c674:	f94013a0 	ldr	x0, [x29, #32]
   8c678:	91002000 	add	x0, x0, #0x8
   8c67c:	39400001 	ldrb	w1, [x0]
   8c680:	f0000400 	adrp	x0, 10f000 <BitFont+0x788>
   8c684:	913ac000 	add	x0, x0, #0xeb0
   8c688:	39400000 	ldrb	w0, [x0]
   8c68c:	6b00003f 	cmp	w1, w0
   8c690:	54000a41 	b.ne	8c7d8 <CEcoMemoryAllocator1Lab_623E1838_QueryInterface+0x2a0>  // b.any
   8c694:	f94013a0 	ldr	x0, [x29, #32]
   8c698:	91002400 	add	x0, x0, #0x9
   8c69c:	39400001 	ldrb	w1, [x0]
   8c6a0:	f0000400 	adrp	x0, 10f000 <BitFont+0x788>
   8c6a4:	913ac400 	add	x0, x0, #0xeb1
   8c6a8:	39400000 	ldrb	w0, [x0]
   8c6ac:	6b00003f 	cmp	w1, w0
   8c6b0:	54000941 	b.ne	8c7d8 <CEcoMemoryAllocator1Lab_623E1838_QueryInterface+0x2a0>  // b.any
   8c6b4:	f94013a0 	ldr	x0, [x29, #32]
   8c6b8:	91002800 	add	x0, x0, #0xa
   8c6bc:	39400001 	ldrb	w1, [x0]
   8c6c0:	f0000400 	adrp	x0, 10f000 <BitFont+0x788>
   8c6c4:	913ac800 	add	x0, x0, #0xeb2
   8c6c8:	39400000 	ldrb	w0, [x0]
   8c6cc:	6b00003f 	cmp	w1, w0
   8c6d0:	54000841 	b.ne	8c7d8 <CEcoMemoryAllocator1Lab_623E1838_QueryInterface+0x2a0>  // b.any
   8c6d4:	f94013a0 	ldr	x0, [x29, #32]
   8c6d8:	91002c00 	add	x0, x0, #0xb
   8c6dc:	39400001 	ldrb	w1, [x0]
   8c6e0:	f0000400 	adrp	x0, 10f000 <BitFont+0x788>
   8c6e4:	913acc00 	add	x0, x0, #0xeb3
   8c6e8:	39400000 	ldrb	w0, [x0]
   8c6ec:	6b00003f 	cmp	w1, w0
   8c6f0:	54000741 	b.ne	8c7d8 <CEcoMemoryAllocator1Lab_623E1838_QueryInterface+0x2a0>  // b.any
   8c6f4:	f94013a0 	ldr	x0, [x29, #32]
   8c6f8:	91003000 	add	x0, x0, #0xc
   8c6fc:	39400001 	ldrb	w1, [x0]
   8c700:	f0000400 	adrp	x0, 10f000 <BitFont+0x788>
   8c704:	913ad000 	add	x0, x0, #0xeb4
   8c708:	39400000 	ldrb	w0, [x0]
   8c70c:	6b00003f 	cmp	w1, w0
   8c710:	54000641 	b.ne	8c7d8 <CEcoMemoryAllocator1Lab_623E1838_QueryInterface+0x2a0>  // b.any
   8c714:	f94013a0 	ldr	x0, [x29, #32]
   8c718:	91003400 	add	x0, x0, #0xd
   8c71c:	39400001 	ldrb	w1, [x0]
   8c720:	f0000400 	adrp	x0, 10f000 <BitFont+0x788>
   8c724:	913ad400 	add	x0, x0, #0xeb5
   8c728:	39400000 	ldrb	w0, [x0]
   8c72c:	6b00003f 	cmp	w1, w0
   8c730:	54000541 	b.ne	8c7d8 <CEcoMemoryAllocator1Lab_623E1838_QueryInterface+0x2a0>  // b.any
   8c734:	f94013a0 	ldr	x0, [x29, #32]
   8c738:	91003800 	add	x0, x0, #0xe
   8c73c:	39400001 	ldrb	w1, [x0]
   8c740:	f0000400 	adrp	x0, 10f000 <BitFont+0x788>
   8c744:	913ad800 	add	x0, x0, #0xeb6
   8c748:	39400000 	ldrb	w0, [x0]
   8c74c:	6b00003f 	cmp	w1, w0
   8c750:	54000441 	b.ne	8c7d8 <CEcoMemoryAllocator1Lab_623E1838_QueryInterface+0x2a0>  // b.any
   8c754:	f94013a0 	ldr	x0, [x29, #32]
   8c758:	91003c00 	add	x0, x0, #0xf
   8c75c:	39400001 	ldrb	w1, [x0]
   8c760:	f0000400 	adrp	x0, 10f000 <BitFont+0x788>
   8c764:	913adc00 	add	x0, x0, #0xeb7
   8c768:	39400000 	ldrb	w0, [x0]
   8c76c:	6b00003f 	cmp	w1, w0
   8c770:	54000341 	b.ne	8c7d8 <CEcoMemoryAllocator1Lab_623E1838_QueryInterface+0x2a0>  // b.any
   8c774:	f94013a0 	ldr	x0, [x29, #32]
   8c778:	91004000 	add	x0, x0, #0x10
   8c77c:	39400001 	ldrb	w1, [x0]
   8c780:	f0000400 	adrp	x0, 10f000 <BitFont+0x788>
   8c784:	913ae000 	add	x0, x0, #0xeb8
   8c788:	39400000 	ldrb	w0, [x0]
   8c78c:	6b00003f 	cmp	w1, w0
   8c790:	54000241 	b.ne	8c7d8 <CEcoMemoryAllocator1Lab_623E1838_QueryInterface+0x2a0>  // b.any
   8c794:	f94013a0 	ldr	x0, [x29, #32]
   8c798:	91004400 	add	x0, x0, #0x11
   8c79c:	39400001 	ldrb	w1, [x0]
   8c7a0:	f0000400 	adrp	x0, 10f000 <BitFont+0x788>
   8c7a4:	913ae400 	add	x0, x0, #0xeb9
   8c7a8:	39400000 	ldrb	w0, [x0]
   8c7ac:	6b00003f 	cmp	w1, w0
   8c7b0:	54000141 	b.ne	8c7d8 <CEcoMemoryAllocator1Lab_623E1838_QueryInterface+0x2a0>  // b.any
   8c7b4:	f9401fa1 	ldr	x1, [x29, #56]
   8c7b8:	f9400fa0 	ldr	x0, [x29, #24]
   8c7bc:	f9000001 	str	x1, [x0]
   8c7c0:	f9401fa0 	ldr	x0, [x29, #56]
   8c7c4:	f9400000 	ldr	x0, [x0]
   8c7c8:	f9400401 	ldr	x1, [x0, #8]
   8c7cc:	f9401fa0 	ldr	x0, [x29, #56]
   8c7d0:	d63f0020 	blr	x1
   8c7d4:	140001cf 	b	8cf10 <CEcoMemoryAllocator1Lab_623E1838_QueryInterface+0x9d8>
   8c7d8:	f94013a0 	ldr	x0, [x29, #32]
   8c7dc:	39400001 	ldrb	w1, [x0]
   8c7e0:	f0000400 	adrp	x0, 10f000 <BitFont+0x788>
   8c7e4:	913a4000 	add	x0, x0, #0xe90
   8c7e8:	39400000 	ldrb	w0, [x0]
   8c7ec:	6b00003f 	cmp	w1, w0
   8c7f0:	54001261 	b.ne	8ca3c <CEcoMemoryAllocator1Lab_623E1838_QueryInterface+0x504>  // b.any
   8c7f4:	f94013a0 	ldr	x0, [x29, #32]
   8c7f8:	91000400 	add	x0, x0, #0x1
   8c7fc:	39400001 	ldrb	w1, [x0]
   8c800:	f0000400 	adrp	x0, 10f000 <BitFont+0x788>
   8c804:	913a4400 	add	x0, x0, #0xe91
   8c808:	39400000 	ldrb	w0, [x0]
   8c80c:	6b00003f 	cmp	w1, w0
   8c810:	54001161 	b.ne	8ca3c <CEcoMemoryAllocator1Lab_623E1838_QueryInterface+0x504>  // b.any
   8c814:	f94013a0 	ldr	x0, [x29, #32]
   8c818:	91000800 	add	x0, x0, #0x2
   8c81c:	39400001 	ldrb	w1, [x0]
   8c820:	f0000400 	adrp	x0, 10f000 <BitFont+0x788>
   8c824:	913a4800 	add	x0, x0, #0xe92
   8c828:	39400000 	ldrb	w0, [x0]
   8c82c:	6b00003f 	cmp	w1, w0
   8c830:	54001061 	b.ne	8ca3c <CEcoMemoryAllocator1Lab_623E1838_QueryInterface+0x504>  // b.any
   8c834:	f94013a0 	ldr	x0, [x29, #32]
   8c838:	91000c00 	add	x0, x0, #0x3
   8c83c:	39400001 	ldrb	w1, [x0]
   8c840:	f0000400 	adrp	x0, 10f000 <BitFont+0x788>
   8c844:	913a4c00 	add	x0, x0, #0xe93
   8c848:	39400000 	ldrb	w0, [x0]
   8c84c:	6b00003f 	cmp	w1, w0
   8c850:	54000f61 	b.ne	8ca3c <CEcoMemoryAllocator1Lab_623E1838_QueryInterface+0x504>  // b.any
   8c854:	f94013a0 	ldr	x0, [x29, #32]
   8c858:	91001000 	add	x0, x0, #0x4
   8c85c:	39400001 	ldrb	w1, [x0]
   8c860:	f0000400 	adrp	x0, 10f000 <BitFont+0x788>
   8c864:	913a5000 	add	x0, x0, #0xe94
   8c868:	39400000 	ldrb	w0, [x0]
   8c86c:	6b00003f 	cmp	w1, w0
   8c870:	54000e61 	b.ne	8ca3c <CEcoMemoryAllocator1Lab_623E1838_QueryInterface+0x504>  // b.any
   8c874:	f94013a0 	ldr	x0, [x29, #32]
   8c878:	91001400 	add	x0, x0, #0x5
   8c87c:	39400001 	ldrb	w1, [x0]
   8c880:	f0000400 	adrp	x0, 10f000 <BitFont+0x788>
   8c884:	913a5400 	add	x0, x0, #0xe95
   8c888:	39400000 	ldrb	w0, [x0]
   8c88c:	6b00003f 	cmp	w1, w0
   8c890:	54000d61 	b.ne	8ca3c <CEcoMemoryAllocator1Lab_623E1838_QueryInterface+0x504>  // b.any
   8c894:	f94013a0 	ldr	x0, [x29, #32]
   8c898:	91001800 	add	x0, x0, #0x6
   8c89c:	39400001 	ldrb	w1, [x0]
   8c8a0:	f0000400 	adrp	x0, 10f000 <BitFont+0x788>
   8c8a4:	913a5800 	add	x0, x0, #0xe96
   8c8a8:	39400000 	ldrb	w0, [x0]
   8c8ac:	6b00003f 	cmp	w1, w0
   8c8b0:	54000c61 	b.ne	8ca3c <CEcoMemoryAllocator1Lab_623E1838_QueryInterface+0x504>  // b.any
   8c8b4:	f94013a0 	ldr	x0, [x29, #32]
   8c8b8:	91001c00 	add	x0, x0, #0x7
   8c8bc:	39400001 	ldrb	w1, [x0]
   8c8c0:	f0000400 	adrp	x0, 10f000 <BitFont+0x788>
   8c8c4:	913a5c00 	add	x0, x0, #0xe97
   8c8c8:	39400000 	ldrb	w0, [x0]
   8c8cc:	6b00003f 	cmp	w1, w0
   8c8d0:	54000b61 	b.ne	8ca3c <CEcoMemoryAllocator1Lab_623E1838_QueryInterface+0x504>  // b.any
   8c8d4:	f94013a0 	ldr	x0, [x29, #32]
   8c8d8:	91002000 	add	x0, x0, #0x8
   8c8dc:	39400001 	ldrb	w1, [x0]
   8c8e0:	f0000400 	adrp	x0, 10f000 <BitFont+0x788>
   8c8e4:	913a6000 	add	x0, x0, #0xe98
   8c8e8:	39400000 	ldrb	w0, [x0]
   8c8ec:	6b00003f 	cmp	w1, w0
   8c8f0:	54000a61 	b.ne	8ca3c <CEcoMemoryAllocator1Lab_623E1838_QueryInterface+0x504>  // b.any
   8c8f4:	f94013a0 	ldr	x0, [x29, #32]
   8c8f8:	91002400 	add	x0, x0, #0x9
   8c8fc:	39400001 	ldrb	w1, [x0]
   8c900:	f0000400 	adrp	x0, 10f000 <BitFont+0x788>
   8c904:	913a6400 	add	x0, x0, #0xe99
   8c908:	39400000 	ldrb	w0, [x0]
   8c90c:	6b00003f 	cmp	w1, w0
   8c910:	54000961 	b.ne	8ca3c <CEcoMemoryAllocator1Lab_623E1838_QueryInterface+0x504>  // b.any
   8c914:	f94013a0 	ldr	x0, [x29, #32]
   8c918:	91002800 	add	x0, x0, #0xa
   8c91c:	39400001 	ldrb	w1, [x0]
   8c920:	f0000400 	adrp	x0, 10f000 <BitFont+0x788>
   8c924:	913a6800 	add	x0, x0, #0xe9a
   8c928:	39400000 	ldrb	w0, [x0]
   8c92c:	6b00003f 	cmp	w1, w0
   8c930:	54000861 	b.ne	8ca3c <CEcoMemoryAllocator1Lab_623E1838_QueryInterface+0x504>  // b.any
   8c934:	f94013a0 	ldr	x0, [x29, #32]
   8c938:	91002c00 	add	x0, x0, #0xb
   8c93c:	39400001 	ldrb	w1, [x0]
   8c940:	f0000400 	adrp	x0, 10f000 <BitFont+0x788>
   8c944:	913a6c00 	add	x0, x0, #0xe9b
   8c948:	39400000 	ldrb	w0, [x0]
   8c94c:	6b00003f 	cmp	w1, w0
   8c950:	54000761 	b.ne	8ca3c <CEcoMemoryAllocator1Lab_623E1838_QueryInterface+0x504>  // b.any
   8c954:	f94013a0 	ldr	x0, [x29, #32]
   8c958:	91003000 	add	x0, x0, #0xc
   8c95c:	39400001 	ldrb	w1, [x0]
   8c960:	f0000400 	adrp	x0, 10f000 <BitFont+0x788>
   8c964:	913a7000 	add	x0, x0, #0xe9c
   8c968:	39400000 	ldrb	w0, [x0]
   8c96c:	6b00003f 	cmp	w1, w0
   8c970:	54000661 	b.ne	8ca3c <CEcoMemoryAllocator1Lab_623E1838_QueryInterface+0x504>  // b.any
   8c974:	f94013a0 	ldr	x0, [x29, #32]
   8c978:	91003400 	add	x0, x0, #0xd
   8c97c:	39400001 	ldrb	w1, [x0]
   8c980:	f0000400 	adrp	x0, 10f000 <BitFont+0x788>
   8c984:	913a7400 	add	x0, x0, #0xe9d
   8c988:	39400000 	ldrb	w0, [x0]
   8c98c:	6b00003f 	cmp	w1, w0
   8c990:	54000561 	b.ne	8ca3c <CEcoMemoryAllocator1Lab_623E1838_QueryInterface+0x504>  // b.any
   8c994:	f94013a0 	ldr	x0, [x29, #32]
   8c998:	91003800 	add	x0, x0, #0xe
   8c99c:	39400001 	ldrb	w1, [x0]
   8c9a0:	f0000400 	adrp	x0, 10f000 <BitFont+0x788>
   8c9a4:	913a7800 	add	x0, x0, #0xe9e
   8c9a8:	39400000 	ldrb	w0, [x0]
   8c9ac:	6b00003f 	cmp	w1, w0
   8c9b0:	54000461 	b.ne	8ca3c <CEcoMemoryAllocator1Lab_623E1838_QueryInterface+0x504>  // b.any
   8c9b4:	f94013a0 	ldr	x0, [x29, #32]
   8c9b8:	91003c00 	add	x0, x0, #0xf
   8c9bc:	39400001 	ldrb	w1, [x0]
   8c9c0:	f0000400 	adrp	x0, 10f000 <BitFont+0x788>
   8c9c4:	913a7c00 	add	x0, x0, #0xe9f
   8c9c8:	39400000 	ldrb	w0, [x0]
   8c9cc:	6b00003f 	cmp	w1, w0
   8c9d0:	54000361 	b.ne	8ca3c <CEcoMemoryAllocator1Lab_623E1838_QueryInterface+0x504>  // b.any
   8c9d4:	f94013a0 	ldr	x0, [x29, #32]
   8c9d8:	91004000 	add	x0, x0, #0x10
   8c9dc:	39400001 	ldrb	w1, [x0]
   8c9e0:	f0000400 	adrp	x0, 10f000 <BitFont+0x788>
   8c9e4:	913a8000 	add	x0, x0, #0xea0
   8c9e8:	39400000 	ldrb	w0, [x0]
   8c9ec:	6b00003f 	cmp	w1, w0
   8c9f0:	54000261 	b.ne	8ca3c <CEcoMemoryAllocator1Lab_623E1838_QueryInterface+0x504>  // b.any
   8c9f4:	f94013a0 	ldr	x0, [x29, #32]
   8c9f8:	91004400 	add	x0, x0, #0x11
   8c9fc:	39400001 	ldrb	w1, [x0]
   8ca00:	f0000400 	adrp	x0, 10f000 <BitFont+0x788>
   8ca04:	913a8400 	add	x0, x0, #0xea1
   8ca08:	39400000 	ldrb	w0, [x0]
   8ca0c:	6b00003f 	cmp	w1, w0
   8ca10:	54000161 	b.ne	8ca3c <CEcoMemoryAllocator1Lab_623E1838_QueryInterface+0x504>  // b.any
   8ca14:	f9401fa0 	ldr	x0, [x29, #56]
   8ca18:	91002001 	add	x1, x0, #0x8
   8ca1c:	f9400fa0 	ldr	x0, [x29, #24]
   8ca20:	f9000001 	str	x1, [x0]
   8ca24:	f9401fa0 	ldr	x0, [x29, #56]
   8ca28:	f9400000 	ldr	x0, [x0]
   8ca2c:	f9400401 	ldr	x1, [x0, #8]
   8ca30:	f9401fa0 	ldr	x0, [x29, #56]
   8ca34:	d63f0020 	blr	x1
   8ca38:	14000136 	b	8cf10 <CEcoMemoryAllocator1Lab_623E1838_QueryInterface+0x9d8>
   8ca3c:	f94013a0 	ldr	x0, [x29, #32]
   8ca40:	39400001 	ldrb	w1, [x0]
   8ca44:	f0000400 	adrp	x0, 10f000 <BitFont+0x788>
   8ca48:	913b6000 	add	x0, x0, #0xed8
   8ca4c:	39400000 	ldrb	w0, [x0]
   8ca50:	6b00003f 	cmp	w1, w0
   8ca54:	54001261 	b.ne	8cca0 <CEcoMemoryAllocator1Lab_623E1838_QueryInterface+0x768>  // b.any
   8ca58:	f94013a0 	ldr	x0, [x29, #32]
   8ca5c:	91000400 	add	x0, x0, #0x1
   8ca60:	39400001 	ldrb	w1, [x0]
   8ca64:	f0000400 	adrp	x0, 10f000 <BitFont+0x788>
   8ca68:	913b6400 	add	x0, x0, #0xed9
   8ca6c:	39400000 	ldrb	w0, [x0]
   8ca70:	6b00003f 	cmp	w1, w0
   8ca74:	54001161 	b.ne	8cca0 <CEcoMemoryAllocator1Lab_623E1838_QueryInterface+0x768>  // b.any
   8ca78:	f94013a0 	ldr	x0, [x29, #32]
   8ca7c:	91000800 	add	x0, x0, #0x2
   8ca80:	39400001 	ldrb	w1, [x0]
   8ca84:	f0000400 	adrp	x0, 10f000 <BitFont+0x788>
   8ca88:	913b6800 	add	x0, x0, #0xeda
   8ca8c:	39400000 	ldrb	w0, [x0]
   8ca90:	6b00003f 	cmp	w1, w0
   8ca94:	54001061 	b.ne	8cca0 <CEcoMemoryAllocator1Lab_623E1838_QueryInterface+0x768>  // b.any
   8ca98:	f94013a0 	ldr	x0, [x29, #32]
   8ca9c:	91000c00 	add	x0, x0, #0x3
   8caa0:	39400001 	ldrb	w1, [x0]
   8caa4:	f0000400 	adrp	x0, 10f000 <BitFont+0x788>
   8caa8:	913b6c00 	add	x0, x0, #0xedb
   8caac:	39400000 	ldrb	w0, [x0]
   8cab0:	6b00003f 	cmp	w1, w0
   8cab4:	54000f61 	b.ne	8cca0 <CEcoMemoryAllocator1Lab_623E1838_QueryInterface+0x768>  // b.any
   8cab8:	f94013a0 	ldr	x0, [x29, #32]
   8cabc:	91001000 	add	x0, x0, #0x4
   8cac0:	39400001 	ldrb	w1, [x0]
   8cac4:	f0000400 	adrp	x0, 10f000 <BitFont+0x788>
   8cac8:	913b7000 	add	x0, x0, #0xedc
   8cacc:	39400000 	ldrb	w0, [x0]
   8cad0:	6b00003f 	cmp	w1, w0
   8cad4:	54000e61 	b.ne	8cca0 <CEcoMemoryAllocator1Lab_623E1838_QueryInterface+0x768>  // b.any
   8cad8:	f94013a0 	ldr	x0, [x29, #32]
   8cadc:	91001400 	add	x0, x0, #0x5
   8cae0:	39400001 	ldrb	w1, [x0]
   8cae4:	f0000400 	adrp	x0, 10f000 <BitFont+0x788>
   8cae8:	913b7400 	add	x0, x0, #0xedd
   8caec:	39400000 	ldrb	w0, [x0]
   8caf0:	6b00003f 	cmp	w1, w0
   8caf4:	54000d61 	b.ne	8cca0 <CEcoMemoryAllocator1Lab_623E1838_QueryInterface+0x768>  // b.any
   8caf8:	f94013a0 	ldr	x0, [x29, #32]
   8cafc:	91001800 	add	x0, x0, #0x6
   8cb00:	39400001 	ldrb	w1, [x0]
   8cb04:	f0000400 	adrp	x0, 10f000 <BitFont+0x788>
   8cb08:	913b7800 	add	x0, x0, #0xede
   8cb0c:	39400000 	ldrb	w0, [x0]
   8cb10:	6b00003f 	cmp	w1, w0
   8cb14:	54000c61 	b.ne	8cca0 <CEcoMemoryAllocator1Lab_623E1838_QueryInterface+0x768>  // b.any
   8cb18:	f94013a0 	ldr	x0, [x29, #32]
   8cb1c:	91001c00 	add	x0, x0, #0x7
   8cb20:	39400001 	ldrb	w1, [x0]
   8cb24:	f0000400 	adrp	x0, 10f000 <BitFont+0x788>
   8cb28:	913b7c00 	add	x0, x0, #0xedf
   8cb2c:	39400000 	ldrb	w0, [x0]
   8cb30:	6b00003f 	cmp	w1, w0
   8cb34:	54000b61 	b.ne	8cca0 <CEcoMemoryAllocator1Lab_623E1838_QueryInterface+0x768>  // b.any
   8cb38:	f94013a0 	ldr	x0, [x29, #32]
   8cb3c:	91002000 	add	x0, x0, #0x8
   8cb40:	39400001 	ldrb	w1, [x0]
   8cb44:	f0000400 	adrp	x0, 10f000 <BitFont+0x788>
   8cb48:	913b8000 	add	x0, x0, #0xee0
   8cb4c:	39400000 	ldrb	w0, [x0]
   8cb50:	6b00003f 	cmp	w1, w0
   8cb54:	54000a61 	b.ne	8cca0 <CEcoMemoryAllocator1Lab_623E1838_QueryInterface+0x768>  // b.any
   8cb58:	f94013a0 	ldr	x0, [x29, #32]
   8cb5c:	91002400 	add	x0, x0, #0x9
   8cb60:	39400001 	ldrb	w1, [x0]
   8cb64:	f0000400 	adrp	x0, 10f000 <BitFont+0x788>
   8cb68:	913b8400 	add	x0, x0, #0xee1
   8cb6c:	39400000 	ldrb	w0, [x0]
   8cb70:	6b00003f 	cmp	w1, w0
   8cb74:	54000961 	b.ne	8cca0 <CEcoMemoryAllocator1Lab_623E1838_QueryInterface+0x768>  // b.any
   8cb78:	f94013a0 	ldr	x0, [x29, #32]
   8cb7c:	91002800 	add	x0, x0, #0xa
   8cb80:	39400001 	ldrb	w1, [x0]
   8cb84:	f0000400 	adrp	x0, 10f000 <BitFont+0x788>
   8cb88:	913b8800 	add	x0, x0, #0xee2
   8cb8c:	39400000 	ldrb	w0, [x0]
   8cb90:	6b00003f 	cmp	w1, w0
   8cb94:	54000861 	b.ne	8cca0 <CEcoMemoryAllocator1Lab_623E1838_QueryInterface+0x768>  // b.any
   8cb98:	f94013a0 	ldr	x0, [x29, #32]
   8cb9c:	91002c00 	add	x0, x0, #0xb
   8cba0:	39400001 	ldrb	w1, [x0]
   8cba4:	f0000400 	adrp	x0, 10f000 <BitFont+0x788>
   8cba8:	913b8c00 	add	x0, x0, #0xee3
   8cbac:	39400000 	ldrb	w0, [x0]
   8cbb0:	6b00003f 	cmp	w1, w0
   8cbb4:	54000761 	b.ne	8cca0 <CEcoMemoryAllocator1Lab_623E1838_QueryInterface+0x768>  // b.any
   8cbb8:	f94013a0 	ldr	x0, [x29, #32]
   8cbbc:	91003000 	add	x0, x0, #0xc
   8cbc0:	39400001 	ldrb	w1, [x0]
   8cbc4:	f0000400 	adrp	x0, 10f000 <BitFont+0x788>
   8cbc8:	913b9000 	add	x0, x0, #0xee4
   8cbcc:	39400000 	ldrb	w0, [x0]
   8cbd0:	6b00003f 	cmp	w1, w0
   8cbd4:	54000661 	b.ne	8cca0 <CEcoMemoryAllocator1Lab_623E1838_QueryInterface+0x768>  // b.any
   8cbd8:	f94013a0 	ldr	x0, [x29, #32]
   8cbdc:	91003400 	add	x0, x0, #0xd
   8cbe0:	39400001 	ldrb	w1, [x0]
   8cbe4:	f0000400 	adrp	x0, 10f000 <BitFont+0x788>
   8cbe8:	913b9400 	add	x0, x0, #0xee5
   8cbec:	39400000 	ldrb	w0, [x0]
   8cbf0:	6b00003f 	cmp	w1, w0
   8cbf4:	54000561 	b.ne	8cca0 <CEcoMemoryAllocator1Lab_623E1838_QueryInterface+0x768>  // b.any
   8cbf8:	f94013a0 	ldr	x0, [x29, #32]
   8cbfc:	91003800 	add	x0, x0, #0xe
   8cc00:	39400001 	ldrb	w1, [x0]
   8cc04:	f0000400 	adrp	x0, 10f000 <BitFont+0x788>
   8cc08:	913b9800 	add	x0, x0, #0xee6
   8cc0c:	39400000 	ldrb	w0, [x0]
   8cc10:	6b00003f 	cmp	w1, w0
   8cc14:	54000461 	b.ne	8cca0 <CEcoMemoryAllocator1Lab_623E1838_QueryInterface+0x768>  // b.any
   8cc18:	f94013a0 	ldr	x0, [x29, #32]
   8cc1c:	91003c00 	add	x0, x0, #0xf
   8cc20:	39400001 	ldrb	w1, [x0]
   8cc24:	f0000400 	adrp	x0, 10f000 <BitFont+0x788>
   8cc28:	913b9c00 	add	x0, x0, #0xee7
   8cc2c:	39400000 	ldrb	w0, [x0]
   8cc30:	6b00003f 	cmp	w1, w0
   8cc34:	54000361 	b.ne	8cca0 <CEcoMemoryAllocator1Lab_623E1838_QueryInterface+0x768>  // b.any
   8cc38:	f94013a0 	ldr	x0, [x29, #32]
   8cc3c:	91004000 	add	x0, x0, #0x10
   8cc40:	39400001 	ldrb	w1, [x0]
   8cc44:	f0000400 	adrp	x0, 10f000 <BitFont+0x788>
   8cc48:	913ba000 	add	x0, x0, #0xee8
   8cc4c:	39400000 	ldrb	w0, [x0]
   8cc50:	6b00003f 	cmp	w1, w0
   8cc54:	54000261 	b.ne	8cca0 <CEcoMemoryAllocator1Lab_623E1838_QueryInterface+0x768>  // b.any
   8cc58:	f94013a0 	ldr	x0, [x29, #32]
   8cc5c:	91004400 	add	x0, x0, #0x11
   8cc60:	39400001 	ldrb	w1, [x0]
   8cc64:	f0000400 	adrp	x0, 10f000 <BitFont+0x788>
   8cc68:	913ba400 	add	x0, x0, #0xee9
   8cc6c:	39400000 	ldrb	w0, [x0]
   8cc70:	6b00003f 	cmp	w1, w0
   8cc74:	54000161 	b.ne	8cca0 <CEcoMemoryAllocator1Lab_623E1838_QueryInterface+0x768>  // b.any
   8cc78:	f9401fa0 	ldr	x0, [x29, #56]
   8cc7c:	91004001 	add	x1, x0, #0x10
   8cc80:	f9400fa0 	ldr	x0, [x29, #24]
   8cc84:	f9000001 	str	x1, [x0]
   8cc88:	f9401fa0 	ldr	x0, [x29, #56]
   8cc8c:	f9400000 	ldr	x0, [x0]
   8cc90:	f9400401 	ldr	x1, [x0, #8]
   8cc94:	f9401fa0 	ldr	x0, [x29, #56]
   8cc98:	d63f0020 	blr	x1
   8cc9c:	1400009d 	b	8cf10 <CEcoMemoryAllocator1Lab_623E1838_QueryInterface+0x9d8>
   8cca0:	f94013a0 	ldr	x0, [x29, #32]
   8cca4:	39400001 	ldrb	w1, [x0]
   8cca8:	f0000400 	adrp	x0, 10f000 <BitFont+0x788>
   8ccac:	91392000 	add	x0, x0, #0xe48
   8ccb0:	39400000 	ldrb	w0, [x0]
   8ccb4:	6b00003f 	cmp	w1, w0
   8ccb8:	54001241 	b.ne	8cf00 <CEcoMemoryAllocator1Lab_623E1838_QueryInterface+0x9c8>  // b.any
   8ccbc:	f94013a0 	ldr	x0, [x29, #32]
   8ccc0:	91000400 	add	x0, x0, #0x1
   8ccc4:	39400001 	ldrb	w1, [x0]
   8ccc8:	f0000400 	adrp	x0, 10f000 <BitFont+0x788>
   8cccc:	91392400 	add	x0, x0, #0xe49
   8ccd0:	39400000 	ldrb	w0, [x0]
   8ccd4:	6b00003f 	cmp	w1, w0
   8ccd8:	54001141 	b.ne	8cf00 <CEcoMemoryAllocator1Lab_623E1838_QueryInterface+0x9c8>  // b.any
   8ccdc:	f94013a0 	ldr	x0, [x29, #32]
   8cce0:	91000800 	add	x0, x0, #0x2
   8cce4:	39400001 	ldrb	w1, [x0]
   8cce8:	f0000400 	adrp	x0, 10f000 <BitFont+0x788>
   8ccec:	91392800 	add	x0, x0, #0xe4a
   8ccf0:	39400000 	ldrb	w0, [x0]
   8ccf4:	6b00003f 	cmp	w1, w0
   8ccf8:	54001041 	b.ne	8cf00 <CEcoMemoryAllocator1Lab_623E1838_QueryInterface+0x9c8>  // b.any
   8ccfc:	f94013a0 	ldr	x0, [x29, #32]
   8cd00:	91000c00 	add	x0, x0, #0x3
   8cd04:	39400001 	ldrb	w1, [x0]
   8cd08:	f0000400 	adrp	x0, 10f000 <BitFont+0x788>
   8cd0c:	91392c00 	add	x0, x0, #0xe4b
   8cd10:	39400000 	ldrb	w0, [x0]
   8cd14:	6b00003f 	cmp	w1, w0
   8cd18:	54000f41 	b.ne	8cf00 <CEcoMemoryAllocator1Lab_623E1838_QueryInterface+0x9c8>  // b.any
   8cd1c:	f94013a0 	ldr	x0, [x29, #32]
   8cd20:	91001000 	add	x0, x0, #0x4
   8cd24:	39400001 	ldrb	w1, [x0]
   8cd28:	f0000400 	adrp	x0, 10f000 <BitFont+0x788>
   8cd2c:	91393000 	add	x0, x0, #0xe4c
   8cd30:	39400000 	ldrb	w0, [x0]
   8cd34:	6b00003f 	cmp	w1, w0
   8cd38:	54000e41 	b.ne	8cf00 <CEcoMemoryAllocator1Lab_623E1838_QueryInterface+0x9c8>  // b.any
   8cd3c:	f94013a0 	ldr	x0, [x29, #32]
   8cd40:	91001400 	add	x0, x0, #0x5
   8cd44:	39400001 	ldrb	w1, [x0]
   8cd48:	f0000400 	adrp	x0, 10f000 <BitFont+0x788>
   8cd4c:	91393400 	add	x0, x0, #0xe4d
   8cd50:	39400000 	ldrb	w0, [x0]
   8cd54:	6b00003f 	cmp	w1, w0
   8cd58:	54000d41 	b.ne	8cf00 <CEcoMemoryAllocator1Lab_623E1838_QueryInterface+0x9c8>  // b.any
   8cd5c:	f94013a0 	ldr	x0, [x29, #32]
   8cd60:	91001800 	add	x0, x0, #0x6
   8cd64:	39400001 	ldrb	w1, [x0]
   8cd68:	f0000400 	adrp	x0, 10f000 <BitFont+0x788>
   8cd6c:	91393800 	add	x0, x0, #0xe4e
   8cd70:	39400000 	ldrb	w0, [x0]
   8cd74:	6b00003f 	cmp	w1, w0
   8cd78:	54000c41 	b.ne	8cf00 <CEcoMemoryAllocator1Lab_623E1838_QueryInterface+0x9c8>  // b.any
   8cd7c:	f94013a0 	ldr	x0, [x29, #32]
   8cd80:	91001c00 	add	x0, x0, #0x7
   8cd84:	39400001 	ldrb	w1, [x0]
   8cd88:	f0000400 	adrp	x0, 10f000 <BitFont+0x788>
   8cd8c:	91393c00 	add	x0, x0, #0xe4f
   8cd90:	39400000 	ldrb	w0, [x0]
   8cd94:	6b00003f 	cmp	w1, w0
   8cd98:	54000b41 	b.ne	8cf00 <CEcoMemoryAllocator1Lab_623E1838_QueryInterface+0x9c8>  // b.any
   8cd9c:	f94013a0 	ldr	x0, [x29, #32]
   8cda0:	91002000 	add	x0, x0, #0x8
   8cda4:	39400001 	ldrb	w1, [x0]
   8cda8:	f0000400 	adrp	x0, 10f000 <BitFont+0x788>
   8cdac:	91394000 	add	x0, x0, #0xe50
   8cdb0:	39400000 	ldrb	w0, [x0]
   8cdb4:	6b00003f 	cmp	w1, w0
   8cdb8:	54000a41 	b.ne	8cf00 <CEcoMemoryAllocator1Lab_623E1838_QueryInterface+0x9c8>  // b.any
   8cdbc:	f94013a0 	ldr	x0, [x29, #32]
   8cdc0:	91002400 	add	x0, x0, #0x9
   8cdc4:	39400001 	ldrb	w1, [x0]
   8cdc8:	f0000400 	adrp	x0, 10f000 <BitFont+0x788>
   8cdcc:	91394400 	add	x0, x0, #0xe51
   8cdd0:	39400000 	ldrb	w0, [x0]
   8cdd4:	6b00003f 	cmp	w1, w0
   8cdd8:	54000941 	b.ne	8cf00 <CEcoMemoryAllocator1Lab_623E1838_QueryInterface+0x9c8>  // b.any
   8cddc:	f94013a0 	ldr	x0, [x29, #32]
   8cde0:	91002800 	add	x0, x0, #0xa
   8cde4:	39400001 	ldrb	w1, [x0]
   8cde8:	f0000400 	adrp	x0, 10f000 <BitFont+0x788>
   8cdec:	91394800 	add	x0, x0, #0xe52
   8cdf0:	39400000 	ldrb	w0, [x0]
   8cdf4:	6b00003f 	cmp	w1, w0
   8cdf8:	54000841 	b.ne	8cf00 <CEcoMemoryAllocator1Lab_623E1838_QueryInterface+0x9c8>  // b.any
   8cdfc:	f94013a0 	ldr	x0, [x29, #32]
   8ce00:	91002c00 	add	x0, x0, #0xb
   8ce04:	39400001 	ldrb	w1, [x0]
   8ce08:	f0000400 	adrp	x0, 10f000 <BitFont+0x788>
   8ce0c:	91394c00 	add	x0, x0, #0xe53
   8ce10:	39400000 	ldrb	w0, [x0]
   8ce14:	6b00003f 	cmp	w1, w0
   8ce18:	54000741 	b.ne	8cf00 <CEcoMemoryAllocator1Lab_623E1838_QueryInterface+0x9c8>  // b.any
   8ce1c:	f94013a0 	ldr	x0, [x29, #32]
   8ce20:	91003000 	add	x0, x0, #0xc
   8ce24:	39400001 	ldrb	w1, [x0]
   8ce28:	f0000400 	adrp	x0, 10f000 <BitFont+0x788>
   8ce2c:	91395000 	add	x0, x0, #0xe54
   8ce30:	39400000 	ldrb	w0, [x0]
   8ce34:	6b00003f 	cmp	w1, w0
   8ce38:	54000641 	b.ne	8cf00 <CEcoMemoryAllocator1Lab_623E1838_QueryInterface+0x9c8>  // b.any
   8ce3c:	f94013a0 	ldr	x0, [x29, #32]
   8ce40:	91003400 	add	x0, x0, #0xd
   8ce44:	39400001 	ldrb	w1, [x0]
   8ce48:	f0000400 	adrp	x0, 10f000 <BitFont+0x788>
   8ce4c:	91395400 	add	x0, x0, #0xe55
   8ce50:	39400000 	ldrb	w0, [x0]
   8ce54:	6b00003f 	cmp	w1, w0
   8ce58:	54000541 	b.ne	8cf00 <CEcoMemoryAllocator1Lab_623E1838_QueryInterface+0x9c8>  // b.any
   8ce5c:	f94013a0 	ldr	x0, [x29, #32]
   8ce60:	91003800 	add	x0, x0, #0xe
   8ce64:	39400001 	ldrb	w1, [x0]
   8ce68:	f0000400 	adrp	x0, 10f000 <BitFont+0x788>
   8ce6c:	91395800 	add	x0, x0, #0xe56
   8ce70:	39400000 	ldrb	w0, [x0]
   8ce74:	6b00003f 	cmp	w1, w0
   8ce78:	54000441 	b.ne	8cf00 <CEcoMemoryAllocator1Lab_623E1838_QueryInterface+0x9c8>  // b.any
   8ce7c:	f94013a0 	ldr	x0, [x29, #32]
   8ce80:	91003c00 	add	x0, x0, #0xf
   8ce84:	39400001 	ldrb	w1, [x0]
   8ce88:	f0000400 	adrp	x0, 10f000 <BitFont+0x788>
   8ce8c:	91395c00 	add	x0, x0, #0xe57
   8ce90:	39400000 	ldrb	w0, [x0]
   8ce94:	6b00003f 	cmp	w1, w0
   8ce98:	54000341 	b.ne	8cf00 <CEcoMemoryAllocator1Lab_623E1838_QueryInterface+0x9c8>  // b.any
   8ce9c:	f94013a0 	ldr	x0, [x29, #32]
   8cea0:	91004000 	add	x0, x0, #0x10
   8cea4:	39400001 	ldrb	w1, [x0]
   8cea8:	f0000400 	adrp	x0, 10f000 <BitFont+0x788>
   8ceac:	91396000 	add	x0, x0, #0xe58
   8ceb0:	39400000 	ldrb	w0, [x0]
   8ceb4:	6b00003f 	cmp	w1, w0
   8ceb8:	54000241 	b.ne	8cf00 <CEcoMemoryAllocator1Lab_623E1838_QueryInterface+0x9c8>  // b.any
   8cebc:	f94013a0 	ldr	x0, [x29, #32]
   8cec0:	91004400 	add	x0, x0, #0x11
   8cec4:	39400001 	ldrb	w1, [x0]
   8cec8:	f0000400 	adrp	x0, 10f000 <BitFont+0x788>
   8cecc:	91396400 	add	x0, x0, #0xe59
   8ced0:	39400000 	ldrb	w0, [x0]
   8ced4:	6b00003f 	cmp	w1, w0
   8ced8:	54000141 	b.ne	8cf00 <CEcoMemoryAllocator1Lab_623E1838_QueryInterface+0x9c8>  // b.any
   8cedc:	f9401fa1 	ldr	x1, [x29, #56]
   8cee0:	f9400fa0 	ldr	x0, [x29, #24]
   8cee4:	f9000001 	str	x1, [x0]
   8cee8:	f9401fa0 	ldr	x0, [x29, #56]
   8ceec:	f9400000 	ldr	x0, [x0]
   8cef0:	f9400401 	ldr	x1, [x0, #8]
   8cef4:	f9401fa0 	ldr	x0, [x29, #56]
   8cef8:	d63f0020 	blr	x1
   8cefc:	14000005 	b	8cf10 <CEcoMemoryAllocator1Lab_623E1838_QueryInterface+0x9d8>
   8cf00:	f9400fa0 	ldr	x0, [x29, #24]
   8cf04:	f900001f 	str	xzr, [x0]
   8cf08:	12800000 	mov	w0, #0xffffffff            	// #-1
   8cf0c:	14000002 	b	8cf14 <CEcoMemoryAllocator1Lab_623E1838_QueryInterface+0x9dc>
   8cf10:	52800000 	mov	w0, #0x0                   	// #0
   8cf14:	a8c47bfd 	ldp	x29, x30, [sp], #64
   8cf18:	d65f03c0 	ret

000000000008cf1c <CEcoMemoryAllocator1Lab_623E1838_AddRef>:
   8cf1c:	d10083ff 	sub	sp, sp, #0x20
   8cf20:	f90007e0 	str	x0, [sp, #8]
   8cf24:	f94007e0 	ldr	x0, [sp, #8]
   8cf28:	d1002000 	sub	x0, x0, #0x8
   8cf2c:	f9000fe0 	str	x0, [sp, #24]
   8cf30:	f94007e0 	ldr	x0, [sp, #8]
   8cf34:	f100001f 	cmp	x0, #0x0
   8cf38:	54000061 	b.ne	8cf44 <CEcoMemoryAllocator1Lab_623E1838_AddRef+0x28>  // b.any
   8cf3c:	12800000 	mov	w0, #0xffffffff            	// #-1
   8cf40:	14000008 	b	8cf60 <CEcoMemoryAllocator1Lab_623E1838_AddRef+0x44>
   8cf44:	f9400fe0 	ldr	x0, [sp, #24]
   8cf48:	b9401800 	ldr	w0, [x0, #24]
   8cf4c:	11000401 	add	w1, w0, #0x1
   8cf50:	f9400fe0 	ldr	x0, [sp, #24]
   8cf54:	b9001801 	str	w1, [x0, #24]
   8cf58:	f9400fe0 	ldr	x0, [sp, #24]
   8cf5c:	b9401800 	ldr	w0, [x0, #24]
   8cf60:	910083ff 	add	sp, sp, #0x20
   8cf64:	d65f03c0 	ret

000000000008cf68 <CEcoMemoryAllocator1Lab_623E1838_Release>:
   8cf68:	a9bd7bfd 	stp	x29, x30, [sp, #-48]!
   8cf6c:	910003fd 	mov	x29, sp
   8cf70:	f9000fa0 	str	x0, [x29, #24]
   8cf74:	f9400fa0 	ldr	x0, [x29, #24]
   8cf78:	d1002000 	sub	x0, x0, #0x8
   8cf7c:	f90017a0 	str	x0, [x29, #40]
   8cf80:	f9400fa0 	ldr	x0, [x29, #24]
   8cf84:	f100001f 	cmp	x0, #0x0
   8cf88:	54000061 	b.ne	8cf94 <CEcoMemoryAllocator1Lab_623E1838_Release+0x2c>  // b.any
   8cf8c:	12800000 	mov	w0, #0xffffffff            	// #-1
   8cf90:	14000010 	b	8cfd0 <CEcoMemoryAllocator1Lab_623E1838_Release+0x68>
   8cf94:	f94017a0 	ldr	x0, [x29, #40]
   8cf98:	b9401800 	ldr	w0, [x0, #24]
   8cf9c:	51000401 	sub	w1, w0, #0x1
   8cfa0:	f94017a0 	ldr	x0, [x29, #40]
   8cfa4:	b9001801 	str	w1, [x0, #24]
   8cfa8:	f94017a0 	ldr	x0, [x29, #40]
   8cfac:	b9401800 	ldr	w0, [x0, #24]
   8cfb0:	7100001f 	cmp	w0, #0x0
   8cfb4:	540000a1 	b.ne	8cfc8 <CEcoMemoryAllocator1Lab_623E1838_Release+0x60>  // b.any
   8cfb8:	f94017a0 	ldr	x0, [x29, #40]
   8cfbc:	97fffc2b 	bl	8c068 <deleteCEcoMemoryManager1Lab_623E1838>
   8cfc0:	52800000 	mov	w0, #0x0                   	// #0
   8cfc4:	14000003 	b	8cfd0 <CEcoMemoryAllocator1Lab_623E1838_Release+0x68>
   8cfc8:	f94017a0 	ldr	x0, [x29, #40]
   8cfcc:	b9401800 	ldr	w0, [x0, #24]
   8cfd0:	a8c37bfd 	ldp	x29, x30, [sp], #48
   8cfd4:	d65f03c0 	ret

000000000008cfd8 <CEcoMemoryAllocator1Lab_623E1838_Alloc>:
   8cfd8:	a9bd7bfd 	stp	x29, x30, [sp, #-48]!
   8cfdc:	910003fd 	mov	x29, sp
   8cfe0:	f9000fa0 	str	x0, [x29, #24]
   8cfe4:	b90017a1 	str	w1, [x29, #20]
   8cfe8:	f9400fa0 	ldr	x0, [x29, #24]
   8cfec:	d1002000 	sub	x0, x0, #0x8
   8cff0:	f90017a0 	str	x0, [x29, #40]
   8cff4:	b94017a7 	ldr	w7, [x29, #20]
   8cff8:	f94017a0 	ldr	x0, [x29, #40]
   8cffc:	91026001 	add	x1, x0, #0x98
   8d000:	f94017a0 	ldr	x0, [x29, #40]
   8d004:	91024002 	add	x2, x0, #0x90
   8d008:	f94017a0 	ldr	x0, [x29, #40]
   8d00c:	f9405003 	ldr	x3, [x0, #160]
   8d010:	f94017a0 	ldr	x0, [x29, #40]
   8d014:	f9405404 	ldr	x4, [x0, #168]
   8d018:	f94017a0 	ldr	x0, [x29, #40]
   8d01c:	f9404005 	ldr	x5, [x0, #128]
   8d020:	f94017a0 	ldr	x0, [x29, #40]
   8d024:	f9404400 	ldr	x0, [x0, #136]
   8d028:	aa0003e6 	mov	x6, x0
   8d02c:	aa0703e0 	mov	x0, x7
   8d030:	97fffc47 	bl	8c14c <allocBlock>
   8d034:	a8c37bfd 	ldp	x29, x30, [sp], #48
   8d038:	d65f03c0 	ret

000000000008d03c <CEcoMemoryAllocator1Lab_623E1838_Free>:
   8d03c:	a9bd7bfd 	stp	x29, x30, [sp, #-48]!
   8d040:	910003fd 	mov	x29, sp
   8d044:	f9000fa0 	str	x0, [x29, #24]
   8d048:	f9000ba1 	str	x1, [x29, #16]
   8d04c:	f9400fa0 	ldr	x0, [x29, #24]
   8d050:	d1002000 	sub	x0, x0, #0x8
   8d054:	f90017a0 	str	x0, [x29, #40]
   8d058:	f94017a0 	ldr	x0, [x29, #40]
   8d05c:	91024000 	add	x0, x0, #0x90
   8d060:	aa0003e1 	mov	x1, x0
   8d064:	f9400ba0 	ldr	x0, [x29, #16]
   8d068:	97fffcf4 	bl	8c438 <freeBlock>
   8d06c:	d503201f 	nop
   8d070:	a8c37bfd 	ldp	x29, x30, [sp], #48
   8d074:	d65f03c0 	ret

000000000008d078 <CEcoMemoryAllocator1Lab_623E1838_Realloc>:
   8d078:	d10083ff 	sub	sp, sp, #0x20
   8d07c:	f9000fe0 	str	x0, [sp, #24]
   8d080:	f9000be1 	str	x1, [sp, #16]
   8d084:	b9000fe2 	str	w2, [sp, #12]
   8d088:	d2800000 	mov	x0, #0x0                   	// #0
   8d08c:	910083ff 	add	sp, sp, #0x20
   8d090:	d65f03c0 	ret

000000000008d094 <CEcoMemoryAllocator1Lab_623E1838_Copy>:
   8d094:	d10083ff 	sub	sp, sp, #0x20
   8d098:	f9000fe0 	str	x0, [sp, #24]
   8d09c:	f9000be1 	str	x1, [sp, #16]
   8d0a0:	f90007e2 	str	x2, [sp, #8]
   8d0a4:	b90007e3 	str	w3, [sp, #4]
   8d0a8:	d2800000 	mov	x0, #0x0                   	// #0
   8d0ac:	910083ff 	add	sp, sp, #0x20
   8d0b0:	d65f03c0 	ret

000000000008d0b4 <CEcoMemoryAllocator1Lab_623E1838_Fill>:
   8d0b4:	d10083ff 	sub	sp, sp, #0x20
   8d0b8:	f9000fe0 	str	x0, [sp, #24]
   8d0bc:	f9000be1 	str	x1, [sp, #16]
   8d0c0:	39003fe2 	strb	w2, [sp, #15]
   8d0c4:	b9000be3 	str	w3, [sp, #8]
   8d0c8:	d2800000 	mov	x0, #0x0                   	// #0
   8d0cc:	910083ff 	add	sp, sp, #0x20
   8d0d0:	d65f03c0 	ret

000000000008d0d4 <CEcoMemoryAllocator1Lab_623E1838_Compare>:
   8d0d4:	d10083ff 	sub	sp, sp, #0x20
   8d0d8:	f9000fe0 	str	x0, [sp, #24]
   8d0dc:	f9000be1 	str	x1, [sp, #16]
   8d0e0:	f90007e2 	str	x2, [sp, #8]
   8d0e4:	b90007e3 	str	w3, [sp, #4]
   8d0e8:	52800000 	mov	w0, #0x0                   	// #0
   8d0ec:	910083ff 	add	sp, sp, #0x20
   8d0f0:	d65f03c0 	ret

000000000008d0f4 <CEcoVirtualMemory1Lab_623E1838_QueryInterface>:
   8d0f4:	a9bc7bfd 	stp	x29, x30, [sp, #-64]!
   8d0f8:	910003fd 	mov	x29, sp
   8d0fc:	f90017a0 	str	x0, [x29, #40]
   8d100:	f90013a1 	str	x1, [x29, #32]
   8d104:	f9000fa2 	str	x2, [x29, #24]
   8d108:	f94017a0 	ldr	x0, [x29, #40]
   8d10c:	d1004000 	sub	x0, x0, #0x10
   8d110:	f9001fa0 	str	x0, [x29, #56]
   8d114:	f94017a0 	ldr	x0, [x29, #40]
   8d118:	f100001f 	cmp	x0, #0x0
   8d11c:	54000080 	b.eq	8d12c <CEcoVirtualMemory1Lab_623E1838_QueryInterface+0x38>  // b.none
   8d120:	f9400fa0 	ldr	x0, [x29, #24]
   8d124:	f100001f 	cmp	x0, #0x0
   8d128:	54000061 	b.ne	8d134 <CEcoVirtualMemory1Lab_623E1838_QueryInterface+0x40>  // b.any
   8d12c:	12800000 	mov	w0, #0xffffffff            	// #-1
   8d130:	14000268 	b	8dad0 <CEcoVirtualMemory1Lab_623E1838_QueryInterface+0x9dc>
   8d134:	f94013a0 	ldr	x0, [x29, #32]
   8d138:	39400001 	ldrb	w1, [x0]
   8d13c:	d0000400 	adrp	x0, 10f000 <BitFont+0x788>
   8d140:	913e0000 	add	x0, x0, #0xf80
   8d144:	39400000 	ldrb	w0, [x0]
   8d148:	6b00003f 	cmp	w1, w0
   8d14c:	54001241 	b.ne	8d394 <CEcoVirtualMemory1Lab_623E1838_QueryInterface+0x2a0>  // b.any
   8d150:	f94013a0 	ldr	x0, [x29, #32]
   8d154:	91000400 	add	x0, x0, #0x1
   8d158:	39400001 	ldrb	w1, [x0]
   8d15c:	d0000400 	adrp	x0, 10f000 <BitFont+0x788>
   8d160:	913e0400 	add	x0, x0, #0xf81
   8d164:	39400000 	ldrb	w0, [x0]
   8d168:	6b00003f 	cmp	w1, w0
   8d16c:	54001141 	b.ne	8d394 <CEcoVirtualMemory1Lab_623E1838_QueryInterface+0x2a0>  // b.any
   8d170:	f94013a0 	ldr	x0, [x29, #32]
   8d174:	91000800 	add	x0, x0, #0x2
   8d178:	39400001 	ldrb	w1, [x0]
   8d17c:	d0000400 	adrp	x0, 10f000 <BitFont+0x788>
   8d180:	913e0800 	add	x0, x0, #0xf82
   8d184:	39400000 	ldrb	w0, [x0]
   8d188:	6b00003f 	cmp	w1, w0
   8d18c:	54001041 	b.ne	8d394 <CEcoVirtualMemory1Lab_623E1838_QueryInterface+0x2a0>  // b.any
   8d190:	f94013a0 	ldr	x0, [x29, #32]
   8d194:	91000c00 	add	x0, x0, #0x3
   8d198:	39400001 	ldrb	w1, [x0]
   8d19c:	d0000400 	adrp	x0, 10f000 <BitFont+0x788>
   8d1a0:	913e0c00 	add	x0, x0, #0xf83
   8d1a4:	39400000 	ldrb	w0, [x0]
   8d1a8:	6b00003f 	cmp	w1, w0
   8d1ac:	54000f41 	b.ne	8d394 <CEcoVirtualMemory1Lab_623E1838_QueryInterface+0x2a0>  // b.any
   8d1b0:	f94013a0 	ldr	x0, [x29, #32]
   8d1b4:	91001000 	add	x0, x0, #0x4
   8d1b8:	39400001 	ldrb	w1, [x0]
   8d1bc:	d0000400 	adrp	x0, 10f000 <BitFont+0x788>
   8d1c0:	913e1000 	add	x0, x0, #0xf84
   8d1c4:	39400000 	ldrb	w0, [x0]
   8d1c8:	6b00003f 	cmp	w1, w0
   8d1cc:	54000e41 	b.ne	8d394 <CEcoVirtualMemory1Lab_623E1838_QueryInterface+0x2a0>  // b.any
   8d1d0:	f94013a0 	ldr	x0, [x29, #32]
   8d1d4:	91001400 	add	x0, x0, #0x5
   8d1d8:	39400001 	ldrb	w1, [x0]
   8d1dc:	d0000400 	adrp	x0, 10f000 <BitFont+0x788>
   8d1e0:	913e1400 	add	x0, x0, #0xf85
   8d1e4:	39400000 	ldrb	w0, [x0]
   8d1e8:	6b00003f 	cmp	w1, w0
   8d1ec:	54000d41 	b.ne	8d394 <CEcoVirtualMemory1Lab_623E1838_QueryInterface+0x2a0>  // b.any
   8d1f0:	f94013a0 	ldr	x0, [x29, #32]
   8d1f4:	91001800 	add	x0, x0, #0x6
   8d1f8:	39400001 	ldrb	w1, [x0]
   8d1fc:	d0000400 	adrp	x0, 10f000 <BitFont+0x788>
   8d200:	913e1800 	add	x0, x0, #0xf86
   8d204:	39400000 	ldrb	w0, [x0]
   8d208:	6b00003f 	cmp	w1, w0
   8d20c:	54000c41 	b.ne	8d394 <CEcoVirtualMemory1Lab_623E1838_QueryInterface+0x2a0>  // b.any
   8d210:	f94013a0 	ldr	x0, [x29, #32]
   8d214:	91001c00 	add	x0, x0, #0x7
   8d218:	39400001 	ldrb	w1, [x0]
   8d21c:	d0000400 	adrp	x0, 10f000 <BitFont+0x788>
   8d220:	913e1c00 	add	x0, x0, #0xf87
   8d224:	39400000 	ldrb	w0, [x0]
   8d228:	6b00003f 	cmp	w1, w0
   8d22c:	54000b41 	b.ne	8d394 <CEcoVirtualMemory1Lab_623E1838_QueryInterface+0x2a0>  // b.any
   8d230:	f94013a0 	ldr	x0, [x29, #32]
   8d234:	91002000 	add	x0, x0, #0x8
   8d238:	39400001 	ldrb	w1, [x0]
   8d23c:	d0000400 	adrp	x0, 10f000 <BitFont+0x788>
   8d240:	913e2000 	add	x0, x0, #0xf88
   8d244:	39400000 	ldrb	w0, [x0]
   8d248:	6b00003f 	cmp	w1, w0
   8d24c:	54000a41 	b.ne	8d394 <CEcoVirtualMemory1Lab_623E1838_QueryInterface+0x2a0>  // b.any
   8d250:	f94013a0 	ldr	x0, [x29, #32]
   8d254:	91002400 	add	x0, x0, #0x9
   8d258:	39400001 	ldrb	w1, [x0]
   8d25c:	d0000400 	adrp	x0, 10f000 <BitFont+0x788>
   8d260:	913e2400 	add	x0, x0, #0xf89
   8d264:	39400000 	ldrb	w0, [x0]
   8d268:	6b00003f 	cmp	w1, w0
   8d26c:	54000941 	b.ne	8d394 <CEcoVirtualMemory1Lab_623E1838_QueryInterface+0x2a0>  // b.any
   8d270:	f94013a0 	ldr	x0, [x29, #32]
   8d274:	91002800 	add	x0, x0, #0xa
   8d278:	39400001 	ldrb	w1, [x0]
   8d27c:	d0000400 	adrp	x0, 10f000 <BitFont+0x788>
   8d280:	913e2800 	add	x0, x0, #0xf8a
   8d284:	39400000 	ldrb	w0, [x0]
   8d288:	6b00003f 	cmp	w1, w0
   8d28c:	54000841 	b.ne	8d394 <CEcoVirtualMemory1Lab_623E1838_QueryInterface+0x2a0>  // b.any
   8d290:	f94013a0 	ldr	x0, [x29, #32]
   8d294:	91002c00 	add	x0, x0, #0xb
   8d298:	39400001 	ldrb	w1, [x0]
   8d29c:	d0000400 	adrp	x0, 10f000 <BitFont+0x788>
   8d2a0:	913e2c00 	add	x0, x0, #0xf8b
   8d2a4:	39400000 	ldrb	w0, [x0]
   8d2a8:	6b00003f 	cmp	w1, w0
   8d2ac:	54000741 	b.ne	8d394 <CEcoVirtualMemory1Lab_623E1838_QueryInterface+0x2a0>  // b.any
   8d2b0:	f94013a0 	ldr	x0, [x29, #32]
   8d2b4:	91003000 	add	x0, x0, #0xc
   8d2b8:	39400001 	ldrb	w1, [x0]
   8d2bc:	d0000400 	adrp	x0, 10f000 <BitFont+0x788>
   8d2c0:	913e3000 	add	x0, x0, #0xf8c
   8d2c4:	39400000 	ldrb	w0, [x0]
   8d2c8:	6b00003f 	cmp	w1, w0
   8d2cc:	54000641 	b.ne	8d394 <CEcoVirtualMemory1Lab_623E1838_QueryInterface+0x2a0>  // b.any
   8d2d0:	f94013a0 	ldr	x0, [x29, #32]
   8d2d4:	91003400 	add	x0, x0, #0xd
   8d2d8:	39400001 	ldrb	w1, [x0]
   8d2dc:	d0000400 	adrp	x0, 10f000 <BitFont+0x788>
   8d2e0:	913e3400 	add	x0, x0, #0xf8d
   8d2e4:	39400000 	ldrb	w0, [x0]
   8d2e8:	6b00003f 	cmp	w1, w0
   8d2ec:	54000541 	b.ne	8d394 <CEcoVirtualMemory1Lab_623E1838_QueryInterface+0x2a0>  // b.any
   8d2f0:	f94013a0 	ldr	x0, [x29, #32]
   8d2f4:	91003800 	add	x0, x0, #0xe
   8d2f8:	39400001 	ldrb	w1, [x0]
   8d2fc:	d0000400 	adrp	x0, 10f000 <BitFont+0x788>
   8d300:	913e3800 	add	x0, x0, #0xf8e
   8d304:	39400000 	ldrb	w0, [x0]
   8d308:	6b00003f 	cmp	w1, w0
   8d30c:	54000441 	b.ne	8d394 <CEcoVirtualMemory1Lab_623E1838_QueryInterface+0x2a0>  // b.any
   8d310:	f94013a0 	ldr	x0, [x29, #32]
   8d314:	91003c00 	add	x0, x0, #0xf
   8d318:	39400001 	ldrb	w1, [x0]
   8d31c:	d0000400 	adrp	x0, 10f000 <BitFont+0x788>
   8d320:	913e3c00 	add	x0, x0, #0xf8f
   8d324:	39400000 	ldrb	w0, [x0]
   8d328:	6b00003f 	cmp	w1, w0
   8d32c:	54000341 	b.ne	8d394 <CEcoVirtualMemory1Lab_623E1838_QueryInterface+0x2a0>  // b.any
   8d330:	f94013a0 	ldr	x0, [x29, #32]
   8d334:	91004000 	add	x0, x0, #0x10
   8d338:	39400001 	ldrb	w1, [x0]
   8d33c:	d0000400 	adrp	x0, 10f000 <BitFont+0x788>
   8d340:	913e4000 	add	x0, x0, #0xf90
   8d344:	39400000 	ldrb	w0, [x0]
   8d348:	6b00003f 	cmp	w1, w0
   8d34c:	54000241 	b.ne	8d394 <CEcoVirtualMemory1Lab_623E1838_QueryInterface+0x2a0>  // b.any
   8d350:	f94013a0 	ldr	x0, [x29, #32]
   8d354:	91004400 	add	x0, x0, #0x11
   8d358:	39400001 	ldrb	w1, [x0]
   8d35c:	d0000400 	adrp	x0, 10f000 <BitFont+0x788>
   8d360:	913e4400 	add	x0, x0, #0xf91
   8d364:	39400000 	ldrb	w0, [x0]
   8d368:	6b00003f 	cmp	w1, w0
   8d36c:	54000141 	b.ne	8d394 <CEcoVirtualMemory1Lab_623E1838_QueryInterface+0x2a0>  // b.any
   8d370:	f9401fa1 	ldr	x1, [x29, #56]
   8d374:	f9400fa0 	ldr	x0, [x29, #24]
   8d378:	f9000001 	str	x1, [x0]
   8d37c:	f9401fa0 	ldr	x0, [x29, #56]
   8d380:	f9400000 	ldr	x0, [x0]
   8d384:	f9400401 	ldr	x1, [x0, #8]
   8d388:	f9401fa0 	ldr	x0, [x29, #56]
   8d38c:	d63f0020 	blr	x1
   8d390:	140001cf 	b	8dacc <CEcoVirtualMemory1Lab_623E1838_QueryInterface+0x9d8>
   8d394:	f94013a0 	ldr	x0, [x29, #32]
   8d398:	39400001 	ldrb	w1, [x0]
   8d39c:	d0000400 	adrp	x0, 10f000 <BitFont+0x788>
   8d3a0:	913da000 	add	x0, x0, #0xf68
   8d3a4:	39400000 	ldrb	w0, [x0]
   8d3a8:	6b00003f 	cmp	w1, w0
   8d3ac:	54001261 	b.ne	8d5f8 <CEcoVirtualMemory1Lab_623E1838_QueryInterface+0x504>  // b.any
   8d3b0:	f94013a0 	ldr	x0, [x29, #32]
   8d3b4:	91000400 	add	x0, x0, #0x1
   8d3b8:	39400001 	ldrb	w1, [x0]
   8d3bc:	d0000400 	adrp	x0, 10f000 <BitFont+0x788>
   8d3c0:	913da400 	add	x0, x0, #0xf69
   8d3c4:	39400000 	ldrb	w0, [x0]
   8d3c8:	6b00003f 	cmp	w1, w0
   8d3cc:	54001161 	b.ne	8d5f8 <CEcoVirtualMemory1Lab_623E1838_QueryInterface+0x504>  // b.any
   8d3d0:	f94013a0 	ldr	x0, [x29, #32]
   8d3d4:	91000800 	add	x0, x0, #0x2
   8d3d8:	39400001 	ldrb	w1, [x0]
   8d3dc:	d0000400 	adrp	x0, 10f000 <BitFont+0x788>
   8d3e0:	913da800 	add	x0, x0, #0xf6a
   8d3e4:	39400000 	ldrb	w0, [x0]
   8d3e8:	6b00003f 	cmp	w1, w0
   8d3ec:	54001061 	b.ne	8d5f8 <CEcoVirtualMemory1Lab_623E1838_QueryInterface+0x504>  // b.any
   8d3f0:	f94013a0 	ldr	x0, [x29, #32]
   8d3f4:	91000c00 	add	x0, x0, #0x3
   8d3f8:	39400001 	ldrb	w1, [x0]
   8d3fc:	d0000400 	adrp	x0, 10f000 <BitFont+0x788>
   8d400:	913dac00 	add	x0, x0, #0xf6b
   8d404:	39400000 	ldrb	w0, [x0]
   8d408:	6b00003f 	cmp	w1, w0
   8d40c:	54000f61 	b.ne	8d5f8 <CEcoVirtualMemory1Lab_623E1838_QueryInterface+0x504>  // b.any
   8d410:	f94013a0 	ldr	x0, [x29, #32]
   8d414:	91001000 	add	x0, x0, #0x4
   8d418:	39400001 	ldrb	w1, [x0]
   8d41c:	d0000400 	adrp	x0, 10f000 <BitFont+0x788>
   8d420:	913db000 	add	x0, x0, #0xf6c
   8d424:	39400000 	ldrb	w0, [x0]
   8d428:	6b00003f 	cmp	w1, w0
   8d42c:	54000e61 	b.ne	8d5f8 <CEcoVirtualMemory1Lab_623E1838_QueryInterface+0x504>  // b.any
   8d430:	f94013a0 	ldr	x0, [x29, #32]
   8d434:	91001400 	add	x0, x0, #0x5
   8d438:	39400001 	ldrb	w1, [x0]
   8d43c:	d0000400 	adrp	x0, 10f000 <BitFont+0x788>
   8d440:	913db400 	add	x0, x0, #0xf6d
   8d444:	39400000 	ldrb	w0, [x0]
   8d448:	6b00003f 	cmp	w1, w0
   8d44c:	54000d61 	b.ne	8d5f8 <CEcoVirtualMemory1Lab_623E1838_QueryInterface+0x504>  // b.any
   8d450:	f94013a0 	ldr	x0, [x29, #32]
   8d454:	91001800 	add	x0, x0, #0x6
   8d458:	39400001 	ldrb	w1, [x0]
   8d45c:	d0000400 	adrp	x0, 10f000 <BitFont+0x788>
   8d460:	913db800 	add	x0, x0, #0xf6e
   8d464:	39400000 	ldrb	w0, [x0]
   8d468:	6b00003f 	cmp	w1, w0
   8d46c:	54000c61 	b.ne	8d5f8 <CEcoVirtualMemory1Lab_623E1838_QueryInterface+0x504>  // b.any
   8d470:	f94013a0 	ldr	x0, [x29, #32]
   8d474:	91001c00 	add	x0, x0, #0x7
   8d478:	39400001 	ldrb	w1, [x0]
   8d47c:	d0000400 	adrp	x0, 10f000 <BitFont+0x788>
   8d480:	913dbc00 	add	x0, x0, #0xf6f
   8d484:	39400000 	ldrb	w0, [x0]
   8d488:	6b00003f 	cmp	w1, w0
   8d48c:	54000b61 	b.ne	8d5f8 <CEcoVirtualMemory1Lab_623E1838_QueryInterface+0x504>  // b.any
   8d490:	f94013a0 	ldr	x0, [x29, #32]
   8d494:	91002000 	add	x0, x0, #0x8
   8d498:	39400001 	ldrb	w1, [x0]
   8d49c:	d0000400 	adrp	x0, 10f000 <BitFont+0x788>
   8d4a0:	913dc000 	add	x0, x0, #0xf70
   8d4a4:	39400000 	ldrb	w0, [x0]
   8d4a8:	6b00003f 	cmp	w1, w0
   8d4ac:	54000a61 	b.ne	8d5f8 <CEcoVirtualMemory1Lab_623E1838_QueryInterface+0x504>  // b.any
   8d4b0:	f94013a0 	ldr	x0, [x29, #32]
   8d4b4:	91002400 	add	x0, x0, #0x9
   8d4b8:	39400001 	ldrb	w1, [x0]
   8d4bc:	d0000400 	adrp	x0, 10f000 <BitFont+0x788>
   8d4c0:	913dc400 	add	x0, x0, #0xf71
   8d4c4:	39400000 	ldrb	w0, [x0]
   8d4c8:	6b00003f 	cmp	w1, w0
   8d4cc:	54000961 	b.ne	8d5f8 <CEcoVirtualMemory1Lab_623E1838_QueryInterface+0x504>  // b.any
   8d4d0:	f94013a0 	ldr	x0, [x29, #32]
   8d4d4:	91002800 	add	x0, x0, #0xa
   8d4d8:	39400001 	ldrb	w1, [x0]
   8d4dc:	d0000400 	adrp	x0, 10f000 <BitFont+0x788>
   8d4e0:	913dc800 	add	x0, x0, #0xf72
   8d4e4:	39400000 	ldrb	w0, [x0]
   8d4e8:	6b00003f 	cmp	w1, w0
   8d4ec:	54000861 	b.ne	8d5f8 <CEcoVirtualMemory1Lab_623E1838_QueryInterface+0x504>  // b.any
   8d4f0:	f94013a0 	ldr	x0, [x29, #32]
   8d4f4:	91002c00 	add	x0, x0, #0xb
   8d4f8:	39400001 	ldrb	w1, [x0]
   8d4fc:	d0000400 	adrp	x0, 10f000 <BitFont+0x788>
   8d500:	913dcc00 	add	x0, x0, #0xf73
   8d504:	39400000 	ldrb	w0, [x0]
   8d508:	6b00003f 	cmp	w1, w0
   8d50c:	54000761 	b.ne	8d5f8 <CEcoVirtualMemory1Lab_623E1838_QueryInterface+0x504>  // b.any
   8d510:	f94013a0 	ldr	x0, [x29, #32]
   8d514:	91003000 	add	x0, x0, #0xc
   8d518:	39400001 	ldrb	w1, [x0]
   8d51c:	d0000400 	adrp	x0, 10f000 <BitFont+0x788>
   8d520:	913dd000 	add	x0, x0, #0xf74
   8d524:	39400000 	ldrb	w0, [x0]
   8d528:	6b00003f 	cmp	w1, w0
   8d52c:	54000661 	b.ne	8d5f8 <CEcoVirtualMemory1Lab_623E1838_QueryInterface+0x504>  // b.any
   8d530:	f94013a0 	ldr	x0, [x29, #32]
   8d534:	91003400 	add	x0, x0, #0xd
   8d538:	39400001 	ldrb	w1, [x0]
   8d53c:	d0000400 	adrp	x0, 10f000 <BitFont+0x788>
   8d540:	913dd400 	add	x0, x0, #0xf75
   8d544:	39400000 	ldrb	w0, [x0]
   8d548:	6b00003f 	cmp	w1, w0
   8d54c:	54000561 	b.ne	8d5f8 <CEcoVirtualMemory1Lab_623E1838_QueryInterface+0x504>  // b.any
   8d550:	f94013a0 	ldr	x0, [x29, #32]
   8d554:	91003800 	add	x0, x0, #0xe
   8d558:	39400001 	ldrb	w1, [x0]
   8d55c:	d0000400 	adrp	x0, 10f000 <BitFont+0x788>
   8d560:	913dd800 	add	x0, x0, #0xf76
   8d564:	39400000 	ldrb	w0, [x0]
   8d568:	6b00003f 	cmp	w1, w0
   8d56c:	54000461 	b.ne	8d5f8 <CEcoVirtualMemory1Lab_623E1838_QueryInterface+0x504>  // b.any
   8d570:	f94013a0 	ldr	x0, [x29, #32]
   8d574:	91003c00 	add	x0, x0, #0xf
   8d578:	39400001 	ldrb	w1, [x0]
   8d57c:	d0000400 	adrp	x0, 10f000 <BitFont+0x788>
   8d580:	913ddc00 	add	x0, x0, #0xf77
   8d584:	39400000 	ldrb	w0, [x0]
   8d588:	6b00003f 	cmp	w1, w0
   8d58c:	54000361 	b.ne	8d5f8 <CEcoVirtualMemory1Lab_623E1838_QueryInterface+0x504>  // b.any
   8d590:	f94013a0 	ldr	x0, [x29, #32]
   8d594:	91004000 	add	x0, x0, #0x10
   8d598:	39400001 	ldrb	w1, [x0]
   8d59c:	d0000400 	adrp	x0, 10f000 <BitFont+0x788>
   8d5a0:	913de000 	add	x0, x0, #0xf78
   8d5a4:	39400000 	ldrb	w0, [x0]
   8d5a8:	6b00003f 	cmp	w1, w0
   8d5ac:	54000261 	b.ne	8d5f8 <CEcoVirtualMemory1Lab_623E1838_QueryInterface+0x504>  // b.any
   8d5b0:	f94013a0 	ldr	x0, [x29, #32]
   8d5b4:	91004400 	add	x0, x0, #0x11
   8d5b8:	39400001 	ldrb	w1, [x0]
   8d5bc:	d0000400 	adrp	x0, 10f000 <BitFont+0x788>
   8d5c0:	913de400 	add	x0, x0, #0xf79
   8d5c4:	39400000 	ldrb	w0, [x0]
   8d5c8:	6b00003f 	cmp	w1, w0
   8d5cc:	54000161 	b.ne	8d5f8 <CEcoVirtualMemory1Lab_623E1838_QueryInterface+0x504>  // b.any
   8d5d0:	f9401fa0 	ldr	x0, [x29, #56]
   8d5d4:	91002001 	add	x1, x0, #0x8
   8d5d8:	f9400fa0 	ldr	x0, [x29, #24]
   8d5dc:	f9000001 	str	x1, [x0]
   8d5e0:	f9401fa0 	ldr	x0, [x29, #56]
   8d5e4:	f9400000 	ldr	x0, [x0]
   8d5e8:	f9400401 	ldr	x1, [x0, #8]
   8d5ec:	f9401fa0 	ldr	x0, [x29, #56]
   8d5f0:	d63f0020 	blr	x1
   8d5f4:	14000136 	b	8dacc <CEcoVirtualMemory1Lab_623E1838_QueryInterface+0x9d8>
   8d5f8:	f94013a0 	ldr	x0, [x29, #32]
   8d5fc:	39400001 	ldrb	w1, [x0]
   8d600:	d0000400 	adrp	x0, 10f000 <BitFont+0x788>
   8d604:	913ec000 	add	x0, x0, #0xfb0
   8d608:	39400000 	ldrb	w0, [x0]
   8d60c:	6b00003f 	cmp	w1, w0
   8d610:	54001261 	b.ne	8d85c <CEcoVirtualMemory1Lab_623E1838_QueryInterface+0x768>  // b.any
   8d614:	f94013a0 	ldr	x0, [x29, #32]
   8d618:	91000400 	add	x0, x0, #0x1
   8d61c:	39400001 	ldrb	w1, [x0]
   8d620:	d0000400 	adrp	x0, 10f000 <BitFont+0x788>
   8d624:	913ec400 	add	x0, x0, #0xfb1
   8d628:	39400000 	ldrb	w0, [x0]
   8d62c:	6b00003f 	cmp	w1, w0
   8d630:	54001161 	b.ne	8d85c <CEcoVirtualMemory1Lab_623E1838_QueryInterface+0x768>  // b.any
   8d634:	f94013a0 	ldr	x0, [x29, #32]
   8d638:	91000800 	add	x0, x0, #0x2
   8d63c:	39400001 	ldrb	w1, [x0]
   8d640:	d0000400 	adrp	x0, 10f000 <BitFont+0x788>
   8d644:	913ec800 	add	x0, x0, #0xfb2
   8d648:	39400000 	ldrb	w0, [x0]
   8d64c:	6b00003f 	cmp	w1, w0
   8d650:	54001061 	b.ne	8d85c <CEcoVirtualMemory1Lab_623E1838_QueryInterface+0x768>  // b.any
   8d654:	f94013a0 	ldr	x0, [x29, #32]
   8d658:	91000c00 	add	x0, x0, #0x3
   8d65c:	39400001 	ldrb	w1, [x0]
   8d660:	d0000400 	adrp	x0, 10f000 <BitFont+0x788>
   8d664:	913ecc00 	add	x0, x0, #0xfb3
   8d668:	39400000 	ldrb	w0, [x0]
   8d66c:	6b00003f 	cmp	w1, w0
   8d670:	54000f61 	b.ne	8d85c <CEcoVirtualMemory1Lab_623E1838_QueryInterface+0x768>  // b.any
   8d674:	f94013a0 	ldr	x0, [x29, #32]
   8d678:	91001000 	add	x0, x0, #0x4
   8d67c:	39400001 	ldrb	w1, [x0]
   8d680:	d0000400 	adrp	x0, 10f000 <BitFont+0x788>
   8d684:	913ed000 	add	x0, x0, #0xfb4
   8d688:	39400000 	ldrb	w0, [x0]
   8d68c:	6b00003f 	cmp	w1, w0
   8d690:	54000e61 	b.ne	8d85c <CEcoVirtualMemory1Lab_623E1838_QueryInterface+0x768>  // b.any
   8d694:	f94013a0 	ldr	x0, [x29, #32]
   8d698:	91001400 	add	x0, x0, #0x5
   8d69c:	39400001 	ldrb	w1, [x0]
   8d6a0:	d0000400 	adrp	x0, 10f000 <BitFont+0x788>
   8d6a4:	913ed400 	add	x0, x0, #0xfb5
   8d6a8:	39400000 	ldrb	w0, [x0]
   8d6ac:	6b00003f 	cmp	w1, w0
   8d6b0:	54000d61 	b.ne	8d85c <CEcoVirtualMemory1Lab_623E1838_QueryInterface+0x768>  // b.any
   8d6b4:	f94013a0 	ldr	x0, [x29, #32]
   8d6b8:	91001800 	add	x0, x0, #0x6
   8d6bc:	39400001 	ldrb	w1, [x0]
   8d6c0:	d0000400 	adrp	x0, 10f000 <BitFont+0x788>
   8d6c4:	913ed800 	add	x0, x0, #0xfb6
   8d6c8:	39400000 	ldrb	w0, [x0]
   8d6cc:	6b00003f 	cmp	w1, w0
   8d6d0:	54000c61 	b.ne	8d85c <CEcoVirtualMemory1Lab_623E1838_QueryInterface+0x768>  // b.any
   8d6d4:	f94013a0 	ldr	x0, [x29, #32]
   8d6d8:	91001c00 	add	x0, x0, #0x7
   8d6dc:	39400001 	ldrb	w1, [x0]
   8d6e0:	d0000400 	adrp	x0, 10f000 <BitFont+0x788>
   8d6e4:	913edc00 	add	x0, x0, #0xfb7
   8d6e8:	39400000 	ldrb	w0, [x0]
   8d6ec:	6b00003f 	cmp	w1, w0
   8d6f0:	54000b61 	b.ne	8d85c <CEcoVirtualMemory1Lab_623E1838_QueryInterface+0x768>  // b.any
   8d6f4:	f94013a0 	ldr	x0, [x29, #32]
   8d6f8:	91002000 	add	x0, x0, #0x8
   8d6fc:	39400001 	ldrb	w1, [x0]
   8d700:	d0000400 	adrp	x0, 10f000 <BitFont+0x788>
   8d704:	913ee000 	add	x0, x0, #0xfb8
   8d708:	39400000 	ldrb	w0, [x0]
   8d70c:	6b00003f 	cmp	w1, w0
   8d710:	54000a61 	b.ne	8d85c <CEcoVirtualMemory1Lab_623E1838_QueryInterface+0x768>  // b.any
   8d714:	f94013a0 	ldr	x0, [x29, #32]
   8d718:	91002400 	add	x0, x0, #0x9
   8d71c:	39400001 	ldrb	w1, [x0]
   8d720:	d0000400 	adrp	x0, 10f000 <BitFont+0x788>
   8d724:	913ee400 	add	x0, x0, #0xfb9
   8d728:	39400000 	ldrb	w0, [x0]
   8d72c:	6b00003f 	cmp	w1, w0
   8d730:	54000961 	b.ne	8d85c <CEcoVirtualMemory1Lab_623E1838_QueryInterface+0x768>  // b.any
   8d734:	f94013a0 	ldr	x0, [x29, #32]
   8d738:	91002800 	add	x0, x0, #0xa
   8d73c:	39400001 	ldrb	w1, [x0]
   8d740:	d0000400 	adrp	x0, 10f000 <BitFont+0x788>
   8d744:	913ee800 	add	x0, x0, #0xfba
   8d748:	39400000 	ldrb	w0, [x0]
   8d74c:	6b00003f 	cmp	w1, w0
   8d750:	54000861 	b.ne	8d85c <CEcoVirtualMemory1Lab_623E1838_QueryInterface+0x768>  // b.any
   8d754:	f94013a0 	ldr	x0, [x29, #32]
   8d758:	91002c00 	add	x0, x0, #0xb
   8d75c:	39400001 	ldrb	w1, [x0]
   8d760:	d0000400 	adrp	x0, 10f000 <BitFont+0x788>
   8d764:	913eec00 	add	x0, x0, #0xfbb
   8d768:	39400000 	ldrb	w0, [x0]
   8d76c:	6b00003f 	cmp	w1, w0
   8d770:	54000761 	b.ne	8d85c <CEcoVirtualMemory1Lab_623E1838_QueryInterface+0x768>  // b.any
   8d774:	f94013a0 	ldr	x0, [x29, #32]
   8d778:	91003000 	add	x0, x0, #0xc
   8d77c:	39400001 	ldrb	w1, [x0]
   8d780:	d0000400 	adrp	x0, 10f000 <BitFont+0x788>
   8d784:	913ef000 	add	x0, x0, #0xfbc
   8d788:	39400000 	ldrb	w0, [x0]
   8d78c:	6b00003f 	cmp	w1, w0
   8d790:	54000661 	b.ne	8d85c <CEcoVirtualMemory1Lab_623E1838_QueryInterface+0x768>  // b.any
   8d794:	f94013a0 	ldr	x0, [x29, #32]
   8d798:	91003400 	add	x0, x0, #0xd
   8d79c:	39400001 	ldrb	w1, [x0]
   8d7a0:	d0000400 	adrp	x0, 10f000 <BitFont+0x788>
   8d7a4:	913ef400 	add	x0, x0, #0xfbd
   8d7a8:	39400000 	ldrb	w0, [x0]
   8d7ac:	6b00003f 	cmp	w1, w0
   8d7b0:	54000561 	b.ne	8d85c <CEcoVirtualMemory1Lab_623E1838_QueryInterface+0x768>  // b.any
   8d7b4:	f94013a0 	ldr	x0, [x29, #32]
   8d7b8:	91003800 	add	x0, x0, #0xe
   8d7bc:	39400001 	ldrb	w1, [x0]
   8d7c0:	d0000400 	adrp	x0, 10f000 <BitFont+0x788>
   8d7c4:	913ef800 	add	x0, x0, #0xfbe
   8d7c8:	39400000 	ldrb	w0, [x0]
   8d7cc:	6b00003f 	cmp	w1, w0
   8d7d0:	54000461 	b.ne	8d85c <CEcoVirtualMemory1Lab_623E1838_QueryInterface+0x768>  // b.any
   8d7d4:	f94013a0 	ldr	x0, [x29, #32]
   8d7d8:	91003c00 	add	x0, x0, #0xf
   8d7dc:	39400001 	ldrb	w1, [x0]
   8d7e0:	d0000400 	adrp	x0, 10f000 <BitFont+0x788>
   8d7e4:	913efc00 	add	x0, x0, #0xfbf
   8d7e8:	39400000 	ldrb	w0, [x0]
   8d7ec:	6b00003f 	cmp	w1, w0
   8d7f0:	54000361 	b.ne	8d85c <CEcoVirtualMemory1Lab_623E1838_QueryInterface+0x768>  // b.any
   8d7f4:	f94013a0 	ldr	x0, [x29, #32]
   8d7f8:	91004000 	add	x0, x0, #0x10
   8d7fc:	39400001 	ldrb	w1, [x0]
   8d800:	d0000400 	adrp	x0, 10f000 <BitFont+0x788>
   8d804:	913f0000 	add	x0, x0, #0xfc0
   8d808:	39400000 	ldrb	w0, [x0]
   8d80c:	6b00003f 	cmp	w1, w0
   8d810:	54000261 	b.ne	8d85c <CEcoVirtualMemory1Lab_623E1838_QueryInterface+0x768>  // b.any
   8d814:	f94013a0 	ldr	x0, [x29, #32]
   8d818:	91004400 	add	x0, x0, #0x11
   8d81c:	39400001 	ldrb	w1, [x0]
   8d820:	d0000400 	adrp	x0, 10f000 <BitFont+0x788>
   8d824:	913f0400 	add	x0, x0, #0xfc1
   8d828:	39400000 	ldrb	w0, [x0]
   8d82c:	6b00003f 	cmp	w1, w0
   8d830:	54000161 	b.ne	8d85c <CEcoVirtualMemory1Lab_623E1838_QueryInterface+0x768>  // b.any
   8d834:	f9401fa0 	ldr	x0, [x29, #56]
   8d838:	91004001 	add	x1, x0, #0x10
   8d83c:	f9400fa0 	ldr	x0, [x29, #24]
   8d840:	f9000001 	str	x1, [x0]
   8d844:	f9401fa0 	ldr	x0, [x29, #56]
   8d848:	f9400000 	ldr	x0, [x0]
   8d84c:	f9400401 	ldr	x1, [x0, #8]
   8d850:	f9401fa0 	ldr	x0, [x29, #56]
   8d854:	d63f0020 	blr	x1
   8d858:	1400009d 	b	8dacc <CEcoVirtualMemory1Lab_623E1838_QueryInterface+0x9d8>
   8d85c:	f94013a0 	ldr	x0, [x29, #32]
   8d860:	39400001 	ldrb	w1, [x0]
   8d864:	d0000400 	adrp	x0, 10f000 <BitFont+0x788>
   8d868:	913c8000 	add	x0, x0, #0xf20
   8d86c:	39400000 	ldrb	w0, [x0]
   8d870:	6b00003f 	cmp	w1, w0
   8d874:	54001241 	b.ne	8dabc <CEcoVirtualMemory1Lab_623E1838_QueryInterface+0x9c8>  // b.any
   8d878:	f94013a0 	ldr	x0, [x29, #32]
   8d87c:	91000400 	add	x0, x0, #0x1
   8d880:	39400001 	ldrb	w1, [x0]
   8d884:	d0000400 	adrp	x0, 10f000 <BitFont+0x788>
   8d888:	913c8400 	add	x0, x0, #0xf21
   8d88c:	39400000 	ldrb	w0, [x0]
   8d890:	6b00003f 	cmp	w1, w0
   8d894:	54001141 	b.ne	8dabc <CEcoVirtualMemory1Lab_623E1838_QueryInterface+0x9c8>  // b.any
   8d898:	f94013a0 	ldr	x0, [x29, #32]
   8d89c:	91000800 	add	x0, x0, #0x2
   8d8a0:	39400001 	ldrb	w1, [x0]
   8d8a4:	d0000400 	adrp	x0, 10f000 <BitFont+0x788>
   8d8a8:	913c8800 	add	x0, x0, #0xf22
   8d8ac:	39400000 	ldrb	w0, [x0]
   8d8b0:	6b00003f 	cmp	w1, w0
   8d8b4:	54001041 	b.ne	8dabc <CEcoVirtualMemory1Lab_623E1838_QueryInterface+0x9c8>  // b.any
   8d8b8:	f94013a0 	ldr	x0, [x29, #32]
   8d8bc:	91000c00 	add	x0, x0, #0x3
   8d8c0:	39400001 	ldrb	w1, [x0]
   8d8c4:	d0000400 	adrp	x0, 10f000 <BitFont+0x788>
   8d8c8:	913c8c00 	add	x0, x0, #0xf23
   8d8cc:	39400000 	ldrb	w0, [x0]
   8d8d0:	6b00003f 	cmp	w1, w0
   8d8d4:	54000f41 	b.ne	8dabc <CEcoVirtualMemory1Lab_623E1838_QueryInterface+0x9c8>  // b.any
   8d8d8:	f94013a0 	ldr	x0, [x29, #32]
   8d8dc:	91001000 	add	x0, x0, #0x4
   8d8e0:	39400001 	ldrb	w1, [x0]
   8d8e4:	d0000400 	adrp	x0, 10f000 <BitFont+0x788>
   8d8e8:	913c9000 	add	x0, x0, #0xf24
   8d8ec:	39400000 	ldrb	w0, [x0]
   8d8f0:	6b00003f 	cmp	w1, w0
   8d8f4:	54000e41 	b.ne	8dabc <CEcoVirtualMemory1Lab_623E1838_QueryInterface+0x9c8>  // b.any
   8d8f8:	f94013a0 	ldr	x0, [x29, #32]
   8d8fc:	91001400 	add	x0, x0, #0x5
   8d900:	39400001 	ldrb	w1, [x0]
   8d904:	d0000400 	adrp	x0, 10f000 <BitFont+0x788>
   8d908:	913c9400 	add	x0, x0, #0xf25
   8d90c:	39400000 	ldrb	w0, [x0]
   8d910:	6b00003f 	cmp	w1, w0
   8d914:	54000d41 	b.ne	8dabc <CEcoVirtualMemory1Lab_623E1838_QueryInterface+0x9c8>  // b.any
   8d918:	f94013a0 	ldr	x0, [x29, #32]
   8d91c:	91001800 	add	x0, x0, #0x6
   8d920:	39400001 	ldrb	w1, [x0]
   8d924:	d0000400 	adrp	x0, 10f000 <BitFont+0x788>
   8d928:	913c9800 	add	x0, x0, #0xf26
   8d92c:	39400000 	ldrb	w0, [x0]
   8d930:	6b00003f 	cmp	w1, w0
   8d934:	54000c41 	b.ne	8dabc <CEcoVirtualMemory1Lab_623E1838_QueryInterface+0x9c8>  // b.any
   8d938:	f94013a0 	ldr	x0, [x29, #32]
   8d93c:	91001c00 	add	x0, x0, #0x7
   8d940:	39400001 	ldrb	w1, [x0]
   8d944:	d0000400 	adrp	x0, 10f000 <BitFont+0x788>
   8d948:	913c9c00 	add	x0, x0, #0xf27
   8d94c:	39400000 	ldrb	w0, [x0]
   8d950:	6b00003f 	cmp	w1, w0
   8d954:	54000b41 	b.ne	8dabc <CEcoVirtualMemory1Lab_623E1838_QueryInterface+0x9c8>  // b.any
   8d958:	f94013a0 	ldr	x0, [x29, #32]
   8d95c:	91002000 	add	x0, x0, #0x8
   8d960:	39400001 	ldrb	w1, [x0]
   8d964:	d0000400 	adrp	x0, 10f000 <BitFont+0x788>
   8d968:	913ca000 	add	x0, x0, #0xf28
   8d96c:	39400000 	ldrb	w0, [x0]
   8d970:	6b00003f 	cmp	w1, w0
   8d974:	54000a41 	b.ne	8dabc <CEcoVirtualMemory1Lab_623E1838_QueryInterface+0x9c8>  // b.any
   8d978:	f94013a0 	ldr	x0, [x29, #32]
   8d97c:	91002400 	add	x0, x0, #0x9
   8d980:	39400001 	ldrb	w1, [x0]
   8d984:	d0000400 	adrp	x0, 10f000 <BitFont+0x788>
   8d988:	913ca400 	add	x0, x0, #0xf29
   8d98c:	39400000 	ldrb	w0, [x0]
   8d990:	6b00003f 	cmp	w1, w0
   8d994:	54000941 	b.ne	8dabc <CEcoVirtualMemory1Lab_623E1838_QueryInterface+0x9c8>  // b.any
   8d998:	f94013a0 	ldr	x0, [x29, #32]
   8d99c:	91002800 	add	x0, x0, #0xa
   8d9a0:	39400001 	ldrb	w1, [x0]
   8d9a4:	d0000400 	adrp	x0, 10f000 <BitFont+0x788>
   8d9a8:	913ca800 	add	x0, x0, #0xf2a
   8d9ac:	39400000 	ldrb	w0, [x0]
   8d9b0:	6b00003f 	cmp	w1, w0
   8d9b4:	54000841 	b.ne	8dabc <CEcoVirtualMemory1Lab_623E1838_QueryInterface+0x9c8>  // b.any
   8d9b8:	f94013a0 	ldr	x0, [x29, #32]
   8d9bc:	91002c00 	add	x0, x0, #0xb
   8d9c0:	39400001 	ldrb	w1, [x0]
   8d9c4:	d0000400 	adrp	x0, 10f000 <BitFont+0x788>
   8d9c8:	913cac00 	add	x0, x0, #0xf2b
   8d9cc:	39400000 	ldrb	w0, [x0]
   8d9d0:	6b00003f 	cmp	w1, w0
   8d9d4:	54000741 	b.ne	8dabc <CEcoVirtualMemory1Lab_623E1838_QueryInterface+0x9c8>  // b.any
   8d9d8:	f94013a0 	ldr	x0, [x29, #32]
   8d9dc:	91003000 	add	x0, x0, #0xc
   8d9e0:	39400001 	ldrb	w1, [x0]
   8d9e4:	d0000400 	adrp	x0, 10f000 <BitFont+0x788>
   8d9e8:	913cb000 	add	x0, x0, #0xf2c
   8d9ec:	39400000 	ldrb	w0, [x0]
   8d9f0:	6b00003f 	cmp	w1, w0
   8d9f4:	54000641 	b.ne	8dabc <CEcoVirtualMemory1Lab_623E1838_QueryInterface+0x9c8>  // b.any
   8d9f8:	f94013a0 	ldr	x0, [x29, #32]
   8d9fc:	91003400 	add	x0, x0, #0xd
   8da00:	39400001 	ldrb	w1, [x0]
   8da04:	d0000400 	adrp	x0, 10f000 <BitFont+0x788>
   8da08:	913cb400 	add	x0, x0, #0xf2d
   8da0c:	39400000 	ldrb	w0, [x0]
   8da10:	6b00003f 	cmp	w1, w0
   8da14:	54000541 	b.ne	8dabc <CEcoVirtualMemory1Lab_623E1838_QueryInterface+0x9c8>  // b.any
   8da18:	f94013a0 	ldr	x0, [x29, #32]
   8da1c:	91003800 	add	x0, x0, #0xe
   8da20:	39400001 	ldrb	w1, [x0]
   8da24:	d0000400 	adrp	x0, 10f000 <BitFont+0x788>
   8da28:	913cb800 	add	x0, x0, #0xf2e
   8da2c:	39400000 	ldrb	w0, [x0]
   8da30:	6b00003f 	cmp	w1, w0
   8da34:	54000441 	b.ne	8dabc <CEcoVirtualMemory1Lab_623E1838_QueryInterface+0x9c8>  // b.any
   8da38:	f94013a0 	ldr	x0, [x29, #32]
   8da3c:	91003c00 	add	x0, x0, #0xf
   8da40:	39400001 	ldrb	w1, [x0]
   8da44:	d0000400 	adrp	x0, 10f000 <BitFont+0x788>
   8da48:	913cbc00 	add	x0, x0, #0xf2f
   8da4c:	39400000 	ldrb	w0, [x0]
   8da50:	6b00003f 	cmp	w1, w0
   8da54:	54000341 	b.ne	8dabc <CEcoVirtualMemory1Lab_623E1838_QueryInterface+0x9c8>  // b.any
   8da58:	f94013a0 	ldr	x0, [x29, #32]
   8da5c:	91004000 	add	x0, x0, #0x10
   8da60:	39400001 	ldrb	w1, [x0]
   8da64:	d0000400 	adrp	x0, 10f000 <BitFont+0x788>
   8da68:	913cc000 	add	x0, x0, #0xf30
   8da6c:	39400000 	ldrb	w0, [x0]
   8da70:	6b00003f 	cmp	w1, w0
   8da74:	54000241 	b.ne	8dabc <CEcoVirtualMemory1Lab_623E1838_QueryInterface+0x9c8>  // b.any
   8da78:	f94013a0 	ldr	x0, [x29, #32]
   8da7c:	91004400 	add	x0, x0, #0x11
   8da80:	39400001 	ldrb	w1, [x0]
   8da84:	d0000400 	adrp	x0, 10f000 <BitFont+0x788>
   8da88:	913cc400 	add	x0, x0, #0xf31
   8da8c:	39400000 	ldrb	w0, [x0]
   8da90:	6b00003f 	cmp	w1, w0
   8da94:	54000141 	b.ne	8dabc <CEcoVirtualMemory1Lab_623E1838_QueryInterface+0x9c8>  // b.any
   8da98:	f9401fa1 	ldr	x1, [x29, #56]
   8da9c:	f9400fa0 	ldr	x0, [x29, #24]
   8daa0:	f9000001 	str	x1, [x0]
   8daa4:	f9401fa0 	ldr	x0, [x29, #56]
   8daa8:	f9400000 	ldr	x0, [x0]
   8daac:	f9400401 	ldr	x1, [x0, #8]
   8dab0:	f9401fa0 	ldr	x0, [x29, #56]
   8dab4:	d63f0020 	blr	x1
   8dab8:	14000005 	b	8dacc <CEcoVirtualMemory1Lab_623E1838_QueryInterface+0x9d8>
   8dabc:	f9400fa0 	ldr	x0, [x29, #24]
   8dac0:	f900001f 	str	xzr, [x0]
   8dac4:	12800000 	mov	w0, #0xffffffff            	// #-1
   8dac8:	14000002 	b	8dad0 <CEcoVirtualMemory1Lab_623E1838_QueryInterface+0x9dc>
   8dacc:	52800000 	mov	w0, #0x0                   	// #0
   8dad0:	a8c47bfd 	ldp	x29, x30, [sp], #64
   8dad4:	d65f03c0 	ret

000000000008dad8 <CEcoVirtualMemory1Lab_623E1838_AddRef>:
   8dad8:	d10083ff 	sub	sp, sp, #0x20
   8dadc:	f90007e0 	str	x0, [sp, #8]
   8dae0:	f94007e0 	ldr	x0, [sp, #8]
   8dae4:	d1004000 	sub	x0, x0, #0x10
   8dae8:	f9000fe0 	str	x0, [sp, #24]
   8daec:	f94007e0 	ldr	x0, [sp, #8]
   8daf0:	f100001f 	cmp	x0, #0x0
   8daf4:	54000061 	b.ne	8db00 <CEcoVirtualMemory1Lab_623E1838_AddRef+0x28>  // b.any
   8daf8:	12800000 	mov	w0, #0xffffffff            	// #-1
   8dafc:	14000008 	b	8db1c <CEcoVirtualMemory1Lab_623E1838_AddRef+0x44>
   8db00:	f9400fe0 	ldr	x0, [sp, #24]
   8db04:	b9401800 	ldr	w0, [x0, #24]
   8db08:	11000401 	add	w1, w0, #0x1
   8db0c:	f9400fe0 	ldr	x0, [sp, #24]
   8db10:	b9001801 	str	w1, [x0, #24]
   8db14:	f9400fe0 	ldr	x0, [sp, #24]
   8db18:	b9401800 	ldr	w0, [x0, #24]
   8db1c:	910083ff 	add	sp, sp, #0x20
   8db20:	d65f03c0 	ret

000000000008db24 <CEcoVirtualMemory1Lab_623E1838_Release>:
   8db24:	a9bd7bfd 	stp	x29, x30, [sp, #-48]!
   8db28:	910003fd 	mov	x29, sp
   8db2c:	f9000fa0 	str	x0, [x29, #24]
   8db30:	f9400fa0 	ldr	x0, [x29, #24]
   8db34:	d1004000 	sub	x0, x0, #0x10
   8db38:	f90017a0 	str	x0, [x29, #40]
   8db3c:	f9400fa0 	ldr	x0, [x29, #24]
   8db40:	f100001f 	cmp	x0, #0x0
   8db44:	54000061 	b.ne	8db50 <CEcoVirtualMemory1Lab_623E1838_Release+0x2c>  // b.any
   8db48:	12800000 	mov	w0, #0xffffffff            	// #-1
   8db4c:	14000010 	b	8db8c <CEcoVirtualMemory1Lab_623E1838_Release+0x68>
   8db50:	f94017a0 	ldr	x0, [x29, #40]
   8db54:	b9401800 	ldr	w0, [x0, #24]
   8db58:	51000401 	sub	w1, w0, #0x1
   8db5c:	f94017a0 	ldr	x0, [x29, #40]
   8db60:	b9001801 	str	w1, [x0, #24]
   8db64:	f94017a0 	ldr	x0, [x29, #40]
   8db68:	b9401800 	ldr	w0, [x0, #24]
   8db6c:	7100001f 	cmp	w0, #0x0
   8db70:	540000a1 	b.ne	8db84 <CEcoVirtualMemory1Lab_623E1838_Release+0x60>  // b.any
   8db74:	f94017a0 	ldr	x0, [x29, #40]
   8db78:	97fff93c 	bl	8c068 <deleteCEcoMemoryManager1Lab_623E1838>
   8db7c:	52800000 	mov	w0, #0x0                   	// #0
   8db80:	14000003 	b	8db8c <CEcoVirtualMemory1Lab_623E1838_Release+0x68>
   8db84:	f94017a0 	ldr	x0, [x29, #40]
   8db88:	b9401800 	ldr	w0, [x0, #24]
   8db8c:	a8c37bfd 	ldp	x29, x30, [sp], #48
   8db90:	d65f03c0 	ret

000000000008db94 <CEcoVirtualMemory1Lab_623E1838_Init>:
   8db94:	d10143ff 	sub	sp, sp, #0x50
   8db98:	a9017bfd 	stp	x29, x30, [sp, #16]
   8db9c:	910043fd 	add	x29, sp, #0x10
   8dba0:	f9000fa0 	str	x0, [x29, #24]
   8dba4:	f9400fa0 	ldr	x0, [x29, #24]
   8dba8:	d1004000 	sub	x0, x0, #0x10
   8dbac:	f9001fa0 	str	x0, [x29, #56]
   8dbb0:	a9027fbf 	stp	xzr, xzr, [x29, #32]
   8dbb4:	b90033bf 	str	wzr, [x29, #48]
   8dbb8:	f9401fa0 	ldr	x0, [x29, #56]
   8dbbc:	f9402400 	ldr	x0, [x0, #72]
   8dbc0:	f9400000 	ldr	x0, [x0]
   8dbc4:	f9401c08 	ldr	x8, [x0, #56]
   8dbc8:	f9401fa0 	ldr	x0, [x29, #56]
   8dbcc:	f9402400 	ldr	x0, [x0, #72]
   8dbd0:	910083a1 	add	x1, x29, #0x20
   8dbd4:	b90003ff 	str	wzr, [sp]
   8dbd8:	52800007 	mov	w7, #0x0                   	// #0
   8dbdc:	52800106 	mov	w6, #0x8                   	// #8
   8dbe0:	52800105 	mov	w5, #0x8                   	// #8
   8dbe4:	528000c4 	mov	w4, #0x6                   	// #6
   8dbe8:	72a00024 	movk	w4, #0x1, lsl #16
   8dbec:	528000a3 	mov	w3, #0x5                   	// #5
   8dbf0:	aa0103e2 	mov	x2, x1
   8dbf4:	52800101 	mov	w1, #0x8                   	// #8
   8dbf8:	d63f0100 	blr	x8
   8dbfc:	d2800020 	mov	x0, #0x1                   	// #1
   8dc00:	d5181000 	msr	sctlr_el1, x0
   8dc04:	52800000 	mov	w0, #0x0                   	// #0
   8dc08:	a9417bfd 	ldp	x29, x30, [sp, #16]
   8dc0c:	910143ff 	add	sp, sp, #0x50
   8dc10:	d65f03c0 	ret

000000000008dc14 <CEcoVirtualMemory1Lab_623E1838_AllocPage>:
   8dc14:	d10083ff 	sub	sp, sp, #0x20
   8dc18:	f90007e0 	str	x0, [sp, #8]
   8dc1c:	f9000bff 	str	xzr, [sp, #16]
   8dc20:	79003fff 	strh	wzr, [sp, #30]
   8dc24:	79003fff 	strh	wzr, [sp, #30]
   8dc28:	79c03fe1 	ldrsh	w1, [sp, #30]
   8dc2c:	f0000000 	adrp	x0, 90000 <impure_data+0x270>
   8dc30:	911e4000 	add	x0, x0, #0x790
   8dc34:	93407c21 	sxtw	x1, w1
   8dc38:	78617800 	ldrh	w0, [x0, x1, lsl #1]
   8dc3c:	7100001f 	cmp	w0, #0x0
   8dc40:	540001c1 	b.ne	8dc78 <CEcoVirtualMemory1Lab_623E1838_AllocPage+0x64>  // b.any
   8dc44:	79c03fe1 	ldrsh	w1, [sp, #30]
   8dc48:	f0000000 	adrp	x0, 90000 <impure_data+0x270>
   8dc4c:	911e4000 	add	x0, x0, #0x790
   8dc50:	93407c21 	sxtw	x1, w1
   8dc54:	52800022 	mov	w2, #0x1                   	// #1
   8dc58:	78217802 	strh	w2, [x0, x1, lsl #1]
   8dc5c:	79c03fe0 	ldrsh	w0, [sp, #30]
   8dc60:	11100000 	add	w0, w0, #0x400
   8dc64:	53144c00 	lsl	w0, w0, #12
   8dc68:	93407c00 	sxtw	x0, w0
   8dc6c:	f9000be0 	str	x0, [sp, #16]
   8dc70:	f9400be0 	ldr	x0, [sp, #16]
   8dc74:	14000007 	b	8dc90 <CEcoVirtualMemory1Lab_623E1838_AllocPage+0x7c>
   8dc78:	79c03fe0 	ldrsh	w0, [sp, #30]
   8dc7c:	12003c00 	and	w0, w0, #0xffff
   8dc80:	11000400 	add	w0, w0, #0x1
   8dc84:	12003c00 	and	w0, w0, #0xffff
   8dc88:	79003fe0 	strh	w0, [sp, #30]
   8dc8c:	17ffffe7 	b	8dc28 <CEcoVirtualMemory1Lab_623E1838_AllocPage+0x14>
   8dc90:	910083ff 	add	sp, sp, #0x20
   8dc94:	d65f03c0 	ret

000000000008dc98 <CEcoVirtualMemory1Lab_623E1838_FreePage>:
   8dc98:	d10043ff 	sub	sp, sp, #0x10
   8dc9c:	f90007e0 	str	x0, [sp, #8]
   8dca0:	f90003e1 	str	x1, [sp]
   8dca4:	f94003e0 	ldr	x0, [sp]
   8dca8:	d1500000 	sub	x0, x0, #0x400, lsl #12
   8dcac:	d34cfc01 	lsr	x1, x0, #12
   8dcb0:	f0000000 	adrp	x0, 90000 <impure_data+0x270>
   8dcb4:	911e4000 	add	x0, x0, #0x790
   8dcb8:	7821781f 	strh	wzr, [x0, x1, lsl #1]
   8dcbc:	d503201f 	nop
   8dcc0:	910043ff 	add	sp, sp, #0x10
   8dcc4:	d65f03c0 	ret

000000000008dcc8 <CEcoVirtualMemory1Lab_623E1838_MapTable>:
   8dcc8:	d10043ff 	sub	sp, sp, #0x10
   8dccc:	f90007e0 	str	x0, [sp, #8]
   8dcd0:	f90003e1 	str	x1, [sp]
   8dcd4:	d503201f 	nop
   8dcd8:	910043ff 	add	sp, sp, #0x10
   8dcdc:	d65f03c0 	ret

000000000008dce0 <CEcoVirtualMemory1Lab_623E1838_MapPage>:
   8dce0:	d10083ff 	sub	sp, sp, #0x20
   8dce4:	f9000fe0 	str	x0, [sp, #24]
   8dce8:	f9000be1 	str	x1, [sp, #16]
   8dcec:	f90007e2 	str	x2, [sp, #8]
   8dcf0:	d503201f 	nop
   8dcf4:	910083ff 	add	sp, sp, #0x20
   8dcf8:	d65f03c0 	ret

000000000008dcfc <CEcoVirtualMemory1Lab_623E1838_Alloc>:
   8dcfc:	a9bd7bfd 	stp	x29, x30, [sp, #-48]!
   8dd00:	910003fd 	mov	x29, sp
   8dd04:	f9000fa0 	str	x0, [x29, #24]
   8dd08:	f9000ba1 	str	x1, [x29, #16]
   8dd0c:	f90017bf 	str	xzr, [x29, #40]
   8dd10:	f9400fa0 	ldr	x0, [x29, #24]
   8dd14:	97ffffc0 	bl	8dc14 <CEcoVirtualMemory1Lab_623E1838_AllocPage>
   8dd18:	f90017a0 	str	x0, [x29, #40]
   8dd1c:	f94017a0 	ldr	x0, [x29, #40]
   8dd20:	f100001f 	cmp	x0, #0x0
   8dd24:	54000061 	b.ne	8dd30 <CEcoVirtualMemory1Lab_623E1838_Alloc+0x34>  // b.any
   8dd28:	d2800000 	mov	x0, #0x0                   	// #0
   8dd2c:	14000008 	b	8dd4c <CEcoVirtualMemory1Lab_623E1838_Alloc+0x50>
   8dd30:	f94017a2 	ldr	x2, [x29, #40]
   8dd34:	f9400ba1 	ldr	x1, [x29, #16]
   8dd38:	f9400fa0 	ldr	x0, [x29, #24]
   8dd3c:	97ffffe9 	bl	8dce0 <CEcoVirtualMemory1Lab_623E1838_MapPage>
   8dd40:	f94017a1 	ldr	x1, [x29, #40]
   8dd44:	d2ffffe0 	mov	x0, #0xffff000000000000    	// #-281474976710656
   8dd48:	8b000020 	add	x0, x1, x0
   8dd4c:	a8c37bfd 	ldp	x29, x30, [sp], #48
   8dd50:	d65f03c0 	ret

000000000008dd54 <CEcoVirtualMemory1Lab_623E1838_Free>:
   8dd54:	d10043ff 	sub	sp, sp, #0x10
   8dd58:	f90007e0 	str	x0, [sp, #8]
   8dd5c:	f90003e1 	str	x1, [sp]
   8dd60:	d503201f 	nop
   8dd64:	910043ff 	add	sp, sp, #0x10
   8dd68:	d65f03c0 	ret

000000000008dd6c <CEcoVirtualMemory1Lab_623E1838_PageFault>:
   8dd6c:	a9bd7bfd 	stp	x29, x30, [sp, #-48]!
   8dd70:	910003fd 	mov	x29, sp
   8dd74:	f9000fa0 	str	x0, [x29, #24]
   8dd78:	f9000ba1 	str	x1, [x29, #16]
   8dd7c:	f9400ba0 	ldr	x0, [x29, #16]
   8dd80:	92401400 	and	x0, x0, #0x3f
   8dd84:	f90017a0 	str	x0, [x29, #40]
   8dd88:	f94017a0 	ldr	x0, [x29, #40]
   8dd8c:	927e0c00 	and	x0, x0, #0x3c
   8dd90:	f100101f 	cmp	x0, #0x4
   8dd94:	540002c1 	b.ne	8ddec <CEcoVirtualMemory1Lab_623E1838_PageFault+0x80>  // b.any
   8dd98:	f0000000 	adrp	x0, 90000 <impure_data+0x270>
   8dd9c:	911b8000 	add	x0, x0, #0x6e0
   8dda0:	f9400800 	ldr	x0, [x0, #16]
   8dda4:	97ffff9c 	bl	8dc14 <CEcoVirtualMemory1Lab_623E1838_AllocPage>
   8dda8:	f90013a0 	str	x0, [x29, #32]
   8ddac:	f94013a0 	ldr	x0, [x29, #32]
   8ddb0:	f100001f 	cmp	x0, #0x0
   8ddb4:	54000061 	b.ne	8ddc0 <CEcoVirtualMemory1Lab_623E1838_PageFault+0x54>  // b.any
   8ddb8:	12800000 	mov	w0, #0xffffffff            	// #-1
   8ddbc:	1400000d 	b	8ddf0 <CEcoVirtualMemory1Lab_623E1838_PageFault+0x84>
   8ddc0:	f0000000 	adrp	x0, 90000 <impure_data+0x270>
   8ddc4:	911b8000 	add	x0, x0, #0x6e0
   8ddc8:	f9400803 	ldr	x3, [x0, #16]
   8ddcc:	f9400fa0 	ldr	x0, [x29, #24]
   8ddd0:	9274cc00 	and	x0, x0, #0xfffffffffffff000
   8ddd4:	f94013a2 	ldr	x2, [x29, #32]
   8ddd8:	aa0003e1 	mov	x1, x0
   8dddc:	aa0303e0 	mov	x0, x3
   8dde0:	97ffffc0 	bl	8dce0 <CEcoVirtualMemory1Lab_623E1838_MapPage>
   8dde4:	52800000 	mov	w0, #0x0                   	// #0
   8dde8:	14000002 	b	8ddf0 <CEcoVirtualMemory1Lab_623E1838_PageFault+0x84>
   8ddec:	12800000 	mov	w0, #0xffffffff            	// #-1
   8ddf0:	a8c37bfd 	ldp	x29, x30, [sp], #48
   8ddf4:	d65f03c0 	ret

000000000008ddf8 <malloc>:
   8ddf8:	d0000002 	adrp	x2, 8f000 <g_x939B1DCDB6404F7D9C072291AF252188Factory+0xa0>
   8ddfc:	aa0003e1 	mov	x1, x0
   8de00:	f946c440 	ldr	x0, [x2, #3464]
   8de04:	14000005 	b	8de18 <_malloc_r>

000000000008de08 <free>:
   8de08:	d0000002 	adrp	x2, 8f000 <g_x939B1DCDB6404F7D9C072291AF252188Factory+0xa0>
   8de0c:	aa0003e1 	mov	x1, x0
   8de10:	f946c440 	ldr	x0, [x2, #3464]
   8de14:	1400026d 	b	8e7c8 <_free_r>

000000000008de18 <_malloc_r>:
   8de18:	a9ba7bfd 	stp	x29, x30, [sp, #-96]!
   8de1c:	910003fd 	mov	x29, sp
   8de20:	a90153f3 	stp	x19, x20, [sp, #16]
   8de24:	91005c34 	add	x20, x1, #0x17
   8de28:	a9025bf5 	stp	x21, x22, [sp, #32]
   8de2c:	f100ba9f 	cmp	x20, #0x2e
   8de30:	aa0003f6 	mov	x22, x0
   8de34:	54000408 	b.hi	8deb4 <_malloc_r+0x9c>  // b.pmore
   8de38:	f100803f 	cmp	x1, #0x20
   8de3c:	540014c8 	b.hi	8e0d4 <_malloc_r+0x2bc>  // b.pmore
   8de40:	94000206 	bl	8e658 <__malloc_lock>
   8de44:	d2800414 	mov	x20, #0x20                  	// #32
   8de48:	d2800a01 	mov	x1, #0x50                  	// #80
   8de4c:	52800084 	mov	w4, #0x4                   	// #4
   8de50:	d0000015 	adrp	x21, 8f000 <g_x939B1DCDB6404F7D9C072291AF252188Factory+0xa0>
   8de54:	9115a2a0 	add	x0, x21, #0x568
   8de58:	8b010000 	add	x0, x0, x1
   8de5c:	11000884 	add	w4, w4, #0x2
   8de60:	d1004000 	sub	x0, x0, #0x10
   8de64:	f9400c01 	ldr	x1, [x0, #24]
   8de68:	eb00003f 	cmp	x1, x0
   8de6c:	54000740 	b.eq	8df54 <_malloc_r+0x13c>  // b.none
   8de70:	a9409022 	ldp	x2, x4, [x1, #8]
   8de74:	91004033 	add	x19, x1, #0x10
   8de78:	f9400c23 	ldr	x3, [x1, #24]
   8de7c:	aa1603e0 	mov	x0, x22
   8de80:	927ef442 	and	x2, x2, #0xfffffffffffffffc
   8de84:	8b020021 	add	x1, x1, x2
   8de88:	f9400422 	ldr	x2, [x1, #8]
   8de8c:	f9000c83 	str	x3, [x4, #24]
   8de90:	b2400042 	orr	x2, x2, #0x1
   8de94:	f9000864 	str	x4, [x3, #16]
   8de98:	f9000422 	str	x2, [x1, #8]
   8de9c:	940001f1 	bl	8e660 <__malloc_unlock>
   8dea0:	aa1303e0 	mov	x0, x19
   8dea4:	a94153f3 	ldp	x19, x20, [sp, #16]
   8dea8:	a9425bf5 	ldp	x21, x22, [sp, #32]
   8deac:	a8c67bfd 	ldp	x29, x30, [sp], #96
   8deb0:	d65f03c0 	ret
   8deb4:	927cee94 	and	x20, x20, #0xfffffffffffffff0
   8deb8:	b2407be2 	mov	x2, #0x7fffffff            	// #2147483647
   8debc:	eb02029f 	cmp	x20, x2
   8dec0:	fa549022 	ccmp	x1, x20, #0x2, ls  // ls = plast
   8dec4:	54001088 	b.hi	8e0d4 <_malloc_r+0x2bc>  // b.pmore
   8dec8:	940001e4 	bl	8e658 <__malloc_lock>
   8decc:	f107de9f 	cmp	x20, #0x1f7
   8ded0:	54002549 	b.ls	8e378 <_malloc_r+0x560>  // b.plast
   8ded4:	d349fe80 	lsr	x0, x20, #9
   8ded8:	b4000140 	cbz	x0, 8df00 <_malloc_r+0xe8>
   8dedc:	f100101f 	cmp	x0, #0x4
   8dee0:	54000ee9 	b.ls	8e0bc <_malloc_r+0x2a4>  // b.plast
   8dee4:	f100501f 	cmp	x0, #0x14
   8dee8:	54002dc8 	b.hi	8e4a0 <_malloc_r+0x688>  // b.pmore
   8deec:	11017004 	add	w4, w0, #0x5c
   8def0:	11016c05 	add	w5, w0, #0x5b
   8def4:	531f7880 	lsl	w0, w4, #1
   8def8:	937d7c00 	sbfiz	x0, x0, #3, #32
   8defc:	14000004 	b	8df0c <_malloc_r+0xf4>
   8df00:	d2808000 	mov	x0, #0x400                 	// #1024
   8df04:	52800804 	mov	w4, #0x40                  	// #64
   8df08:	528007e5 	mov	w5, #0x3f                  	// #63
   8df0c:	d0000015 	adrp	x21, 8f000 <g_x939B1DCDB6404F7D9C072291AF252188Factory+0xa0>
   8df10:	9115a2a3 	add	x3, x21, #0x568
   8df14:	8b000063 	add	x3, x3, x0
   8df18:	d1004063 	sub	x3, x3, #0x10
   8df1c:	f9400c61 	ldr	x1, [x3, #24]
   8df20:	eb01007f 	cmp	x3, x1
   8df24:	540000c1 	b.ne	8df3c <_malloc_r+0x124>  // b.any
   8df28:	1400000b 	b	8df54 <_malloc_r+0x13c>
   8df2c:	b6f81e82 	tbz	x2, #63, 8e2fc <_malloc_r+0x4e4>
   8df30:	f9400c21 	ldr	x1, [x1, #24]
   8df34:	eb01007f 	cmp	x3, x1
   8df38:	540000e0 	b.eq	8df54 <_malloc_r+0x13c>  // b.none
   8df3c:	f9400420 	ldr	x0, [x1, #8]
   8df40:	927ef400 	and	x0, x0, #0xfffffffffffffffc
   8df44:	cb140002 	sub	x2, x0, x20
   8df48:	f1007c5f 	cmp	x2, #0x1f
   8df4c:	54ffff0d 	b.le	8df2c <_malloc_r+0x114>
   8df50:	2a0503e4 	mov	w4, w5
   8df54:	9115a2a0 	add	x0, x21, #0x568
   8df58:	91004003 	add	x3, x0, #0x10
   8df5c:	f9401001 	ldr	x1, [x0, #32]
   8df60:	eb03003f 	cmp	x1, x3
   8df64:	54000c80 	b.eq	8e0f4 <_malloc_r+0x2dc>  // b.none
   8df68:	f9400422 	ldr	x2, [x1, #8]
   8df6c:	927ef442 	and	x2, x2, #0xfffffffffffffffc
   8df70:	cb140045 	sub	x5, x2, x20
   8df74:	f1007cbf 	cmp	x5, #0x1f
   8df78:	54001e0c 	b.gt	8e338 <_malloc_r+0x520>
   8df7c:	a9020c03 	stp	x3, x3, [x0, #32]
   8df80:	b6f80865 	tbz	x5, #63, 8e08c <_malloc_r+0x274>
   8df84:	f107fc5f 	cmp	x2, #0x1ff
   8df88:	54002548 	b.hi	8e430 <_malloc_r+0x618>  // b.pmore
   8df8c:	d343fc45 	lsr	x5, x2, #3
   8df90:	f9400406 	ldr	x6, [x0, #8]
   8df94:	110004a3 	add	w3, w5, #0x1
   8df98:	d2800022 	mov	x2, #0x1                   	// #1
   8df9c:	13027ca5 	asr	w5, w5, #2
   8dfa0:	531f7863 	lsl	w3, w3, #1
   8dfa4:	9ac52042 	lsl	x2, x2, x5
   8dfa8:	aa060042 	orr	x2, x2, x6
   8dfac:	8b23cc03 	add	x3, x0, w3, sxtw #3
   8dfb0:	f9000402 	str	x2, [x0, #8]
   8dfb4:	f85f0460 	ldr	x0, [x3], #-16
   8dfb8:	a9010c20 	stp	x0, x3, [x1, #16]
   8dfbc:	f9000861 	str	x1, [x3, #16]
   8dfc0:	f9000c01 	str	x1, [x0, #24]
   8dfc4:	13027c81 	asr	w1, w4, #2
   8dfc8:	d2800020 	mov	x0, #0x1                   	// #1
   8dfcc:	9ac12000 	lsl	x0, x0, x1
   8dfd0:	eb02001f 	cmp	x0, x2
   8dfd4:	540009c8 	b.hi	8e10c <_malloc_r+0x2f4>  // b.pmore
   8dfd8:	ea02001f 	tst	x0, x2
   8dfdc:	540000e1 	b.ne	8dff8 <_malloc_r+0x1e0>  // b.any
   8dfe0:	121e7484 	and	w4, w4, #0xfffffffc
   8dfe4:	d503201f 	nop
   8dfe8:	d37ff800 	lsl	x0, x0, #1
   8dfec:	11001084 	add	w4, w4, #0x4
   8dff0:	ea02001f 	tst	x0, x2
   8dff4:	54ffffa0 	b.eq	8dfe8 <_malloc_r+0x1d0>  // b.none
   8dff8:	9115a2a8 	add	x8, x21, #0x568
   8dffc:	11000486 	add	w6, w4, #0x1
   8e000:	2a0403e7 	mov	w7, w4
   8e004:	531f78c6 	lsl	w6, w6, #1
   8e008:	8b26cd06 	add	x6, x8, w6, sxtw #3
   8e00c:	d10040c6 	sub	x6, x6, #0x10
   8e010:	aa0603e5 	mov	x5, x6
   8e014:	f9400ca1 	ldr	x1, [x5, #24]
   8e018:	eb0100bf 	cmp	x5, x1
   8e01c:	540000c1 	b.ne	8e034 <_malloc_r+0x21c>  // b.any
   8e020:	140000db 	b	8e38c <_malloc_r+0x574>
   8e024:	b6f81ee3 	tbz	x3, #63, 8e400 <_malloc_r+0x5e8>
   8e028:	f9400c21 	ldr	x1, [x1, #24]
   8e02c:	eb0100bf 	cmp	x5, x1
   8e030:	54001ae0 	b.eq	8e38c <_malloc_r+0x574>  // b.none
   8e034:	f9400422 	ldr	x2, [x1, #8]
   8e038:	927ef442 	and	x2, x2, #0xfffffffffffffffc
   8e03c:	cb140043 	sub	x3, x2, x20
   8e040:	f1007c7f 	cmp	x3, #0x1f
   8e044:	54ffff0d 	b.le	8e024 <_malloc_r+0x20c>
   8e048:	a9411025 	ldp	x5, x4, [x1, #16]
   8e04c:	9115a2b5 	add	x21, x21, #0x568
   8e050:	b2400280 	orr	x0, x20, #0x1
   8e054:	f9000420 	str	x0, [x1, #8]
   8e058:	f9000ca4 	str	x4, [x5, #24]
   8e05c:	8b140034 	add	x20, x1, x20
   8e060:	f9000885 	str	x5, [x4, #16]
   8e064:	910042a0 	add	x0, x21, #0x10
   8e068:	a90252b4 	stp	x20, x20, [x21, #32]
   8e06c:	b2400064 	orr	x4, x3, #0x1
   8e070:	a9008284 	stp	x4, x0, [x20, #8]
   8e074:	91004033 	add	x19, x1, #0x10
   8e078:	f9000e80 	str	x0, [x20, #24]
   8e07c:	aa1603e0 	mov	x0, x22
   8e080:	f8226823 	str	x3, [x1, x2]
   8e084:	94000177 	bl	8e660 <__malloc_unlock>
   8e088:	17ffff86 	b	8dea0 <_malloc_r+0x88>
   8e08c:	8b020022 	add	x2, x1, x2
   8e090:	91004033 	add	x19, x1, #0x10
   8e094:	aa1603e0 	mov	x0, x22
   8e098:	f9400441 	ldr	x1, [x2, #8]
   8e09c:	b2400021 	orr	x1, x1, #0x1
   8e0a0:	f9000441 	str	x1, [x2, #8]
   8e0a4:	9400016f 	bl	8e660 <__malloc_unlock>
   8e0a8:	aa1303e0 	mov	x0, x19
   8e0ac:	a94153f3 	ldp	x19, x20, [sp, #16]
   8e0b0:	a9425bf5 	ldp	x21, x22, [sp, #32]
   8e0b4:	a8c67bfd 	ldp	x29, x30, [sp], #96
   8e0b8:	d65f03c0 	ret
   8e0bc:	d346fe80 	lsr	x0, x20, #6
   8e0c0:	1100e404 	add	w4, w0, #0x39
   8e0c4:	1100e005 	add	w5, w0, #0x38
   8e0c8:	531f7883 	lsl	w3, w4, #1
   8e0cc:	937d7c60 	sbfiz	x0, x3, #3, #32
   8e0d0:	17ffff8f 	b	8df0c <_malloc_r+0xf4>
   8e0d4:	52800180 	mov	w0, #0xc                   	// #12
   8e0d8:	b90002c0 	str	w0, [x22]
   8e0dc:	d2800013 	mov	x19, #0x0                   	// #0
   8e0e0:	aa1303e0 	mov	x0, x19
   8e0e4:	a94153f3 	ldp	x19, x20, [sp, #16]
   8e0e8:	a9425bf5 	ldp	x21, x22, [sp, #32]
   8e0ec:	a8c67bfd 	ldp	x29, x30, [sp], #96
   8e0f0:	d65f03c0 	ret
   8e0f4:	f9400402 	ldr	x2, [x0, #8]
   8e0f8:	13027c81 	asr	w1, w4, #2
   8e0fc:	d2800020 	mov	x0, #0x1                   	// #1
   8e100:	9ac12000 	lsl	x0, x0, x1
   8e104:	eb02001f 	cmp	x0, x2
   8e108:	54fff689 	b.ls	8dfd8 <_malloc_r+0x1c0>  // b.plast
   8e10c:	f90023b9 	str	x25, [x29, #64]
   8e110:	9115a2b9 	add	x25, x21, #0x568
   8e114:	f9001bb7 	str	x23, [x29, #48]
   8e118:	f9400b33 	ldr	x19, [x25, #16]
   8e11c:	f9400677 	ldr	x23, [x19, #8]
   8e120:	927ef6f7 	and	x23, x23, #0xfffffffffffffffc
   8e124:	eb1402e0 	subs	x0, x23, x20
   8e128:	fa5f2804 	ccmp	x0, #0x1f, #0x4, cs  // cs = hs, nlast
   8e12c:	54000c6c 	b.gt	8e2b8 <_malloc_r+0x4a0>
   8e130:	a904efba 	stp	x26, x27, [x29, #72]
   8e134:	f00003fa 	adrp	x26, 10d000 <EcoVirtualMemory1Lab_623E1838_MemoryMap+0x7c870>
   8e138:	f9440b22 	ldr	x2, [x25, #2064]
   8e13c:	aa1603e0 	mov	x0, x22
   8e140:	f947cb41 	ldr	x1, [x26, #3984]
   8e144:	b100045f 	cmn	x2, #0x1
   8e148:	f9001fb8 	str	x24, [x29, #56]
   8e14c:	8b010281 	add	x1, x20, x1
   8e150:	d28203e2 	mov	x2, #0x101f                	// #4127
   8e154:	8b020038 	add	x24, x1, x2
   8e158:	91008021 	add	x1, x1, #0x20
   8e15c:	9274cf18 	and	x24, x24, #0xfffffffffffff000
   8e160:	9a811318 	csel	x24, x24, x1, ne  // ne = any
   8e164:	aa1803e1 	mov	x1, x24
   8e168:	94000140 	bl	8e668 <_sbrk_r>
   8e16c:	aa0003fb 	mov	x27, x0
   8e170:	b100041f 	cmn	x0, #0x1
   8e174:	54001b40 	b.eq	8e4dc <_malloc_r+0x6c4>  // b.none
   8e178:	8b170261 	add	x1, x19, x23
   8e17c:	eb00003f 	cmp	x1, x0
   8e180:	54001aa8 	b.hi	8e4d4 <_malloc_r+0x6bc>  // b.pmore
   8e184:	913e4342 	add	x2, x26, #0xf90
   8e188:	b9400840 	ldr	w0, [x2, #8]
   8e18c:	0b180000 	add	w0, w0, w24
   8e190:	b9000840 	str	w0, [x2, #8]
   8e194:	2a0003e2 	mov	w2, w0
   8e198:	54001e00 	b.eq	8e558 <_malloc_r+0x740>  // b.none
   8e19c:	9115a2a0 	add	x0, x21, #0x568
   8e1a0:	f9440803 	ldr	x3, [x0, #2064]
   8e1a4:	b100047f 	cmn	x3, #0x1
   8e1a8:	54002080 	b.eq	8e5b8 <_malloc_r+0x7a0>  // b.none
   8e1ac:	913e4340 	add	x0, x26, #0xf90
   8e1b0:	cb010361 	sub	x1, x27, x1
   8e1b4:	0b010041 	add	w1, w2, w1
   8e1b8:	b9000801 	str	w1, [x0, #8]
   8e1bc:	d2820001 	mov	x1, #0x1000                	// #4096
   8e1c0:	f2400f60 	ands	x0, x27, #0xf
   8e1c4:	540000a0 	b.eq	8e1d8 <_malloc_r+0x3c0>  // b.none
   8e1c8:	cb00037b 	sub	x27, x27, x0
   8e1cc:	d2820201 	mov	x1, #0x1010                	// #4112
   8e1d0:	9100437b 	add	x27, x27, #0x10
   8e1d4:	cb000021 	sub	x1, x1, x0
   8e1d8:	8b180378 	add	x24, x27, x24
   8e1dc:	aa1603e0 	mov	x0, x22
   8e1e0:	92402f18 	and	x24, x24, #0xfff
   8e1e4:	cb180038 	sub	x24, x1, x24
   8e1e8:	aa1803e1 	mov	x1, x24
   8e1ec:	9400011f 	bl	8e668 <_sbrk_r>
   8e1f0:	b100041f 	cmn	x0, #0x1
   8e1f4:	54001e60 	b.eq	8e5c0 <_malloc_r+0x7a8>  // b.none
   8e1f8:	cb1b0001 	sub	x1, x0, x27
   8e1fc:	2a1803e0 	mov	w0, w24
   8e200:	8b180021 	add	x1, x1, x24
   8e204:	b2400021 	orr	x1, x1, #0x1
   8e208:	913e4358 	add	x24, x26, #0xf90
   8e20c:	9115a2a2 	add	x2, x21, #0x568
   8e210:	eb02027f 	cmp	x19, x2
   8e214:	b9400b03 	ldr	w3, [x24, #8]
   8e218:	f900085b 	str	x27, [x2, #16]
   8e21c:	0b030000 	add	w0, w0, w3
   8e220:	f9000761 	str	x1, [x27, #8]
   8e224:	b9000b00 	str	w0, [x24, #8]
   8e228:	540001e0 	b.eq	8e264 <_malloc_r+0x44c>  // b.none
   8e22c:	f1007eff 	cmp	x23, #0x1f
   8e230:	54001b29 	b.ls	8e594 <_malloc_r+0x77c>  // b.plast
   8e234:	d10062e1 	sub	x1, x23, #0x18
   8e238:	f9400662 	ldr	x2, [x19, #8]
   8e23c:	927cec21 	and	x1, x1, #0xfffffffffffffff0
   8e240:	d2800124 	mov	x4, #0x9                   	// #9
   8e244:	8b010263 	add	x3, x19, x1
   8e248:	92400042 	and	x2, x2, #0x1
   8e24c:	aa010042 	orr	x2, x2, x1
   8e250:	f9000662 	str	x2, [x19, #8]
   8e254:	f1007c3f 	cmp	x1, #0x1f
   8e258:	f8008c64 	str	x4, [x3, #8]!
   8e25c:	f9000464 	str	x4, [x3, #8]
   8e260:	54001d88 	b.hi	8e610 <_malloc_r+0x7f8>  // b.pmore
   8e264:	913e4341 	add	x1, x26, #0xf90
   8e268:	93407c00 	sxtw	x0, w0
   8e26c:	f9401822 	ldr	x2, [x1, #48]
   8e270:	eb02001f 	cmp	x0, x2
   8e274:	54000049 	b.ls	8e27c <_malloc_r+0x464>  // b.plast
   8e278:	f9001820 	str	x0, [x1, #48]
   8e27c:	9115a2a1 	add	x1, x21, #0x568
   8e280:	913e435a 	add	x26, x26, #0xf90
   8e284:	f9400833 	ldr	x19, [x1, #16]
   8e288:	f9401f41 	ldr	x1, [x26, #56]
   8e28c:	eb01001f 	cmp	x0, x1
   8e290:	f9400661 	ldr	x1, [x19, #8]
   8e294:	927ef421 	and	x1, x1, #0xfffffffffffffffc
   8e298:	54000049 	b.ls	8e2a0 <_malloc_r+0x488>  // b.plast
   8e29c:	f9001f40 	str	x0, [x26, #56]
   8e2a0:	cb140020 	sub	x0, x1, x20
   8e2a4:	eb01029f 	cmp	x20, x1
   8e2a8:	fa5f9804 	ccmp	x0, #0x1f, #0x4, ls  // ls = plast
   8e2ac:	5400178d 	b.le	8e59c <_malloc_r+0x784>
   8e2b0:	f9401fb8 	ldr	x24, [x29, #56]
   8e2b4:	a944efba 	ldp	x26, x27, [x29, #72]
   8e2b8:	9115a2b5 	add	x21, x21, #0x568
   8e2bc:	8b140262 	add	x2, x19, x20
   8e2c0:	b2400294 	orr	x20, x20, #0x1
   8e2c4:	f9000674 	str	x20, [x19, #8]
   8e2c8:	b2400001 	orr	x1, x0, #0x1
   8e2cc:	f9000aa2 	str	x2, [x21, #16]
   8e2d0:	aa1603e0 	mov	x0, x22
   8e2d4:	f9000441 	str	x1, [x2, #8]
   8e2d8:	91004273 	add	x19, x19, #0x10
   8e2dc:	940000e1 	bl	8e660 <__malloc_unlock>
   8e2e0:	f9401bb7 	ldr	x23, [x29, #48]
   8e2e4:	aa1303e0 	mov	x0, x19
   8e2e8:	f94023b9 	ldr	x25, [x29, #64]
   8e2ec:	a94153f3 	ldp	x19, x20, [sp, #16]
   8e2f0:	a9425bf5 	ldp	x21, x22, [sp, #32]
   8e2f4:	a8c67bfd 	ldp	x29, x30, [sp], #96
   8e2f8:	d65f03c0 	ret
   8e2fc:	8b000022 	add	x2, x1, x0
   8e300:	91004033 	add	x19, x1, #0x10
   8e304:	a9410c24 	ldp	x4, x3, [x1, #16]
   8e308:	aa1603e0 	mov	x0, x22
   8e30c:	f9400441 	ldr	x1, [x2, #8]
   8e310:	f9000c83 	str	x3, [x4, #24]
   8e314:	b2400021 	orr	x1, x1, #0x1
   8e318:	f9000864 	str	x4, [x3, #16]
   8e31c:	f9000441 	str	x1, [x2, #8]
   8e320:	940000d0 	bl	8e660 <__malloc_unlock>
   8e324:	aa1303e0 	mov	x0, x19
   8e328:	a94153f3 	ldp	x19, x20, [sp, #16]
   8e32c:	a9425bf5 	ldp	x21, x22, [sp, #32]
   8e330:	a8c67bfd 	ldp	x29, x30, [sp], #96
   8e334:	d65f03c0 	ret
   8e338:	8b140024 	add	x4, x1, x20
   8e33c:	b2400294 	orr	x20, x20, #0x1
   8e340:	f9000434 	str	x20, [x1, #8]
   8e344:	b24000a6 	orr	x6, x5, #0x1
   8e348:	a9021004 	stp	x4, x4, [x0, #32]
   8e34c:	91004033 	add	x19, x1, #0x10
   8e350:	a9008c86 	stp	x6, x3, [x4, #8]
   8e354:	aa1603e0 	mov	x0, x22
   8e358:	f9000c83 	str	x3, [x4, #24]
   8e35c:	f8226825 	str	x5, [x1, x2]
   8e360:	940000c0 	bl	8e660 <__malloc_unlock>
   8e364:	aa1303e0 	mov	x0, x19
   8e368:	a94153f3 	ldp	x19, x20, [sp, #16]
   8e36c:	a9425bf5 	ldp	x21, x22, [sp, #32]
   8e370:	a8c67bfd 	ldp	x29, x30, [sp], #96
   8e374:	d65f03c0 	ret
   8e378:	d343fe84 	lsr	x4, x20, #3
   8e37c:	11000480 	add	w0, w4, #0x1
   8e380:	531f7800 	lsl	w0, w0, #1
   8e384:	937d7c01 	sbfiz	x1, x0, #3, #32
   8e388:	17fffeb2 	b	8de50 <_malloc_r+0x38>
   8e38c:	110004e1 	add	w1, w7, #0x1
   8e390:	7100f8ff 	cmp	w7, #0x3e
   8e394:	540009ad 	b.le	8e4c8 <_malloc_r+0x6b0>
   8e398:	910040a5 	add	x5, x5, #0x10
   8e39c:	2a0103e7 	mov	w7, w1
   8e3a0:	f24004ff 	tst	x7, #0x3
   8e3a4:	54ffe381 	b.ne	8e014 <_malloc_r+0x1fc>  // b.any
   8e3a8:	14000005 	b	8e3bc <_malloc_r+0x5a4>
   8e3ac:	f85f0426 	ldr	x6, [x1], #-16
   8e3b0:	51000484 	sub	w4, w4, #0x1
   8e3b4:	eb0100df 	cmp	x6, x1
   8e3b8:	540014c1 	b.ne	8e650 <_malloc_r+0x838>  // b.any
   8e3bc:	aa0603e1 	mov	x1, x6
   8e3c0:	f240049f 	tst	x4, #0x3
   8e3c4:	54ffff41 	b.ne	8e3ac <_malloc_r+0x594>  // b.any
   8e3c8:	f9400501 	ldr	x1, [x8, #8]
   8e3cc:	8a200021 	bic	x1, x1, x0
   8e3d0:	f9000501 	str	x1, [x8, #8]
   8e3d4:	d37ff800 	lsl	x0, x0, #1
   8e3d8:	f100001f 	cmp	x0, #0x0
   8e3dc:	fa411002 	ccmp	x0, x1, #0x2, ne  // ne = any
   8e3e0:	54000089 	b.ls	8e3f0 <_malloc_r+0x5d8>  // b.plast
   8e3e4:	17ffff4a 	b	8e10c <_malloc_r+0x2f4>
   8e3e8:	d37ff800 	lsl	x0, x0, #1
   8e3ec:	110010e7 	add	w7, w7, #0x4
   8e3f0:	ea01001f 	tst	x0, x1
   8e3f4:	54ffffa0 	b.eq	8e3e8 <_malloc_r+0x5d0>  // b.none
   8e3f8:	2a0703e4 	mov	w4, w7
   8e3fc:	17ffff00 	b	8dffc <_malloc_r+0x1e4>
   8e400:	8b020022 	add	x2, x1, x2
   8e404:	aa0103f3 	mov	x19, x1
   8e408:	f9400c23 	ldr	x3, [x1, #24]
   8e40c:	aa1603e0 	mov	x0, x22
   8e410:	f9400441 	ldr	x1, [x2, #8]
   8e414:	f8410e64 	ldr	x4, [x19, #16]!
   8e418:	b2400021 	orr	x1, x1, #0x1
   8e41c:	f9000441 	str	x1, [x2, #8]
   8e420:	f9000c83 	str	x3, [x4, #24]
   8e424:	f9000864 	str	x4, [x3, #16]
   8e428:	9400008e 	bl	8e660 <__malloc_unlock>
   8e42c:	17fffe9d 	b	8dea0 <_malloc_r+0x88>
   8e430:	d349fc40 	lsr	x0, x2, #9
   8e434:	f100101f 	cmp	x0, #0x4
   8e438:	540005a9 	b.ls	8e4ec <_malloc_r+0x6d4>  // b.plast
   8e43c:	f100501f 	cmp	x0, #0x14
   8e440:	540007c8 	b.hi	8e538 <_malloc_r+0x720>  // b.pmore
   8e444:	11017005 	add	w5, w0, #0x5c
   8e448:	11016c03 	add	w3, w0, #0x5b
   8e44c:	531f78a5 	lsl	w5, w5, #1
   8e450:	937d7ca5 	sbfiz	x5, x5, #3, #32
   8e454:	9115a2a6 	add	x6, x21, #0x568
   8e458:	8b0500c5 	add	x5, x6, x5
   8e45c:	f85f04a0 	ldr	x0, [x5], #-16
   8e460:	eb0000bf 	cmp	x5, x0
   8e464:	540005c0 	b.eq	8e51c <_malloc_r+0x704>  // b.none
   8e468:	f9400403 	ldr	x3, [x0, #8]
   8e46c:	927ef463 	and	x3, x3, #0xfffffffffffffffc
   8e470:	eb02007f 	cmp	x3, x2
   8e474:	54000089 	b.ls	8e484 <_malloc_r+0x66c>  // b.plast
   8e478:	f9400800 	ldr	x0, [x0, #16]
   8e47c:	eb0000bf 	cmp	x5, x0
   8e480:	54ffff41 	b.ne	8e468 <_malloc_r+0x650>  // b.any
   8e484:	9115a2a2 	add	x2, x21, #0x568
   8e488:	f9400c05 	ldr	x5, [x0, #24]
   8e48c:	f9400442 	ldr	x2, [x2, #8]
   8e490:	a9011420 	stp	x0, x5, [x1, #16]
   8e494:	f90008a1 	str	x1, [x5, #16]
   8e498:	f9000c01 	str	x1, [x0, #24]
   8e49c:	17fffeca 	b	8dfc4 <_malloc_r+0x1ac>
   8e4a0:	f101501f 	cmp	x0, #0x54
   8e4a4:	54000309 	b.ls	8e504 <_malloc_r+0x6ec>  // b.plast
   8e4a8:	f105501f 	cmp	x0, #0x154
   8e4ac:	54000648 	b.hi	8e574 <_malloc_r+0x75c>  // b.pmore
   8e4b0:	d34ffe80 	lsr	x0, x20, #15
   8e4b4:	1101e004 	add	w4, w0, #0x78
   8e4b8:	1101dc05 	add	w5, w0, #0x77
   8e4bc:	531f7880 	lsl	w0, w4, #1
   8e4c0:	937d7c00 	sbfiz	x0, x0, #3, #32
   8e4c4:	17fffe92 	b	8df0c <_malloc_r+0xf4>
   8e4c8:	910080a5 	add	x5, x5, #0x20
   8e4cc:	110008e7 	add	w7, w7, #0x2
   8e4d0:	17ffffb4 	b	8e3a0 <_malloc_r+0x588>
   8e4d4:	eb19027f 	cmp	x19, x25
   8e4d8:	540007a0 	b.eq	8e5cc <_malloc_r+0x7b4>  // b.none
   8e4dc:	f9400b33 	ldr	x19, [x25, #16]
   8e4e0:	f9400661 	ldr	x1, [x19, #8]
   8e4e4:	927ef421 	and	x1, x1, #0xfffffffffffffffc
   8e4e8:	17ffff6e 	b	8e2a0 <_malloc_r+0x488>
   8e4ec:	d346fc40 	lsr	x0, x2, #6
   8e4f0:	1100e405 	add	w5, w0, #0x39
   8e4f4:	1100e003 	add	w3, w0, #0x38
   8e4f8:	531f78a5 	lsl	w5, w5, #1
   8e4fc:	937d7ca5 	sbfiz	x5, x5, #3, #32
   8e500:	17ffffd5 	b	8e454 <_malloc_r+0x63c>
   8e504:	d34cfe80 	lsr	x0, x20, #12
   8e508:	1101bc04 	add	w4, w0, #0x6f
   8e50c:	1101b805 	add	w5, w0, #0x6e
   8e510:	531f7880 	lsl	w0, w4, #1
   8e514:	937d7c00 	sbfiz	x0, x0, #3, #32
   8e518:	17fffe7d 	b	8df0c <_malloc_r+0xf4>
   8e51c:	f94004c7 	ldr	x7, [x6, #8]
   8e520:	13027c63 	asr	w3, w3, #2
   8e524:	d2800022 	mov	x2, #0x1                   	// #1
   8e528:	9ac32042 	lsl	x2, x2, x3
   8e52c:	aa070042 	orr	x2, x2, x7
   8e530:	f90004c2 	str	x2, [x6, #8]
   8e534:	17ffffd7 	b	8e490 <_malloc_r+0x678>
   8e538:	f101501f 	cmp	x0, #0x54
   8e53c:	54000528 	b.hi	8e5e0 <_malloc_r+0x7c8>  // b.pmore
   8e540:	d34cfc40 	lsr	x0, x2, #12
   8e544:	1101bc05 	add	w5, w0, #0x6f
   8e548:	1101b803 	add	w3, w0, #0x6e
   8e54c:	531f78a5 	lsl	w5, w5, #1
   8e550:	937d7ca5 	sbfiz	x5, x5, #3, #32
   8e554:	17ffffc0 	b	8e454 <_malloc_r+0x63c>
   8e558:	f2402c3f 	tst	x1, #0xfff
   8e55c:	54ffe201 	b.ne	8e19c <_malloc_r+0x384>  // b.any
   8e560:	f9400b22 	ldr	x2, [x25, #16]
   8e564:	8b1802e1 	add	x1, x23, x24
   8e568:	b2400021 	orr	x1, x1, #0x1
   8e56c:	f9000441 	str	x1, [x2, #8]
   8e570:	17ffff3d 	b	8e264 <_malloc_r+0x44c>
   8e574:	f115501f 	cmp	x0, #0x554
   8e578:	54000448 	b.hi	8e600 <_malloc_r+0x7e8>  // b.pmore
   8e57c:	d352fe80 	lsr	x0, x20, #18
   8e580:	1101f404 	add	w4, w0, #0x7d
   8e584:	1101f005 	add	w5, w0, #0x7c
   8e588:	531f7880 	lsl	w0, w4, #1
   8e58c:	937d7c00 	sbfiz	x0, x0, #3, #32
   8e590:	17fffe5f 	b	8df0c <_malloc_r+0xf4>
   8e594:	d2800020 	mov	x0, #0x1                   	// #1
   8e598:	f9000760 	str	x0, [x27, #8]
   8e59c:	aa1603e0 	mov	x0, x22
   8e5a0:	d2800013 	mov	x19, #0x0                   	// #0
   8e5a4:	9400002f 	bl	8e660 <__malloc_unlock>
   8e5a8:	f9402bbb 	ldr	x27, [x29, #80]
   8e5ac:	a94363b7 	ldp	x23, x24, [x29, #48]
   8e5b0:	a9446bb9 	ldp	x25, x26, [x29, #64]
   8e5b4:	17fffe3b 	b	8dea0 <_malloc_r+0x88>
   8e5b8:	f904081b 	str	x27, [x0, #2064]
   8e5bc:	17ffff00 	b	8e1bc <_malloc_r+0x3a4>
   8e5c0:	d2800021 	mov	x1, #0x1                   	// #1
   8e5c4:	52800000 	mov	w0, #0x0                   	// #0
   8e5c8:	17ffff10 	b	8e208 <_malloc_r+0x3f0>
   8e5cc:	913e4340 	add	x0, x26, #0xf90
   8e5d0:	b9400802 	ldr	w2, [x0, #8]
   8e5d4:	0b180042 	add	w2, w2, w24
   8e5d8:	b9000802 	str	w2, [x0, #8]
   8e5dc:	17fffef0 	b	8e19c <_malloc_r+0x384>
   8e5e0:	f105501f 	cmp	x0, #0x154
   8e5e4:	54000208 	b.hi	8e624 <_malloc_r+0x80c>  // b.pmore
   8e5e8:	d34ffc40 	lsr	x0, x2, #15
   8e5ec:	1101e005 	add	w5, w0, #0x78
   8e5f0:	1101dc03 	add	w3, w0, #0x77
   8e5f4:	531f78a5 	lsl	w5, w5, #1
   8e5f8:	937d7ca5 	sbfiz	x5, x5, #3, #32
   8e5fc:	17ffff96 	b	8e454 <_malloc_r+0x63c>
   8e600:	d280fe00 	mov	x0, #0x7f0                 	// #2032
   8e604:	52800fe4 	mov	w4, #0x7f                  	// #127
   8e608:	52800fc5 	mov	w5, #0x7e                  	// #126
   8e60c:	17fffe40 	b	8df0c <_malloc_r+0xf4>
   8e610:	aa1603e0 	mov	x0, x22
   8e614:	91004261 	add	x1, x19, #0x10
   8e618:	9400006c 	bl	8e7c8 <_free_r>
   8e61c:	b9400b00 	ldr	w0, [x24, #8]
   8e620:	17ffff11 	b	8e264 <_malloc_r+0x44c>
   8e624:	f115501f 	cmp	x0, #0x554
   8e628:	540000e8 	b.hi	8e644 <_malloc_r+0x82c>  // b.pmore
   8e62c:	d352fc40 	lsr	x0, x2, #18
   8e630:	1101f405 	add	w5, w0, #0x7d
   8e634:	1101f003 	add	w3, w0, #0x7c
   8e638:	531f78a5 	lsl	w5, w5, #1
   8e63c:	937d7ca5 	sbfiz	x5, x5, #3, #32
   8e640:	17ffff85 	b	8e454 <_malloc_r+0x63c>
   8e644:	d280fe05 	mov	x5, #0x7f0                 	// #2032
   8e648:	52800fc3 	mov	w3, #0x7e                  	// #126
   8e64c:	17ffff82 	b	8e454 <_malloc_r+0x63c>
   8e650:	f9400501 	ldr	x1, [x8, #8]
   8e654:	17ffff60 	b	8e3d4 <_malloc_r+0x5bc>

000000000008e658 <__malloc_lock>:
   8e658:	d65f03c0 	ret
   8e65c:	d503201f 	nop

000000000008e660 <__malloc_unlock>:
   8e660:	d65f03c0 	ret
   8e664:	00000000 	.inst	0x00000000 ; undefined

000000000008e668 <_sbrk_r>:
   8e668:	a9be7bfd 	stp	x29, x30, [sp, #-32]!
   8e66c:	910003fd 	mov	x29, sp
   8e670:	a90153f3 	stp	x19, x20, [sp, #16]
   8e674:	90000413 	adrp	x19, 10e000 <ECO_CGI_1_PIXEL_VALIDITY_FLAG_e>
   8e678:	aa0003f4 	mov	x20, x0
   8e67c:	aa0103e0 	mov	x0, x1
   8e680:	b9003a7f 	str	wzr, [x19, #56]
   8e684:	97ffd358 	bl	833e4 <_sbrk>
   8e688:	b100041f 	cmn	x0, #0x1
   8e68c:	54000080 	b.eq	8e69c <_sbrk_r+0x34>  // b.none
   8e690:	a94153f3 	ldp	x19, x20, [sp, #16]
   8e694:	a8c27bfd 	ldp	x29, x30, [sp], #32
   8e698:	d65f03c0 	ret
   8e69c:	b9403a61 	ldr	w1, [x19, #56]
   8e6a0:	34ffff81 	cbz	w1, 8e690 <_sbrk_r+0x28>
   8e6a4:	b9000281 	str	w1, [x20]
   8e6a8:	a94153f3 	ldp	x19, x20, [sp, #16]
   8e6ac:	a8c27bfd 	ldp	x29, x30, [sp], #32
   8e6b0:	d65f03c0 	ret
   8e6b4:	00000000 	.inst	0x00000000 ; undefined

000000000008e6b8 <_malloc_trim_r>:
   8e6b8:	a9bd7bfd 	stp	x29, x30, [sp, #-48]!
   8e6bc:	910003fd 	mov	x29, sp
   8e6c0:	a9025bf5 	stp	x21, x22, [sp, #32]
   8e6c4:	b0000015 	adrp	x21, 8f000 <g_x939B1DCDB6404F7D9C072291AF252188Factory+0xa0>
   8e6c8:	9115a2b5 	add	x21, x21, #0x568
   8e6cc:	a90153f3 	stp	x19, x20, [sp, #16]
   8e6d0:	aa0003f6 	mov	x22, x0
   8e6d4:	aa0103f3 	mov	x19, x1
   8e6d8:	97ffffe0 	bl	8e658 <__malloc_lock>
   8e6dc:	f9400aa0 	ldr	x0, [x21, #16]
   8e6e0:	f9400414 	ldr	x20, [x0, #8]
   8e6e4:	927ef694 	and	x20, x20, #0xfffffffffffffffc
   8e6e8:	cb130293 	sub	x19, x20, x19
   8e6ec:	913f7e73 	add	x19, x19, #0xfdf
   8e6f0:	9274ce73 	and	x19, x19, #0xfffffffffffff000
   8e6f4:	d1400673 	sub	x19, x19, #0x1, lsl #12
   8e6f8:	f13ffe7f 	cmp	x19, #0xfff
   8e6fc:	5400010d 	b.le	8e71c <_malloc_trim_r+0x64>
   8e700:	d2800001 	mov	x1, #0x0                   	// #0
   8e704:	aa1603e0 	mov	x0, x22
   8e708:	97ffffd8 	bl	8e668 <_sbrk_r>
   8e70c:	f9400aa1 	ldr	x1, [x21, #16]
   8e710:	8b140021 	add	x1, x1, x20
   8e714:	eb01001f 	cmp	x0, x1
   8e718:	54000100 	b.eq	8e738 <_malloc_trim_r+0x80>  // b.none
   8e71c:	aa1603e0 	mov	x0, x22
   8e720:	97ffffd0 	bl	8e660 <__malloc_unlock>
   8e724:	52800000 	mov	w0, #0x0                   	// #0
   8e728:	a94153f3 	ldp	x19, x20, [sp, #16]
   8e72c:	a9425bf5 	ldp	x21, x22, [sp, #32]
   8e730:	a8c37bfd 	ldp	x29, x30, [sp], #48
   8e734:	d65f03c0 	ret
   8e738:	cb1303e1 	neg	x1, x19
   8e73c:	aa1603e0 	mov	x0, x22
   8e740:	97ffffca 	bl	8e668 <_sbrk_r>
   8e744:	b100041f 	cmn	x0, #0x1
   8e748:	54000200 	b.eq	8e788 <_malloc_trim_r+0xd0>  // b.none
   8e74c:	f00003e2 	adrp	x2, 10d000 <EcoVirtualMemory1Lab_623E1838_MemoryMap+0x7c870>
   8e750:	f9400aa3 	ldr	x3, [x21, #16]
   8e754:	cb130294 	sub	x20, x20, x19
   8e758:	aa1603e0 	mov	x0, x22
   8e75c:	b94f9841 	ldr	w1, [x2, #3992]
   8e760:	b2400294 	orr	x20, x20, #0x1
   8e764:	f9000474 	str	x20, [x3, #8]
   8e768:	4b130033 	sub	w19, w1, w19
   8e76c:	b90f9853 	str	w19, [x2, #3992]
   8e770:	97ffffbc 	bl	8e660 <__malloc_unlock>
   8e774:	52800020 	mov	w0, #0x1                   	// #1
   8e778:	a94153f3 	ldp	x19, x20, [sp, #16]
   8e77c:	a9425bf5 	ldp	x21, x22, [sp, #32]
   8e780:	a8c37bfd 	ldp	x29, x30, [sp], #48
   8e784:	d65f03c0 	ret
   8e788:	d2800001 	mov	x1, #0x0                   	// #0
   8e78c:	aa1603e0 	mov	x0, x22
   8e790:	97ffffb6 	bl	8e668 <_sbrk_r>
   8e794:	f9400aa2 	ldr	x2, [x21, #16]
   8e798:	cb020001 	sub	x1, x0, x2
   8e79c:	f1007c3f 	cmp	x1, #0x1f
   8e7a0:	54fffbed 	b.le	8e71c <_malloc_trim_r+0x64>
   8e7a4:	b0000004 	adrp	x4, 8f000 <g_x939B1DCDB6404F7D9C072291AF252188Factory+0xa0>
   8e7a8:	b2400021 	orr	x1, x1, #0x1
   8e7ac:	f00003e3 	adrp	x3, 10d000 <EcoVirtualMemory1Lab_623E1838_MemoryMap+0x7c870>
   8e7b0:	f9000441 	str	x1, [x2, #8]
   8e7b4:	f946bc81 	ldr	x1, [x4, #3448]
   8e7b8:	cb010000 	sub	x0, x0, x1
   8e7bc:	b90f9860 	str	w0, [x3, #3992]
   8e7c0:	17ffffd7 	b	8e71c <_malloc_trim_r+0x64>
   8e7c4:	d503201f 	nop

000000000008e7c8 <_free_r>:
   8e7c8:	b40008a1 	cbz	x1, 8e8dc <_free_r+0x114>
   8e7cc:	a9be7bfd 	stp	x29, x30, [sp, #-32]!
   8e7d0:	910003fd 	mov	x29, sp
   8e7d4:	a90153f3 	stp	x19, x20, [sp, #16]
   8e7d8:	aa0103f3 	mov	x19, x1
   8e7dc:	aa0003f4 	mov	x20, x0
   8e7e0:	97ffff9e 	bl	8e658 <__malloc_lock>
   8e7e4:	d1004262 	sub	x2, x19, #0x10
   8e7e8:	b0000000 	adrp	x0, 8f000 <g_x939B1DCDB6404F7D9C072291AF252188Factory+0xa0>
   8e7ec:	f85f8265 	ldur	x5, [x19, #-8]
   8e7f0:	9115a003 	add	x3, x0, #0x568
   8e7f4:	927ff8a1 	and	x1, x5, #0xfffffffffffffffe
   8e7f8:	8b010044 	add	x4, x2, x1
   8e7fc:	f9400866 	ldr	x6, [x3, #16]
   8e800:	eb0400df 	cmp	x6, x4
   8e804:	f9400483 	ldr	x3, [x4, #8]
   8e808:	927ef463 	and	x3, x3, #0xfffffffffffffffc
   8e80c:	540008a0 	b.eq	8e920 <_free_r+0x158>  // b.none
   8e810:	f9000483 	str	x3, [x4, #8]
   8e814:	8b030086 	add	x6, x4, x3
   8e818:	37000645 	tbnz	w5, #0, 8e8e0 <_free_r+0x118>
   8e81c:	f85f0267 	ldur	x7, [x19, #-16]
   8e820:	f94004c5 	ldr	x5, [x6, #8]
   8e824:	b0000006 	adrp	x6, 8f000 <g_x939B1DCDB6404F7D9C072291AF252188Factory+0xa0>
   8e828:	cb070042 	sub	x2, x2, x7
   8e82c:	8b070021 	add	x1, x1, x7
   8e830:	9115e0c6 	add	x6, x6, #0x578
   8e834:	924000a5 	and	x5, x5, #0x1
   8e838:	f9400847 	ldr	x7, [x2, #16]
   8e83c:	eb0600ff 	cmp	x7, x6
   8e840:	54000c60 	b.eq	8e9cc <_free_r+0x204>  // b.none
   8e844:	f9400c46 	ldr	x6, [x2, #24]
   8e848:	f9000ce6 	str	x6, [x7, #24]
   8e84c:	f90008c7 	str	x7, [x6, #16]
   8e850:	b40004e5 	cbz	x5, 8e8ec <_free_r+0x124>
   8e854:	b2400023 	orr	x3, x1, #0x1
   8e858:	f9000443 	str	x3, [x2, #8]
   8e85c:	f8216841 	str	x1, [x2, x1]
   8e860:	f107fc3f 	cmp	x1, #0x1ff
   8e864:	540008e9 	b.ls	8e980 <_free_r+0x1b8>  // b.plast
   8e868:	d349fc23 	lsr	x3, x1, #9
   8e86c:	f100107f 	cmp	x3, #0x4
   8e870:	54000c08 	b.hi	8e9f0 <_free_r+0x228>  // b.pmore
   8e874:	d346fc23 	lsr	x3, x1, #6
   8e878:	1100e464 	add	w4, w3, #0x39
   8e87c:	1100e065 	add	w5, w3, #0x38
   8e880:	531f7884 	lsl	w4, w4, #1
   8e884:	937d7c84 	sbfiz	x4, x4, #3, #32
   8e888:	9115a000 	add	x0, x0, #0x568
   8e88c:	8b040004 	add	x4, x0, x4
   8e890:	f85f0483 	ldr	x3, [x4], #-16
   8e894:	eb03009f 	cmp	x4, x3
   8e898:	54000ce0 	b.eq	8ea34 <_free_r+0x26c>  // b.none
   8e89c:	d503201f 	nop
   8e8a0:	f9400460 	ldr	x0, [x3, #8]
   8e8a4:	927ef400 	and	x0, x0, #0xfffffffffffffffc
   8e8a8:	eb01001f 	cmp	x0, x1
   8e8ac:	54000c09 	b.ls	8ea2c <_free_r+0x264>  // b.plast
   8e8b0:	f9400863 	ldr	x3, [x3, #16]
   8e8b4:	eb03009f 	cmp	x4, x3
   8e8b8:	54ffff41 	b.ne	8e8a0 <_free_r+0xd8>  // b.any
   8e8bc:	f9400c81 	ldr	x1, [x4, #24]
   8e8c0:	a9010444 	stp	x4, x1, [x2, #16]
   8e8c4:	aa1403e0 	mov	x0, x20
   8e8c8:	f9000822 	str	x2, [x1, #16]
   8e8cc:	f9000c82 	str	x2, [x4, #24]
   8e8d0:	a94153f3 	ldp	x19, x20, [sp, #16]
   8e8d4:	a8c27bfd 	ldp	x29, x30, [sp], #32
   8e8d8:	17ffff62 	b	8e660 <__malloc_unlock>
   8e8dc:	d65f03c0 	ret
   8e8e0:	f94004c5 	ldr	x5, [x6, #8]
   8e8e4:	924000a5 	and	x5, x5, #0x1
   8e8e8:	b5fffb65 	cbnz	x5, 8e854 <_free_r+0x8c>
   8e8ec:	f9400885 	ldr	x5, [x4, #16]
   8e8f0:	8b030021 	add	x1, x1, x3
   8e8f4:	b0000003 	adrp	x3, 8f000 <g_x939B1DCDB6404F7D9C072291AF252188Factory+0xa0>
   8e8f8:	9115e063 	add	x3, x3, #0x578
   8e8fc:	b2400026 	orr	x6, x1, #0x1
   8e900:	eb0300bf 	cmp	x5, x3
   8e904:	54000a80 	b.eq	8ea54 <_free_r+0x28c>  // b.none
   8e908:	f9400c83 	ldr	x3, [x4, #24]
   8e90c:	f9000ca3 	str	x3, [x5, #24]
   8e910:	f9000865 	str	x5, [x3, #16]
   8e914:	f9000446 	str	x6, [x2, #8]
   8e918:	f8216841 	str	x1, [x2, x1]
   8e91c:	17ffffd1 	b	8e860 <_free_r+0x98>
   8e920:	8b030021 	add	x1, x1, x3
   8e924:	370000e5 	tbnz	w5, #0, 8e940 <_free_r+0x178>
   8e928:	f85f0263 	ldur	x3, [x19, #-16]
   8e92c:	cb030042 	sub	x2, x2, x3
   8e930:	8b030021 	add	x1, x1, x3
   8e934:	a9410c44 	ldp	x4, x3, [x2, #16]
   8e938:	f9000c83 	str	x3, [x4, #24]
   8e93c:	f9000864 	str	x4, [x3, #16]
   8e940:	9115a000 	add	x0, x0, #0x568
   8e944:	b0000003 	adrp	x3, 8f000 <g_x939B1DCDB6404F7D9C072291AF252188Factory+0xa0>
   8e948:	b2400024 	orr	x4, x1, #0x1
   8e94c:	f9000444 	str	x4, [x2, #8]
   8e950:	f946c063 	ldr	x3, [x3, #3456]
   8e954:	f9000802 	str	x2, [x0, #16]
   8e958:	eb01007f 	cmp	x3, x1
   8e95c:	540000a8 	b.hi	8e970 <_free_r+0x1a8>  // b.pmore
   8e960:	f00003e1 	adrp	x1, 10d000 <EcoVirtualMemory1Lab_623E1838_MemoryMap+0x7c870>
   8e964:	aa1403e0 	mov	x0, x20
   8e968:	f947c821 	ldr	x1, [x1, #3984]
   8e96c:	97ffff53 	bl	8e6b8 <_malloc_trim_r>
   8e970:	aa1403e0 	mov	x0, x20
   8e974:	a94153f3 	ldp	x19, x20, [sp, #16]
   8e978:	a8c27bfd 	ldp	x29, x30, [sp], #32
   8e97c:	17ffff39 	b	8e660 <__malloc_unlock>
   8e980:	d343fc24 	lsr	x4, x1, #3
   8e984:	9115a000 	add	x0, x0, #0x568
   8e988:	11000481 	add	w1, w4, #0x1
   8e98c:	d2800023 	mov	x3, #0x1                   	// #1
   8e990:	13027c84 	asr	w4, w4, #2
   8e994:	531f7821 	lsl	w1, w1, #1
   8e998:	f9400405 	ldr	x5, [x0, #8]
   8e99c:	9ac42063 	lsl	x3, x3, x4
   8e9a0:	8b21cc01 	add	x1, x0, w1, sxtw #3
   8e9a4:	aa050063 	orr	x3, x3, x5
   8e9a8:	f9000403 	str	x3, [x0, #8]
   8e9ac:	f85f0420 	ldr	x0, [x1], #-16
   8e9b0:	a9010440 	stp	x0, x1, [x2, #16]
   8e9b4:	f9000822 	str	x2, [x1, #16]
   8e9b8:	f9000c02 	str	x2, [x0, #24]
   8e9bc:	aa1403e0 	mov	x0, x20
   8e9c0:	a94153f3 	ldp	x19, x20, [sp, #16]
   8e9c4:	a8c27bfd 	ldp	x29, x30, [sp], #32
   8e9c8:	17ffff26 	b	8e660 <__malloc_unlock>
   8e9cc:	b5000765 	cbnz	x5, 8eab8 <_free_r+0x2f0>
   8e9d0:	a9410085 	ldp	x5, x0, [x4, #16]
   8e9d4:	f9000ca0 	str	x0, [x5, #24]
   8e9d8:	8b010061 	add	x1, x3, x1
   8e9dc:	b2400023 	orr	x3, x1, #0x1
   8e9e0:	f9000805 	str	x5, [x0, #16]
   8e9e4:	f9000443 	str	x3, [x2, #8]
   8e9e8:	f8216841 	str	x1, [x2, x1]
   8e9ec:	17ffffe1 	b	8e970 <_free_r+0x1a8>
   8e9f0:	f100507f 	cmp	x3, #0x14
   8e9f4:	54000129 	b.ls	8ea18 <_free_r+0x250>  // b.plast
   8e9f8:	f101507f 	cmp	x3, #0x54
   8e9fc:	54000388 	b.hi	8ea6c <_free_r+0x2a4>  // b.pmore
   8ea00:	d34cfc23 	lsr	x3, x1, #12
   8ea04:	1101bc64 	add	w4, w3, #0x6f
   8ea08:	1101b865 	add	w5, w3, #0x6e
   8ea0c:	531f7884 	lsl	w4, w4, #1
   8ea10:	937d7c84 	sbfiz	x4, x4, #3, #32
   8ea14:	17ffff9d 	b	8e888 <_free_r+0xc0>
   8ea18:	11017064 	add	w4, w3, #0x5c
   8ea1c:	11016c65 	add	w5, w3, #0x5b
   8ea20:	531f7884 	lsl	w4, w4, #1
   8ea24:	937d7c84 	sbfiz	x4, x4, #3, #32
   8ea28:	17ffff98 	b	8e888 <_free_r+0xc0>
   8ea2c:	aa0303e4 	mov	x4, x3
   8ea30:	17ffffa3 	b	8e8bc <_free_r+0xf4>
   8ea34:	13027ca3 	asr	w3, w5, #2
   8ea38:	f9400406 	ldr	x6, [x0, #8]
   8ea3c:	d2800025 	mov	x5, #0x1                   	// #1
   8ea40:	aa0403e1 	mov	x1, x4
   8ea44:	9ac320a3 	lsl	x3, x5, x3
   8ea48:	aa060063 	orr	x3, x3, x6
   8ea4c:	f9000403 	str	x3, [x0, #8]
   8ea50:	17ffff9c 	b	8e8c0 <_free_r+0xf8>
   8ea54:	9115a000 	add	x0, x0, #0x568
   8ea58:	a9020802 	stp	x2, x2, [x0, #32]
   8ea5c:	a9009446 	stp	x6, x5, [x2, #8]
   8ea60:	f9000c45 	str	x5, [x2, #24]
   8ea64:	f8216841 	str	x1, [x2, x1]
   8ea68:	17ffffc2 	b	8e970 <_free_r+0x1a8>
   8ea6c:	f105507f 	cmp	x3, #0x154
   8ea70:	540000e8 	b.hi	8ea8c <_free_r+0x2c4>  // b.pmore
   8ea74:	d34ffc23 	lsr	x3, x1, #15
   8ea78:	1101e064 	add	w4, w3, #0x78
   8ea7c:	1101dc65 	add	w5, w3, #0x77
   8ea80:	531f7884 	lsl	w4, w4, #1
   8ea84:	937d7c84 	sbfiz	x4, x4, #3, #32
   8ea88:	17ffff80 	b	8e888 <_free_r+0xc0>
   8ea8c:	f115507f 	cmp	x3, #0x554
   8ea90:	540000e8 	b.hi	8eaac <_free_r+0x2e4>  // b.pmore
   8ea94:	d352fc23 	lsr	x3, x1, #18
   8ea98:	1101f464 	add	w4, w3, #0x7d
   8ea9c:	1101f065 	add	w5, w3, #0x7c
   8eaa0:	531f7884 	lsl	w4, w4, #1
   8eaa4:	937d7c84 	sbfiz	x4, x4, #3, #32
   8eaa8:	17ffff78 	b	8e888 <_free_r+0xc0>
   8eaac:	d280fe04 	mov	x4, #0x7f0                 	// #2032
   8eab0:	52800fc5 	mov	w5, #0x7e                  	// #126
   8eab4:	17ffff75 	b	8e888 <_free_r+0xc0>
   8eab8:	b2400020 	orr	x0, x1, #0x1
   8eabc:	f9000440 	str	x0, [x2, #8]
   8eac0:	f9000081 	str	x1, [x4]
   8eac4:	17ffffab 	b	8e970 <_free_r+0x1a8>

000000000008eac8 <cleanup_glue>:
   8eac8:	a9be7bfd 	stp	x29, x30, [sp, #-32]!
   8eacc:	910003fd 	mov	x29, sp
   8ead0:	a90153f3 	stp	x19, x20, [sp, #16]
   8ead4:	aa0103f3 	mov	x19, x1
   8ead8:	f9400021 	ldr	x1, [x1]
   8eadc:	aa0003f4 	mov	x20, x0
   8eae0:	b50000c1 	cbnz	x1, 8eaf8 <cleanup_glue+0x30>
   8eae4:	aa1303e1 	mov	x1, x19
   8eae8:	aa1403e0 	mov	x0, x20
   8eaec:	a94153f3 	ldp	x19, x20, [sp, #16]
   8eaf0:	a8c27bfd 	ldp	x29, x30, [sp], #32
   8eaf4:	17ffff35 	b	8e7c8 <_free_r>
   8eaf8:	97fffff4 	bl	8eac8 <cleanup_glue>
   8eafc:	aa1303e1 	mov	x1, x19
   8eb00:	aa1403e0 	mov	x0, x20
   8eb04:	a94153f3 	ldp	x19, x20, [sp, #16]
   8eb08:	a8c27bfd 	ldp	x29, x30, [sp], #32
   8eb0c:	17ffff2f 	b	8e7c8 <_free_r>

000000000008eb10 <_reclaim_reent>:
   8eb10:	b0000001 	adrp	x1, 8f000 <g_x939B1DCDB6404F7D9C072291AF252188Factory+0xa0>
   8eb14:	f946c421 	ldr	x1, [x1, #3464]
   8eb18:	eb00003f 	cmp	x1, x0
   8eb1c:	54000760 	b.eq	8ec08 <_reclaim_reent+0xf8>  // b.none
   8eb20:	a9bd7bfd 	stp	x29, x30, [sp, #-48]!
   8eb24:	910003fd 	mov	x29, sp
   8eb28:	a90153f3 	stp	x19, x20, [sp, #16]
   8eb2c:	aa0003f4 	mov	x20, x0
   8eb30:	f9403c00 	ldr	x0, [x0, #120]
   8eb34:	f90013f5 	str	x21, [sp, #32]
   8eb38:	b4000200 	cbz	x0, 8eb78 <_reclaim_reent+0x68>
   8eb3c:	d2800015 	mov	x21, #0x0                   	// #0
   8eb40:	f8756801 	ldr	x1, [x0, x21]
   8eb44:	b40000e1 	cbz	x1, 8eb60 <_reclaim_reent+0x50>
   8eb48:	f9400033 	ldr	x19, [x1]
   8eb4c:	aa1403e0 	mov	x0, x20
   8eb50:	97ffff1e 	bl	8e7c8 <_free_r>
   8eb54:	aa1303e1 	mov	x1, x19
   8eb58:	b5ffff93 	cbnz	x19, 8eb48 <_reclaim_reent+0x38>
   8eb5c:	f9403e80 	ldr	x0, [x20, #120]
   8eb60:	910022b5 	add	x21, x21, #0x8
   8eb64:	f10802bf 	cmp	x21, #0x200
   8eb68:	54fffec1 	b.ne	8eb40 <_reclaim_reent+0x30>  // b.any
   8eb6c:	aa0003e1 	mov	x1, x0
   8eb70:	aa1403e0 	mov	x0, x20
   8eb74:	97ffff15 	bl	8e7c8 <_free_r>
   8eb78:	f9403281 	ldr	x1, [x20, #96]
   8eb7c:	b4000061 	cbz	x1, 8eb88 <_reclaim_reent+0x78>
   8eb80:	aa1403e0 	mov	x0, x20
   8eb84:	97ffff11 	bl	8e7c8 <_free_r>
   8eb88:	f940fe81 	ldr	x1, [x20, #504]
   8eb8c:	b4000161 	cbz	x1, 8ebb8 <_reclaim_reent+0xa8>
   8eb90:	91080295 	add	x21, x20, #0x200
   8eb94:	eb15003f 	cmp	x1, x21
   8eb98:	54000100 	b.eq	8ebb8 <_reclaim_reent+0xa8>  // b.none
   8eb9c:	d503201f 	nop
   8eba0:	f9400033 	ldr	x19, [x1]
   8eba4:	aa1403e0 	mov	x0, x20
   8eba8:	97ffff08 	bl	8e7c8 <_free_r>
   8ebac:	aa1303e1 	mov	x1, x19
   8ebb0:	eb1302bf 	cmp	x21, x19
   8ebb4:	54ffff61 	b.ne	8eba0 <_reclaim_reent+0x90>  // b.any
   8ebb8:	f9404681 	ldr	x1, [x20, #136]
   8ebbc:	b4000061 	cbz	x1, 8ebc8 <_reclaim_reent+0xb8>
   8ebc0:	aa1403e0 	mov	x0, x20
   8ebc4:	97ffff01 	bl	8e7c8 <_free_r>
   8ebc8:	b9405280 	ldr	w0, [x20, #80]
   8ebcc:	34000160 	cbz	w0, 8ebf8 <_reclaim_reent+0xe8>
   8ebd0:	f9402e81 	ldr	x1, [x20, #88]
   8ebd4:	aa1403e0 	mov	x0, x20
   8ebd8:	d63f0020 	blr	x1
   8ebdc:	f9429281 	ldr	x1, [x20, #1312]
   8ebe0:	b40000c1 	cbz	x1, 8ebf8 <_reclaim_reent+0xe8>
   8ebe4:	aa1403e0 	mov	x0, x20
   8ebe8:	f94013f5 	ldr	x21, [sp, #32]
   8ebec:	a94153f3 	ldp	x19, x20, [sp, #16]
   8ebf0:	a8c37bfd 	ldp	x29, x30, [sp], #48
   8ebf4:	17ffffb5 	b	8eac8 <cleanup_glue>
   8ebf8:	a94153f3 	ldp	x19, x20, [sp, #16]
   8ebfc:	f94013f5 	ldr	x21, [sp, #32]
   8ec00:	a8c37bfd 	ldp	x29, x30, [sp], #48
   8ec04:	d65f03c0 	ret
   8ec08:	d65f03c0 	ret
